
entrega.elf:     file format elf32-littlearm

Sections:
Idx Name          Size      VMA       LMA       File off  Algn
  0 .text         0000adec  0c000000  0c000000  00008000  2**2
                  CONTENTS, ALLOC, LOAD, READONLY, CODE
  1 .data         000002dc  0c00adf0  0c00adf0  00012df0  2**3
                  CONTENTS, ALLOC, LOAD, DATA
  2 .rodata       00001c60  0c00b0d0  0c00b0d0  000130d0  2**3
                  CONTENTS, ALLOC, LOAD, READONLY, DATA
  3 .bss          0000027c  0c00cd30  0c00cd30  00014d30  2**3
                  ALLOC
  4 .ARM.attributes 0000002e  00000000  00000000  00014d30  2**0
                  CONTENTS, READONLY
  5 .comment      0000002a  00000000  00000000  00014d5e  2**0
                  CONTENTS, READONLY
  6 .debug_line   0000405b  00000000  00000000  00014d88  2**0
                  CONTENTS, READONLY, DEBUGGING
  7 .debug_info   000042df  00000000  00000000  00018de3  2**0
                  CONTENTS, READONLY, DEBUGGING
  8 .debug_abbrev 0000187c  00000000  00000000  0001d0c2  2**0
                  CONTENTS, READONLY, DEBUGGING
  9 .debug_aranges 00000320  00000000  00000000  0001e940  2**3
                  CONTENTS, READONLY, DEBUGGING
 10 .debug_macinfo 00069337  00000000  00000000  0001ec60  2**0
                  CONTENTS, READONLY, DEBUGGING
 11 .debug_loc    0000529a  00000000  00000000  00087f97  2**0
                  CONTENTS, READONLY, DEBUGGING
 12 .debug_pubnames 00000a8e  00000000  00000000  0008d231  2**0
                  CONTENTS, READONLY, DEBUGGING
 13 .debug_pubtypes 0000023c  00000000  00000000  0008dcbf  2**0
                  CONTENTS, READONLY, DEBUGGING
 14 .debug_str    00000ee1  00000000  00000000  0008defb  2**0
                  CONTENTS, READONLY, DEBUGGING
 15 .debug_frame  00000eb4  00000000  00000000  0008eddc  2**2
                  CONTENTS, READONLY, DEBUGGING
 16 .debug_ranges 00000520  00000000  00000000  0008fc90  2**0
                  CONTENTS, READONLY, DEBUGGING

Disassembly of section .text:

0c000000 <ENTRY>:
    .extern Main			/* The main entry of mon program */
    
    .text

    ENTRY:
    b ResetHandler			/* for debug            */
 c000000:	ea00010a 	b	c000430 <ResetHandler>
    b HandlerUndef      	/* handlerUndef         */
 c000004:	ea000042 	b	c000114 <HandlerUndef>
    b HandlerSWI        	/* SWI interrupt handler*/
 c000008:	ea000047 	b	c00012c <HandlerSWI>
    b HandlerPabort     	/* handlerPAbort        */
 c00000c:	ea000052 	b	c00015c <HandlerPabort>
    b HandlerDabort     	/* handlerDAbort        */
 c000010:	ea00004b 	b	c000144 <HandlerDabort>
    b .                 	/* handlerReserved      */
 c000014:	eafffffe 	b	c000014 <ENTRY+0x14>
    b HandlerIRQ
 c000018:	ea000037 	b	c0000fc <HandlerIRQ>
    b HandlerFIQ
 c00001c:	ea000030 	b	c0000e4 <HandlerFIQ>

0c000020 <VECTOR_BRANCH>:
	#be changed like below, to work-around with H/W bug of S3C44B0X interrupt controller. 
	# b HandlerIRQ  ->  subs pc,lr,#4
	# b HandlerIRQ  ->  subs pc,lr,#4

VECTOR_BRANCH:
    ldr pc,=HandlerEINT0    /*mGA    H/W interrupt vector table  */
 c000020:	e59ff5ac 	ldr	pc, [pc, #1452]	; c0005d4 <U0+0x14>
    ldr pc,=HandlerEINT1    /*	                                 */	
 c000024:	e59ff5ac 	ldr	pc, [pc, #1452]	; c0005d8 <U0+0x18>
    ldr pc,=HandlerEINT2    /*                                   */  
 c000028:	e59ff5ac 	ldr	pc, [pc, #1452]	; c0005dc <U0+0x1c>
    ldr pc,=HandlerEINT3    /*                                   */  
 c00002c:	e59ff5ac 	ldr	pc, [pc, #1452]	; c0005e0 <U0+0x20>
    ldr pc,=HandlerEINT4567 /*                                   */  
 c000030:	e59ff5ac 	ldr	pc, [pc, #1452]	; c0005e4 <U0+0x24>
    ldr pc,=HandlerTICK	    /*mGA                                */   
 c000034:	e59ff5ac 	ldr	pc, [pc, #1452]	; c0005e8 <U0+0x28>
    b .                                                          
 c000038:	eafffffe 	b	c000038 <VECTOR_BRANCH+0x18>
    b .                                                         
 c00003c:	eafffffe 	b	c00003c <VECTOR_BRANCH+0x1c>
    ldr pc,=HandlerZDMA0    /*mGB                                */  
 c000040:	e59ff5a4 	ldr	pc, [pc, #1444]	; c0005ec <U0+0x2c>
    ldr pc,=HandlerZDMA1    /*                                   */  
 c000044:	e59ff5a4 	ldr	pc, [pc, #1444]	; c0005f0 <U0+0x30>
    ldr pc,=HandlerBDMA0    /*                                   */  
 c000048:	e59ff5a4 	ldr	pc, [pc, #1444]	; c0005f4 <U0+0x34>
    ldr pc,=HandlerBDMA1    /*                                   */  
 c00004c:	e59ff5a4 	ldr	pc, [pc, #1444]	; c0005f8 <U0+0x38>
    ldr pc,=HandlerWDT	    /*                                   */   
 c000050:	e59ff5a4 	ldr	pc, [pc, #1444]	; c0005fc <U0+0x3c>
    ldr pc,=HandlerUERR01   /*mGB                                */  
 c000054:	e59ff5a4 	ldr	pc, [pc, #1444]	; c000600 <U0+0x40>
    b .                                                          
 c000058:	eafffffe 	b	c000058 <VECTOR_BRANCH+0x38>
    b .                                                          
 c00005c:	eafffffe 	b	c00005c <VECTOR_BRANCH+0x3c>
    ldr pc,=HandlerTIMER0   /*mGC                                */  
 c000060:	e59ff59c 	ldr	pc, [pc, #1436]	; c000604 <U0+0x44>
    ldr pc,=HandlerTIMER1   /*                                   */  
 c000064:	e59ff59c 	ldr	pc, [pc, #1436]	; c000608 <U0+0x48>
    ldr pc,=HandlerTIMER2   /*                                   */  
 c000068:	e59ff59c 	ldr	pc, [pc, #1436]	; c00060c <U0+0x4c>
    ldr pc,=HandlerTIMER3   /*                                   */  
 c00006c:	e59ff59c 	ldr	pc, [pc, #1436]	; c000610 <U0+0x50>
    ldr pc,=HandlerTIMER4   /*                                   */  
 c000070:	e59ff59c 	ldr	pc, [pc, #1436]	; c000614 <U0+0x54>
    ldr pc,=HandlerTIMER5   /*mGC                                */  
 c000074:	e59ff59c 	ldr	pc, [pc, #1436]	; c000618 <U0+0x58>
    b .                                                          
 c000078:	eafffffe 	b	c000078 <VECTOR_BRANCH+0x58>
    b .                                                          
 c00007c:	eafffffe 	b	c00007c <VECTOR_BRANCH+0x5c>
    ldr pc,=HandlerURXD0    /*mGD                                */  
 c000080:	e59ff594 	ldr	pc, [pc, #1428]	; c00061c <U0+0x5c>
    ldr pc,=HandlerURXD1    /*                                   */  
 c000084:	e59ff594 	ldr	pc, [pc, #1428]	; c000620 <U0+0x60>
    ldr pc,=HandlerIIC	    /*                                   */   
 c000088:	e59ff594 	ldr	pc, [pc, #1428]	; c000624 <U0+0x64>
    ldr pc,=HandlerSIO	    /*                                   */   
 c00008c:	e59ff594 	ldr	pc, [pc, #1428]	; c000628 <U0+0x68>
    ldr pc,=HandlerUTXD0    /*                                   */  
 c000090:	e59ff594 	ldr	pc, [pc, #1428]	; c00062c <U0+0x6c>
    ldr pc,=HandlerUTXD1    /*mGD                                */  
 c000094:	e59ff594 	ldr	pc, [pc, #1428]	; c000630 <U0+0x70>
    b .                                                          
 c000098:	eafffffe 	b	c000098 <VECTOR_BRANCH+0x78>
    b .                                                          
 c00009c:	eafffffe 	b	c00009c <VECTOR_BRANCH+0x7c>
    ldr pc,=HandlerRTC	    /*mGKA                               */   
 c0000a0:	e59ff58c 	ldr	pc, [pc, #1420]	; c000634 <U0+0x74>
    b .					    /*                     		         */
 c0000a4:	eafffffe 	b	c0000a4 <VECTOR_BRANCH+0x84>
    b .					    /*                     		         */
 c0000a8:	eafffffe 	b	c0000a8 <VECTOR_BRANCH+0x88>
    b .					    /*                     		         */
 c0000ac:	eafffffe 	b	c0000ac <VECTOR_BRANCH+0x8c>
    b .					    /*                     		         */
 c0000b0:	eafffffe 	b	c0000b0 <VECTOR_BRANCH+0x90>
    b .					    /*mGKA                 			     */
 c0000b4:	eafffffe 	b	c0000b4 <VECTOR_BRANCH+0x94>
    b .                                                          
 c0000b8:	eafffffe 	b	c0000b8 <VECTOR_BRANCH+0x98>
    b .                                                          
 c0000bc:	eafffffe 	b	c0000bc <VECTOR_BRANCH+0x9c>
    ldr pc,=HandlerADC	    /*mGKB                               */  
 c0000c0:	e59ff570 	ldr	pc, [pc, #1392]	; c000638 <U0+0x78>
    b .					    /*                     		         */
 c0000c4:	eafffffe 	b	c0000c4 <VECTOR_BRANCH+0xa4>
    b .					    /*                     		         */
 c0000c8:	eafffffe 	b	c0000c8 <VECTOR_BRANCH+0xa8>
    b .					    /*                     		         */
 c0000cc:	eafffffe 	b	c0000cc <VECTOR_BRANCH+0xac>
    b .					    /*                     		         */
 c0000d0:	eafffffe 	b	c0000d0 <VECTOR_BRANCH+0xb0>
    b .					    /*mGKB                 		         */
 c0000d4:	eafffffe 	b	c0000d4 <VECTOR_BRANCH+0xb4>
    b .                                                          
 c0000d8:	eafffffe 	b	c0000d8 <VECTOR_BRANCH+0xb8>
    b .                                                          
 c0000dc:	eafffffe 	b	c0000dc <VECTOR_BRANCH+0xbc>
@0xe0=EnterPWDN                                                 
    ldr pc,=EnterPWDN
 c0000e0:	e59ff554 	ldr	pc, [pc, #1364]	; c00063c <U0+0x7c>

0c0000e4 <HandlerFIQ>:
               to be dumped into the current section\ 
               (which is assumed to be the .text section)\ 
               at the current location (aligned to a word boundary).*/
   .align

HandlerFIQ:		HANDLER HandleFIQ
 c0000e4:	e24dd004 	sub	sp, sp, #4
 c0000e8:	e52d0004 	push	{r0}		; (str r0, [sp, #-4]!)
 c0000ec:	e59f054c 	ldr	r0, [pc, #1356]	; c000640 <U0+0x80>
 c0000f0:	e5900000 	ldr	r0, [r0]
 c0000f4:	e58d0004 	str	r0, [sp, #4]
 c0000f8:	e8bd8001 	pop	{r0, pc}

0c0000fc <HandlerIRQ>:
HandlerIRQ:		HANDLER HandleIRQ
 c0000fc:	e24dd004 	sub	sp, sp, #4
 c000100:	e52d0004 	push	{r0}		; (str r0, [sp, #-4]!)
 c000104:	e59f0538 	ldr	r0, [pc, #1336]	; c000644 <U0+0x84>
 c000108:	e5900000 	ldr	r0, [r0]
 c00010c:	e58d0004 	str	r0, [sp, #4]
 c000110:	e8bd8001 	pop	{r0, pc}

0c000114 <HandlerUndef>:
HandlerUndef:	HANDLER HandleUndef
 c000114:	e24dd004 	sub	sp, sp, #4
 c000118:	e52d0004 	push	{r0}		; (str r0, [sp, #-4]!)
 c00011c:	e59f0524 	ldr	r0, [pc, #1316]	; c000648 <U0+0x88>
 c000120:	e5900000 	ldr	r0, [r0]
 c000124:	e58d0004 	str	r0, [sp, #4]
 c000128:	e8bd8001 	pop	{r0, pc}

0c00012c <HandlerSWI>:
HandlerSWI:		HANDLER HandleSWI
 c00012c:	e24dd004 	sub	sp, sp, #4
 c000130:	e52d0004 	push	{r0}		; (str r0, [sp, #-4]!)
 c000134:	e59f0510 	ldr	r0, [pc, #1296]	; c00064c <U0+0x8c>
 c000138:	e5900000 	ldr	r0, [r0]
 c00013c:	e58d0004 	str	r0, [sp, #4]
 c000140:	e8bd8001 	pop	{r0, pc}

0c000144 <HandlerDabort>:
HandlerDabort:	HANDLER HandleDabort
 c000144:	e24dd004 	sub	sp, sp, #4
 c000148:	e52d0004 	push	{r0}		; (str r0, [sp, #-4]!)
 c00014c:	e59f04fc 	ldr	r0, [pc, #1276]	; c000650 <U0+0x90>
 c000150:	e5900000 	ldr	r0, [r0]
 c000154:	e58d0004 	str	r0, [sp, #4]
 c000158:	e8bd8001 	pop	{r0, pc}

0c00015c <HandlerPabort>:
HandlerPabort:	HANDLER HandlePabort
 c00015c:	e24dd004 	sub	sp, sp, #4
 c000160:	e52d0004 	push	{r0}		; (str r0, [sp, #-4]!)
 c000164:	e59f04e8 	ldr	r0, [pc, #1256]	; c000654 <U0+0x94>
 c000168:	e5900000 	ldr	r0, [r0]
 c00016c:	e58d0004 	str	r0, [sp, #4]
 c000170:	e8bd8001 	pop	{r0, pc}

0c000174 <HandlerADC>:
HandlerADC:		HANDLER HandleADC
 c000174:	e24dd004 	sub	sp, sp, #4
 c000178:	e52d0004 	push	{r0}		; (str r0, [sp, #-4]!)
 c00017c:	e59f04d4 	ldr	r0, [pc, #1236]	; c000658 <U0+0x98>
 c000180:	e5900000 	ldr	r0, [r0]
 c000184:	e58d0004 	str	r0, [sp, #4]
 c000188:	e8bd8001 	pop	{r0, pc}

0c00018c <HandlerRTC>:
HandlerRTC:		HANDLER HandleRTC
 c00018c:	e24dd004 	sub	sp, sp, #4
 c000190:	e52d0004 	push	{r0}		; (str r0, [sp, #-4]!)
 c000194:	e59f04c0 	ldr	r0, [pc, #1216]	; c00065c <U0+0x9c>
 c000198:	e5900000 	ldr	r0, [r0]
 c00019c:	e58d0004 	str	r0, [sp, #4]
 c0001a0:	e8bd8001 	pop	{r0, pc}

0c0001a4 <HandlerUTXD1>:
HandlerUTXD1:	HANDLER HandleUTXD1
 c0001a4:	e24dd004 	sub	sp, sp, #4
 c0001a8:	e52d0004 	push	{r0}		; (str r0, [sp, #-4]!)
 c0001ac:	e59f04ac 	ldr	r0, [pc, #1196]	; c000660 <U0+0xa0>
 c0001b0:	e5900000 	ldr	r0, [r0]
 c0001b4:	e58d0004 	str	r0, [sp, #4]
 c0001b8:	e8bd8001 	pop	{r0, pc}

0c0001bc <HandlerUTXD0>:
HandlerUTXD0:	HANDLER HandleUTXD0
 c0001bc:	e24dd004 	sub	sp, sp, #4
 c0001c0:	e52d0004 	push	{r0}		; (str r0, [sp, #-4]!)
 c0001c4:	e59f0498 	ldr	r0, [pc, #1176]	; c000664 <U0+0xa4>
 c0001c8:	e5900000 	ldr	r0, [r0]
 c0001cc:	e58d0004 	str	r0, [sp, #4]
 c0001d0:	e8bd8001 	pop	{r0, pc}

0c0001d4 <HandlerSIO>:
HandlerSIO:		HANDLER HandleSIO
 c0001d4:	e24dd004 	sub	sp, sp, #4
 c0001d8:	e52d0004 	push	{r0}		; (str r0, [sp, #-4]!)
 c0001dc:	e59f0484 	ldr	r0, [pc, #1156]	; c000668 <U0+0xa8>
 c0001e0:	e5900000 	ldr	r0, [r0]
 c0001e4:	e58d0004 	str	r0, [sp, #4]
 c0001e8:	e8bd8001 	pop	{r0, pc}

0c0001ec <HandlerIIC>:
HandlerIIC:		HANDLER HandleIIC
 c0001ec:	e24dd004 	sub	sp, sp, #4
 c0001f0:	e52d0004 	push	{r0}		; (str r0, [sp, #-4]!)
 c0001f4:	e59f0470 	ldr	r0, [pc, #1136]	; c00066c <U0+0xac>
 c0001f8:	e5900000 	ldr	r0, [r0]
 c0001fc:	e58d0004 	str	r0, [sp, #4]
 c000200:	e8bd8001 	pop	{r0, pc}

0c000204 <HandlerURXD1>:
HandlerURXD1:	HANDLER HandleURXD1
 c000204:	e24dd004 	sub	sp, sp, #4
 c000208:	e52d0004 	push	{r0}		; (str r0, [sp, #-4]!)
 c00020c:	e59f045c 	ldr	r0, [pc, #1116]	; c000670 <U0+0xb0>
 c000210:	e5900000 	ldr	r0, [r0]
 c000214:	e58d0004 	str	r0, [sp, #4]
 c000218:	e8bd8001 	pop	{r0, pc}

0c00021c <HandlerURXD0>:
HandlerURXD0:	HANDLER HandleURXD0
 c00021c:	e24dd004 	sub	sp, sp, #4
 c000220:	e52d0004 	push	{r0}		; (str r0, [sp, #-4]!)
 c000224:	e59f0448 	ldr	r0, [pc, #1096]	; c000674 <U0+0xb4>
 c000228:	e5900000 	ldr	r0, [r0]
 c00022c:	e58d0004 	str	r0, [sp, #4]
 c000230:	e8bd8001 	pop	{r0, pc}

0c000234 <HandlerTIMER5>:
HandlerTIMER5:	HANDLER HandleTIMER5
 c000234:	e24dd004 	sub	sp, sp, #4
 c000238:	e52d0004 	push	{r0}		; (str r0, [sp, #-4]!)
 c00023c:	e59f0434 	ldr	r0, [pc, #1076]	; c000678 <U0+0xb8>
 c000240:	e5900000 	ldr	r0, [r0]
 c000244:	e58d0004 	str	r0, [sp, #4]
 c000248:	e8bd8001 	pop	{r0, pc}

0c00024c <HandlerTIMER4>:
HandlerTIMER4:	HANDLER HandleTIMER4
 c00024c:	e24dd004 	sub	sp, sp, #4
 c000250:	e52d0004 	push	{r0}		; (str r0, [sp, #-4]!)
 c000254:	e59f0420 	ldr	r0, [pc, #1056]	; c00067c <U0+0xbc>
 c000258:	e5900000 	ldr	r0, [r0]
 c00025c:	e58d0004 	str	r0, [sp, #4]
 c000260:	e8bd8001 	pop	{r0, pc}

0c000264 <HandlerTIMER3>:
HandlerTIMER3:	HANDLER HandleTIMER3
 c000264:	e24dd004 	sub	sp, sp, #4
 c000268:	e52d0004 	push	{r0}		; (str r0, [sp, #-4]!)
 c00026c:	e59f040c 	ldr	r0, [pc, #1036]	; c000680 <U0+0xc0>
 c000270:	e5900000 	ldr	r0, [r0]
 c000274:	e58d0004 	str	r0, [sp, #4]
 c000278:	e8bd8001 	pop	{r0, pc}

0c00027c <HandlerTIMER2>:
HandlerTIMER2:	HANDLER HandleTIMER2
 c00027c:	e24dd004 	sub	sp, sp, #4
 c000280:	e52d0004 	push	{r0}		; (str r0, [sp, #-4]!)
 c000284:	e59f03f8 	ldr	r0, [pc, #1016]	; c000684 <U0+0xc4>
 c000288:	e5900000 	ldr	r0, [r0]
 c00028c:	e58d0004 	str	r0, [sp, #4]
 c000290:	e8bd8001 	pop	{r0, pc}

0c000294 <HandlerTIMER1>:
HandlerTIMER1:	HANDLER HandleTIMER1
 c000294:	e24dd004 	sub	sp, sp, #4
 c000298:	e52d0004 	push	{r0}		; (str r0, [sp, #-4]!)
 c00029c:	e59f03e4 	ldr	r0, [pc, #996]	; c000688 <U0+0xc8>
 c0002a0:	e5900000 	ldr	r0, [r0]
 c0002a4:	e58d0004 	str	r0, [sp, #4]
 c0002a8:	e8bd8001 	pop	{r0, pc}

0c0002ac <HandlerTIMER0>:
HandlerTIMER0:	HANDLER HandleTIMER0
 c0002ac:	e24dd004 	sub	sp, sp, #4
 c0002b0:	e52d0004 	push	{r0}		; (str r0, [sp, #-4]!)
 c0002b4:	e59f03d0 	ldr	r0, [pc, #976]	; c00068c <U0+0xcc>
 c0002b8:	e5900000 	ldr	r0, [r0]
 c0002bc:	e58d0004 	str	r0, [sp, #4]
 c0002c0:	e8bd8001 	pop	{r0, pc}

0c0002c4 <HandlerUERR01>:
HandlerUERR01:	HANDLER HandleUERR01
 c0002c4:	e24dd004 	sub	sp, sp, #4
 c0002c8:	e52d0004 	push	{r0}		; (str r0, [sp, #-4]!)
 c0002cc:	e59f03bc 	ldr	r0, [pc, #956]	; c000690 <U0+0xd0>
 c0002d0:	e5900000 	ldr	r0, [r0]
 c0002d4:	e58d0004 	str	r0, [sp, #4]
 c0002d8:	e8bd8001 	pop	{r0, pc}

0c0002dc <HandlerWDT>:
HandlerWDT:		HANDLER HandleWDT
 c0002dc:	e24dd004 	sub	sp, sp, #4
 c0002e0:	e52d0004 	push	{r0}		; (str r0, [sp, #-4]!)
 c0002e4:	e59f03a8 	ldr	r0, [pc, #936]	; c000694 <U0+0xd4>
 c0002e8:	e5900000 	ldr	r0, [r0]
 c0002ec:	e58d0004 	str	r0, [sp, #4]
 c0002f0:	e8bd8001 	pop	{r0, pc}

0c0002f4 <HandlerBDMA1>:
HandlerBDMA1:	HANDLER HandleBDMA1
 c0002f4:	e24dd004 	sub	sp, sp, #4
 c0002f8:	e52d0004 	push	{r0}		; (str r0, [sp, #-4]!)
 c0002fc:	e59f0394 	ldr	r0, [pc, #916]	; c000698 <U0+0xd8>
 c000300:	e5900000 	ldr	r0, [r0]
 c000304:	e58d0004 	str	r0, [sp, #4]
 c000308:	e8bd8001 	pop	{r0, pc}

0c00030c <HandlerBDMA0>:
HandlerBDMA0:	HANDLER HandleBDMA0
 c00030c:	e24dd004 	sub	sp, sp, #4
 c000310:	e52d0004 	push	{r0}		; (str r0, [sp, #-4]!)
 c000314:	e59f0380 	ldr	r0, [pc, #896]	; c00069c <U0+0xdc>
 c000318:	e5900000 	ldr	r0, [r0]
 c00031c:	e58d0004 	str	r0, [sp, #4]
 c000320:	e8bd8001 	pop	{r0, pc}

0c000324 <HandlerZDMA1>:
HandlerZDMA1:	HANDLER HandleZDMA1
 c000324:	e24dd004 	sub	sp, sp, #4
 c000328:	e52d0004 	push	{r0}		; (str r0, [sp, #-4]!)
 c00032c:	e59f036c 	ldr	r0, [pc, #876]	; c0006a0 <U0+0xe0>
 c000330:	e5900000 	ldr	r0, [r0]
 c000334:	e58d0004 	str	r0, [sp, #4]
 c000338:	e8bd8001 	pop	{r0, pc}

0c00033c <HandlerZDMA0>:
HandlerZDMA0:	HANDLER HandleZDMA0
 c00033c:	e24dd004 	sub	sp, sp, #4
 c000340:	e52d0004 	push	{r0}		; (str r0, [sp, #-4]!)
 c000344:	e59f0358 	ldr	r0, [pc, #856]	; c0006a4 <U0+0xe4>
 c000348:	e5900000 	ldr	r0, [r0]
 c00034c:	e58d0004 	str	r0, [sp, #4]
 c000350:	e8bd8001 	pop	{r0, pc}

0c000354 <HandlerTICK>:
HandlerTICK:	HANDLER HandleTICK
 c000354:	e24dd004 	sub	sp, sp, #4
 c000358:	e52d0004 	push	{r0}		; (str r0, [sp, #-4]!)
 c00035c:	e59f0344 	ldr	r0, [pc, #836]	; c0006a8 <U0+0xe8>
 c000360:	e5900000 	ldr	r0, [r0]
 c000364:	e58d0004 	str	r0, [sp, #4]
 c000368:	e8bd8001 	pop	{r0, pc}

0c00036c <HandlerEINT4567>:
HandlerEINT4567:HANDLER HandleEINT4567
 c00036c:	e24dd004 	sub	sp, sp, #4
 c000370:	e52d0004 	push	{r0}		; (str r0, [sp, #-4]!)
 c000374:	e59f0330 	ldr	r0, [pc, #816]	; c0006ac <U0+0xec>
 c000378:	e5900000 	ldr	r0, [r0]
 c00037c:	e58d0004 	str	r0, [sp, #4]
 c000380:	e8bd8001 	pop	{r0, pc}

0c000384 <HandlerEINT3>:
HandlerEINT3:	HANDLER HandleEINT3
 c000384:	e24dd004 	sub	sp, sp, #4
 c000388:	e52d0004 	push	{r0}		; (str r0, [sp, #-4]!)
 c00038c:	e59f031c 	ldr	r0, [pc, #796]	; c0006b0 <U0+0xf0>
 c000390:	e5900000 	ldr	r0, [r0]
 c000394:	e58d0004 	str	r0, [sp, #4]
 c000398:	e8bd8001 	pop	{r0, pc}

0c00039c <HandlerEINT2>:
HandlerEINT2:	HANDLER HandleEINT2
 c00039c:	e24dd004 	sub	sp, sp, #4
 c0003a0:	e52d0004 	push	{r0}		; (str r0, [sp, #-4]!)
 c0003a4:	e59f0308 	ldr	r0, [pc, #776]	; c0006b4 <U0+0xf4>
 c0003a8:	e5900000 	ldr	r0, [r0]
 c0003ac:	e58d0004 	str	r0, [sp, #4]
 c0003b0:	e8bd8001 	pop	{r0, pc}

0c0003b4 <HandlerEINT1>:
HandlerEINT1:	HANDLER HandleEINT1
 c0003b4:	e24dd004 	sub	sp, sp, #4
 c0003b8:	e52d0004 	push	{r0}		; (str r0, [sp, #-4]!)
 c0003bc:	e59f02f4 	ldr	r0, [pc, #756]	; c0006b8 <U0+0xf8>
 c0003c0:	e5900000 	ldr	r0, [r0]
 c0003c4:	e58d0004 	str	r0, [sp, #4]
 c0003c8:	e8bd8001 	pop	{r0, pc}

0c0003cc <HandlerEINT0>:
HandlerEINT0:	HANDLER HandleEINT0
 c0003cc:	e24dd004 	sub	sp, sp, #4
 c0003d0:	e52d0004 	push	{r0}		; (str r0, [sp, #-4]!)
 c0003d4:	e59f02e0 	ldr	r0, [pc, #736]	; c0006bc <U0+0xfc>
 c0003d8:	e5900000 	ldr	r0, [r0]
 c0003dc:	e58d0004 	str	r0, [sp, #4]
 c0003e0:	e8bd8001 	pop	{r0, pc}

0c0003e4 <IsrIRQ>:

#One of the following two routines can be used for non-vectored interrupt.

IsrIRQ:						/* using I_ISPR register. */
    sub	    sp,sp,#4       	/* reserved for PC	  */
 c0003e4:	e24dd004 	sub	sp, sp, #4
    stmfd   sp!,{r8-r9}   
 c0003e8:	e92d0300 	push	{r8, r9}

#IMPORTANT CAUTION
# when I_ISPC is not used properly, I_ISPR can be 0 in this routine.

    ldr	    r9,=I_ISPR
 c0003ec:	e59f92cc 	ldr	r9, [pc, #716]	; c0006c0 <U0+0x100>
    ldr	    r9,[r9]
 c0003f0:	e5999000 	ldr	r9, [r9]

	cmp		r9, #0x0		/* If the IDLE mode work-around is used, 	*/
 c0003f4:	e3590000 	cmp	r9, #0
							/* r9 may be 0 sometimes.			*/
	beq		l2
 c0003f8:	0a000009 	beq	c000424 <l2>

    mov	    r8,#0x0
 c0003fc:	e3a08000 	mov	r8, #0

0c000400 <l0>:
l0:
    movs    r9,r9,lsr #1
 c000400:	e1b090a9 	lsrs	r9, r9, #1
    bcs	    l1
 c000404:	2a000001 	bcs	c000410 <l1>
    add	    r8,r8,#4
 c000408:	e2888004 	add	r8, r8, #4
    b	    l0
 c00040c:	eafffffb 	b	c000400 <l0>

0c000410 <l1>:

l1:
    ldr	    r9,=HandleADC
 c000410:	e59f9240 	ldr	r9, [pc, #576]	; c000658 <U0+0x98>
    add	    r9,r9,r8
 c000414:	e0899008 	add	r9, r9, r8
    ldr	    r9,[r9]
 c000418:	e5999000 	ldr	r9, [r9]
    str	    r9,[sp,#8]
 c00041c:	e58d9008 	str	r9, [sp, #8]
    ldmfd   sp!,{r8-r9,pc}
 c000420:	e8bd8300 	pop	{r8, r9, pc}

0c000424 <l2>:

l2:
	ldmfd	sp!,{r8-r9}
 c000424:	e8bd0300 	pop	{r8, r9}
	add		sp,sp,#4
 c000428:	e28dd004 	add	sp, sp, #4
	subs	pc,lr,#4
 c00042c:	e25ef004 	subs	pc, lr, #4

0c000430 <ResetHandler>:

#****************************************************
#*	START											*
#****************************************************
ResetHandler:
    ldr	    r0,=WTCON	    	/* watch dog disable*/
 c000430:	e59f028c 	ldr	r0, [pc, #652]	; c0006c4 <U0+0x104>
    ldr	    r1,=0x0 		
 c000434:	e3a01000 	mov	r1, #0
    str	    r1,[r0]
 c000438:	e5801000 	str	r1, [r0]

    ldr	    r0,=INTMSK
 c00043c:	e59f0284 	ldr	r0, [pc, #644]	; c0006c8 <U0+0x108>
    ldr	    r1,=0x07ffffff  	/* all interrupt disable */
 c000440:	e3e0133e 	mvn	r1, #-134217728	; 0xf8000000
    str	    r1,[r0]
 c000444:	e5801000 	str	r1, [r0]

    #****************************************************
    #*	Configuramos controlador de memoria				*
    #****************************************************
    ldr	    r0,=(SMRDATA-0xc000000)
 c000448:	e59f027c 	ldr	r0, [pc, #636]	; c0006cc <U0+0x10c>
    ldmia   r0,{r1-r13}
 c00044c:	e8903ffe 	ldm	r0, {r1, r2, r3, r4, r5, r6, r7, r8, r9, sl, fp, ip, sp}
    ldr	    r0,=0x01c80000  	/* BWSCON Address */
 c000450:	e3a00772 	mov	r0, #29884416	; 0x1c80000
    stmia   r0,{r1-r13}
 c000454:	e8803ffe 	stm	r0, {r1, r2, r3, r4, r5, r6, r7, r8, r9, sl, fp, ip, sp}

	LDR r0,=0x0
 c000458:	e3a00000 	mov	r0, #0
	LDR r1,=Image_RO_Base
 c00045c:	e59f126c 	ldr	r1, [pc, #620]	; c0006d0 <U0+0x110>
	LDR r3,=Image_ZI_Base
 c000460:	e59f326c 	ldr	r3, [pc, #620]	; c0006d4 <U0+0x114>

0c000464 <LoopRw>:
LoopRw:
    cmp         r1, r3
 c000464:	e1510003 	cmp	r1, r3
	ldrcc       r2, [r0], #4
 c000468:	34902004 	ldrcc	r2, [r0], #4
	strcc       r2, [r1], #4
 c00046c:	34812004 	strcc	r2, [r1], #4
	bcc         LoopRw
 c000470:	3afffffb 	bcc	c000464 <LoopRw>

/* código nuevo (Darío) */
        LDR r0, =Image_ZI_Base
 c000474:	e59f0258 	ldr	r0, [pc, #600]	; c0006d4 <U0+0x114>
        LDR r1, =Image_ZI_Limit
 c000478:	e59f1258 	ldr	r1, [pc, #600]	; c0006d8 <U0+0x118>
        mov r3, #0
 c00047c:	e3a03000 	mov	r3, #0

0c000480 <LoopZI>:
LoopZI:
        cmp r0, r1
 c000480:	e1500001 	cmp	r0, r1
        strcc r3, [r0], #4
 c000484:	34803004 	strcc	r3, [r0], #4
        bcc LoopZI
 c000488:	3afffffc 	bcc	c000480 <LoopZI>
/* fin código nuevo (Darío) */

    #****************************************************
    #*	Set clock control registers						*
    #****************************************************
    ldr		r0,=LOCKTIME
 c00048c:	e59f0248 	ldr	r0, [pc, #584]	; c0006dc <U0+0x11c>
    ldr		r1,=0xfff
 c000490:	e59f1248 	ldr	r1, [pc, #584]	; c0006e0 <U0+0x120>
    str		r1,[r0]
 c000494:	e5801000 	str	r1, [r0]

.if PLLONSTART
	ldr		r0,=PLLCON			/* temporary setting of PLL */
 c000498:	e3a00776 	mov	r0, #30932992	; 0x1d80000
	ldr		r1,=((M_DIV<<12)+(P_DIV<<4)+S_DIV)	/* Fin=8MHz,Fout=64MHz     */
 c00049c:	e59f1240 	ldr	r1, [pc, #576]	; c0006e4 <U0+0x124>
	str		r1,[r0]
 c0004a0:	e5801000 	str	r1, [r0]
.endif

    ldr	    r0,=CLKCON		
 c0004a4:	e59f023c 	ldr	r0, [pc, #572]	; c0006e8 <U0+0x128>
    ldr	    r1,=0x7ff8	    	/* All unit block CLK enable */
 c0004a8:	e59f123c 	ldr	r1, [pc, #572]	; c0006ec <U0+0x12c>
    str	    r1,[r0]
 c0004ac:	e5801000 	str	r1, [r0]

    #****************************************
    #*  change BDMACON reset value for BDMA *   
    #****************************************
    ldr     r0,=BDIDES0      
 c0004b0:	e59f0238 	ldr	r0, [pc, #568]	; c0006f0 <U0+0x130>
    ldr     r1,=0x40000000   	/* BDIDESn reset value should be 0x40000000 */
 c0004b4:	e3a01101 	mov	r1, #1073741824	; 0x40000000
    str     r1,[r0]
 c0004b8:	e5801000 	str	r1, [r0]

    ldr     r0,=BDIDES1      
 c0004bc:	e59f0230 	ldr	r0, [pc, #560]	; c0006f4 <U0+0x134>
    ldr     r1,=0x40000000   	/* BDIDESn reset value should be 0x40000000 */	 
 c0004c0:	e3a01101 	mov	r1, #1073741824	; 0x40000000
    str     r1,[r0]
 c0004c4:	e5801000 	str	r1, [r0]


    #;****************************************************
    #;*	Initialize stacks								* 
    #;****************************************************
    ldr	    sp, =SVCStack		/* Why	*/		
 c0004c8:	e59fd228 	ldr	sp, [pc, #552]	; c0006f8 <U0+0x138>
    bl	    InitStacks
 c0004cc:	eb000015 	bl	c000528 <InitStacks>

    #;****************************************************
    #;*	Setup IRQ handler								*
    #;****************************************************
    ldr	    r0,=HandleIRQ		/* This routine is needed */
 c0004d0:	e59f016c 	ldr	r0, [pc, #364]	; c000644 <U0+0x84>
    ldr	    r1,=IsrIRQ			/* if there is not 'subs pc,lr,#4' at 0x18, 0x1c */
 c0004d4:	e59f1220 	ldr	r1, [pc, #544]	; c0006fc <U0+0x13c>
    str	    r1,[r0]
 c0004d8:	e5801000 	str	r1, [r0]

    #********************************************************
    #*	Copy and paste RW data/zero initialized data	    *
    #********************************************************
    LDR	    r0, =Image_RO_Limit	/* Get pointer to ROM data */
 c0004dc:	e59f021c 	ldr	r0, [pc, #540]	; c000700 <U0+0x140>
    LDR	    r1, =Image_RW_Base	/* and RAM copy	*/
 c0004e0:	e59f121c 	ldr	r1, [pc, #540]	; c000704 <U0+0x144>
    LDR	    r3, =Image_ZI_Base	
 c0004e4:	e59f31e8 	ldr	r3, [pc, #488]	; c0006d4 <U0+0x114>
	/* Zero init base => top of initialised data */
			
    CMP	    r0, r1	    		/* Check that they are different */
 c0004e8:	e1500001 	cmp	r0, r1
    BEQ	    F1
 c0004ec:	0a000003 	beq	c000500 <F1>

0c0004f0 <F0>:
F0:
    CMP	    r1, r3				/* Copy init data                        */
 c0004f0:	e1510003 	cmp	r1, r3
    LDRCC   r2, [r0], #4        /* --> LDRCC r2, [r0] + ADD r0, r0, #4	 */
 c0004f4:	34902004 	ldrcc	r2, [r0], #4
    STRCC   r2, [r1], #4        /* --> STRCC r2, [r1] + ADD r1, r1, #4   */ 
 c0004f8:	34812004 	strcc	r2, [r1], #4
    BCC	    F0
 c0004fc:	3afffffb 	bcc	c0004f0 <F0>

0c000500 <F1>:
F1:
    LDR	    r1, =Image_ZI_Limit	/* Top of zero init segment */
 c000500:	e59f11d0 	ldr	r1, [pc, #464]	; c0006d8 <U0+0x118>
    MOV	    r2, #0
 c000504:	e3a02000 	mov	r2, #0

0c000508 <F2>:
F2:
    CMP	    r3, r1	    		/* Zero init */
 c000508:	e1530001 	cmp	r3, r1
    STRCC   r2, [r3], #4
 c00050c:	34832004 	strcc	r2, [r3], #4
    BCC	    F2
 c000510:	3afffffc 	bcc	c000508 <F2>

	MRS	r0, CPSR
 c000514:	e10f0000 	mrs	r0, CPSR
	BIC	r0, r0, #NOINT /* enable interrupt */
 c000518:	e3c000c0 	bic	r0, r0, #192	; 0xc0
	MSR	CPSR_cxsf, r0
 c00051c:	e12ff000 	msr	CPSR_fsxc, r0
	/* jump to main() */
   	BL	Main
 c000520:	eb001418 	bl	c005588 <Main>
   	B   .	    
 c000524:	eafffffe 	b	c000524 <F2+0x1c>

0c000528 <InitStacks>:
InitStacks:
	# Don't use DRAM,such as stmfd,ldmfd......
	# SVCstack is initialized before
	# Under toolkit ver 2.50, 'msr cpsr,r1' can be used instead of 'msr cpsr_cxsf,r1'

    mrs	    r0,cpsr
 c000528:	e10f0000 	mrs	r0, CPSR
    bic	    r0,r0,#MODEMASK
 c00052c:	e3c0001f 	bic	r0, r0, #31
    orr	    r1,r0,#UNDEFMODE
 c000530:	e380101b 	orr	r1, r0, #27
    msr	    cpsr_cxsf,r1		/* UndefMode */
 c000534:	e12ff001 	msr	CPSR_fsxc, r1
    ldr	    sp,=UndefStack
 c000538:	e59fd1c8 	ldr	sp, [pc, #456]	; c000708 <U0+0x148>


    orr	    r1,r0,#MODEMASK|NOINT
 c00053c:	e38010df 	orr	r1, r0, #223	; 0xdf
    msr	    cpsr_cxsf,r1 	    /* SystemMode */
 c000540:	e12ff001 	msr	CPSR_fsxc, r1
    ldr	    sp,=UserStack
 c000544:	e59fd1c0 	ldr	sp, [pc, #448]	; c00070c <U0+0x14c>


    orr	    r1,r0,#ABORTMODE|NOINT
 c000548:	e38010d7 	orr	r1, r0, #215	; 0xd7
    msr	    cpsr_cxsf,r1 	    /* AbortMode */	
 c00054c:	e12ff001 	msr	CPSR_fsxc, r1
    ldr	    sp,=AbortStack
 c000550:	e59fd1b8 	ldr	sp, [pc, #440]	; c000710 <U0+0x150>

    orr	    r1,r0,#IRQMODE|FIQ_MODE
 c000554:	e3801092 	orr	r1, r0, #146	; 0x92
    msr	    cpsr_cxsf,r1 	    /* IRQMode */
 c000558:	e12ff001 	msr	CPSR_fsxc, r1
    ldr	    sp,=IRQStack
 c00055c:	e59fd1b0 	ldr	sp, [pc, #432]	; c000714 <U0+0x154>
	
    orr	    r1,r0,#FIQMODE|IRQ_MODE
 c000560:	e3801051 	orr	r1, r0, #81	; 0x51
    msr	    cpsr_cxsf,r1 	    /* FIQMode */
 c000564:	e12ff001 	msr	CPSR_fsxc, r1
    ldr	    sp,=FIQStack
 c000568:	e59fd1a8 	ldr	sp, [pc, #424]	; c000718 <U0+0x158>

    bic	    r0,r0,#MODEMASK
 c00056c:	e3c0001f 	bic	r0, r0, #31
    orr	    r1,r0,#SVCMODE
 c000570:	e3801013 	orr	r1, r0, #19
    msr	    cpsr_cxsf,r1 	    /* SVCMode */
 c000574:	e12ff001 	msr	CPSR_fsxc, r1
    ldr	    sp,=SVCStack
 c000578:	e59fd178 	ldr	sp, [pc, #376]	; c0006f8 <U0+0x138>

	#USER mode is not initialized.
    mov	    pc,lr 				/* The LR register may be not valid for the mode changes. */
 c00057c:	e1a0f00e 	mov	pc, lr

0c000580 <EnterPWDN>:
#****************************************************
#*	The function for entering power down mode		*
#****************************************************
#void EnterPWDN(int CLKCON);
EnterPWDN:
    mov	    r2,r0               /* r0=CLKCON */
 c000580:	e1a02000 	mov	r2, r0
    ldr	    r0,=REFRESH		
 c000584:	e59f0190 	ldr	r0, [pc, #400]	; c00071c <U0+0x15c>
    ldr	    r3,[r0]
 c000588:	e5903000 	ldr	r3, [r0]
    mov	    r1, r3
 c00058c:	e1a01003 	mov	r1, r3
    orr	    r1, r1, #0x400000   /* self-refresh enable */
 c000590:	e3811501 	orr	r1, r1, #4194304	; 0x400000
    str	    r1, [r0]
 c000594:	e5801000 	str	r1, [r0]

    nop     /* Wait until self-refresh is issued. May not be needed. */
 c000598:	e1a00000 	nop			; (mov r0, r0)
    nop     /* If the other bus master holds the bus, ... */
 c00059c:	e1a00000 	nop			; (mov r0, r0)
    nop	    /* mov r0, r0 */
 c0005a0:	e1a00000 	nop			; (mov r0, r0)
    nop
 c0005a4:	e1a00000 	nop			; (mov r0, r0)
    nop
 c0005a8:	e1a00000 	nop			; (mov r0, r0)
    nop
 c0005ac:	e1a00000 	nop			; (mov r0, r0)
    nop
 c0005b0:	e1a00000 	nop			; (mov r0, r0)

#enter POWERDN mode
    ldr	    r0,=CLKCON
 c0005b4:	e59f012c 	ldr	r0, [pc, #300]	; c0006e8 <U0+0x128>
    str	    r2,[r0]
 c0005b8:	e5802000 	str	r2, [r0]

#wait until enter SL_IDLE,STOP mode and until wake-up
    ldr	    r0,=0x10
 c0005bc:	e3a00010 	mov	r0, #16

0c0005c0 <U0>:
U0: subs    r0,r0,#1
 c0005c0:	e2500001 	subs	r0, r0, #1
    bne	    U0
 c0005c4:	1afffffd 	bne	c0005c0 <U0>

#exit from DRAM/SDRAM self refresh mode.
    ldr	    r0,=REFRESH
 c0005c8:	e59f014c 	ldr	r0, [pc, #332]	; c00071c <U0+0x15c>
    str	    r3,[r0]
 c0005cc:	e5803000 	str	r3, [r0]
    mov	    pc,lr
 c0005d0:	e1a0f00e 	mov	pc, lr
 c0005d4:	0c0003cc 	.word	0x0c0003cc
 c0005d8:	0c0003b4 	.word	0x0c0003b4
 c0005dc:	0c00039c 	.word	0x0c00039c
 c0005e0:	0c000384 	.word	0x0c000384
 c0005e4:	0c00036c 	.word	0x0c00036c
 c0005e8:	0c000354 	.word	0x0c000354
 c0005ec:	0c00033c 	.word	0x0c00033c
 c0005f0:	0c000324 	.word	0x0c000324
 c0005f4:	0c00030c 	.word	0x0c00030c
 c0005f8:	0c0002f4 	.word	0x0c0002f4
 c0005fc:	0c0002dc 	.word	0x0c0002dc
 c000600:	0c0002c4 	.word	0x0c0002c4
 c000604:	0c0002ac 	.word	0x0c0002ac
 c000608:	0c000294 	.word	0x0c000294
 c00060c:	0c00027c 	.word	0x0c00027c
 c000610:	0c000264 	.word	0x0c000264
 c000614:	0c00024c 	.word	0x0c00024c
 c000618:	0c000234 	.word	0x0c000234
 c00061c:	0c00021c 	.word	0x0c00021c
 c000620:	0c000204 	.word	0x0c000204
 c000624:	0c0001ec 	.word	0x0c0001ec
 c000628:	0c0001d4 	.word	0x0c0001d4
 c00062c:	0c0001bc 	.word	0x0c0001bc
 c000630:	0c0001a4 	.word	0x0c0001a4
 c000634:	0c00018c 	.word	0x0c00018c
 c000638:	0c000174 	.word	0x0c000174
 c00063c:	0c000580 	.word	0x0c000580
 c000640:	0c7fff1c 	.word	0x0c7fff1c
 c000644:	0c7fff18 	.word	0x0c7fff18
 c000648:	0c7fff04 	.word	0x0c7fff04
 c00064c:	0c7fff08 	.word	0x0c7fff08
 c000650:	0c7fff10 	.word	0x0c7fff10
 c000654:	0c7fff0c 	.word	0x0c7fff0c
 c000658:	0c7fff20 	.word	0x0c7fff20
 c00065c:	0c7fff24 	.word	0x0c7fff24
 c000660:	0c7fff28 	.word	0x0c7fff28
 c000664:	0c7fff2c 	.word	0x0c7fff2c
 c000668:	0c7fff30 	.word	0x0c7fff30
 c00066c:	0c7fff34 	.word	0x0c7fff34
 c000670:	0c7fff38 	.word	0x0c7fff38
 c000674:	0c7fff3c 	.word	0x0c7fff3c
 c000678:	0c7fff40 	.word	0x0c7fff40
 c00067c:	0c7fff44 	.word	0x0c7fff44
 c000680:	0c7fff48 	.word	0x0c7fff48
 c000684:	0c7fff4c 	.word	0x0c7fff4c
 c000688:	0c7fff50 	.word	0x0c7fff50
 c00068c:	0c7fff54 	.word	0x0c7fff54
 c000690:	0c7fff58 	.word	0x0c7fff58
 c000694:	0c7fff5c 	.word	0x0c7fff5c
 c000698:	0c7fff60 	.word	0x0c7fff60
 c00069c:	0c7fff64 	.word	0x0c7fff64
 c0006a0:	0c7fff68 	.word	0x0c7fff68
 c0006a4:	0c7fff6c 	.word	0x0c7fff6c
 c0006a8:	0c7fff70 	.word	0x0c7fff70
 c0006ac:	0c7fff74 	.word	0x0c7fff74
 c0006b0:	0c7fff78 	.word	0x0c7fff78
 c0006b4:	0c7fff7c 	.word	0x0c7fff7c
 c0006b8:	0c7fff80 	.word	0x0c7fff80
 c0006bc:	0c7fff84 	.word	0x0c7fff84
 c0006c0:	01e00020 	.word	0x01e00020
 c0006c4:	01d30000 	.word	0x01d30000
 c0006c8:	01e0000c 	.word	0x01e0000c
 c0006cc:	00000720 	.word	0x00000720
 c0006d0:	0c000000 	.word	0x0c000000
 c0006d4:	0c00cd30 	.word	0x0c00cd30
 c0006d8:	0c00cfac 	.word	0x0c00cfac
 c0006dc:	01d8000c 	.word	0x01d8000c
 c0006e0:	00000fff 	.word	0x00000fff
 c0006e4:	00038021 	.word	0x00038021
 c0006e8:	01d80004 	.word	0x01d80004
 c0006ec:	00007ff8 	.word	0x00007ff8
 c0006f0:	01f80008 	.word	0x01f80008
 c0006f4:	01f80028 	.word	0x01f80028
 c0006f8:	0c7ff100 	.word	0x0c7ff100
 c0006fc:	0c0003e4 	.word	0x0c0003e4
 c000700:	0c00adec 	.word	0x0c00adec
 c000704:	0c00adec 	.word	0x0c00adec
 c000708:	0c7ff200 	.word	0x0c7ff200
 c00070c:	0c7ff000 	.word	0x0c7ff000
 c000710:	0c7ff300 	.word	0x0c7ff300
 c000714:	0c7ff400 	.word	0x0c7ff400
 c000718:	0c7ff500 	.word	0x0c7ff500
 c00071c:	01c80024 	.word	0x01c80024

0c000720 <SMRDATA>:
 c000720:	11110102 	.word	0x11110102
 c000724:	00000600 	.word	0x00000600
 c000728:	00007ffc 	.word	0x00007ffc
 c00072c:	00007ffc 	.word	0x00007ffc
 c000730:	00007ffc 	.word	0x00007ffc
 c000734:	00007ffc 	.word	0x00007ffc
 c000738:	00007ffc 	.word	0x00007ffc
 c00073c:	00018000 	.word	0x00018000
 c000740:	00018000 	.word	0x00018000
 c000744:	00860459 	.word	0x00860459
 c000748:	00000010 	.word	0x00000010
 c00074c:	00000020 	.word	0x00000020
 c000750:	00000020 	.word	0x00000020

0c000754 <Delay.clone.0>:
void DelayTime(int num) __attribute__((optimize("-O0")));
void Delay(int time) __attribute__((optimize("-O0")));
//--------------------------------SYSTEM---------------------------------//
static int delayLoopCount=400;

void Delay(int time)
 c000754:	e1a0c00d 	mov	ip, sp
 c000758:	e92dd800 	push	{fp, ip, lr, pc}
 c00075c:	e24cb004 	sub	fp, ip, #4
 c000760:	e24dd010 	sub	sp, sp, #16
 c000764:	e3a03000 	mov	r3, #0
 c000768:	e50b3010 	str	r3, [fp, #-16]
// time=0: adjust the Delay function by WatchDog timer
// time>0: the number of loop time
// 100us resolution
// Delay(10) -> 10*100us resolution
{
	int i,adjust=0;
 c00076c:	e3a03000 	mov	r3, #0
 c000770:	e50b3014 	str	r3, [fp, #-20]	; 0xffffffec
	if(time==0)
 c000774:	e51b3010 	ldr	r3, [fp, #-16]
 c000778:	e3530000 	cmp	r3, #0
 c00077c:	1a000022 	bne	c00080c <Delay.clone.0+0xb8>
	{
		time=200;
 c000780:	e3a030c8 	mov	r3, #200	; 0xc8
 c000784:	e50b3010 	str	r3, [fp, #-16]
		adjust=1;
 c000788:	e3a03001 	mov	r3, #1
 c00078c:	e50b3014 	str	r3, [fp, #-20]	; 0xffffffec
		delayLoopCount=400;
 c000790:	e59f30e0 	ldr	r3, [pc, #224]	; c000878 <Delay.clone.0+0x124>
 c000794:	e3a02e19 	mov	r2, #400	; 0x190
 c000798:	e5832000 	str	r2, [r3]
		rWTCON=((MCLK/1000000-1)<<8)|(2<<3);	// 1M/64,Watch-dog,nRESET,interrupt disable//
 c00079c:	e59f30d8 	ldr	r3, [pc, #216]	; c00087c <Delay.clone.0+0x128>
 c0007a0:	e59f20d8 	ldr	r2, [pc, #216]	; c000880 <Delay.clone.0+0x12c>
 c0007a4:	e5832000 	str	r2, [r3]
		rWTDAT=0xffff;
 c0007a8:	e59f30d4 	ldr	r3, [pc, #212]	; c000884 <Delay.clone.0+0x130>
 c0007ac:	e59f20d4 	ldr	r2, [pc, #212]	; c000888 <Delay.clone.0+0x134>
 c0007b0:	e5832000 	str	r2, [r3]
		rWTCNT=0xffff;	 
 c0007b4:	e59f30d0 	ldr	r3, [pc, #208]	; c00088c <Delay.clone.0+0x138>
 c0007b8:	e59f20c8 	ldr	r2, [pc, #200]	; c000888 <Delay.clone.0+0x134>
 c0007bc:	e5832000 	str	r2, [r3]
		rWTCON=((MCLK/1000000-1)<<8)|(2<<3)|(1<<5); // 1M/64,Watch-dog enable,nRESET,interrupt disable //
 c0007c0:	e59f30b4 	ldr	r3, [pc, #180]	; c00087c <Delay.clone.0+0x128>
 c0007c4:	e59f20c4 	ldr	r2, [pc, #196]	; c000890 <Delay.clone.0+0x13c>
 c0007c8:	e5832000 	str	r2, [r3]
 c0007cc:	ea00000f 	b	c000810 <Delay.clone.0+0xbc>
	}
	for(;time>0;time--)
		for(i=0;i<delayLoopCount;i++);
 c0007d0:	e3a03000 	mov	r3, #0
 c0007d4:	e50b3018 	str	r3, [fp, #-24]	; 0xffffffe8
 c0007d8:	ea000002 	b	c0007e8 <Delay.clone.0+0x94>
 c0007dc:	e51b3018 	ldr	r3, [fp, #-24]	; 0xffffffe8
 c0007e0:	e2833001 	add	r3, r3, #1
 c0007e4:	e50b3018 	str	r3, [fp, #-24]	; 0xffffffe8
 c0007e8:	e59f3088 	ldr	r3, [pc, #136]	; c000878 <Delay.clone.0+0x124>
 c0007ec:	e5933000 	ldr	r3, [r3]
 c0007f0:	e51b2018 	ldr	r2, [fp, #-24]	; 0xffffffe8
 c0007f4:	e1520003 	cmp	r2, r3
 c0007f8:	bafffff7 	blt	c0007dc <Delay.clone.0+0x88>
		rWTCON=((MCLK/1000000-1)<<8)|(2<<3);	// 1M/64,Watch-dog,nRESET,interrupt disable//
		rWTDAT=0xffff;
		rWTCNT=0xffff;	 
		rWTCON=((MCLK/1000000-1)<<8)|(2<<3)|(1<<5); // 1M/64,Watch-dog enable,nRESET,interrupt disable //
	}
	for(;time>0;time--)
 c0007fc:	e51b3010 	ldr	r3, [fp, #-16]
 c000800:	e2433001 	sub	r3, r3, #1
 c000804:	e50b3010 	str	r3, [fp, #-16]
 c000808:	ea000000 	b	c000810 <Delay.clone.0+0xbc>
		adjust=1;
		delayLoopCount=400;
		rWTCON=((MCLK/1000000-1)<<8)|(2<<3);	// 1M/64,Watch-dog,nRESET,interrupt disable//
		rWTDAT=0xffff;
		rWTCNT=0xffff;	 
		rWTCON=((MCLK/1000000-1)<<8)|(2<<3)|(1<<5); // 1M/64,Watch-dog enable,nRESET,interrupt disable //
 c00080c:	e1a00000 	nop			; (mov r0, r0)
	}
	for(;time>0;time--)
 c000810:	e51b3010 	ldr	r3, [fp, #-16]
 c000814:	e3530000 	cmp	r3, #0
 c000818:	caffffec 	bgt	c0007d0 <Delay.clone.0+0x7c>
		for(i=0;i<delayLoopCount;i++);
	if(adjust==1)
 c00081c:	e51b3014 	ldr	r3, [fp, #-20]	; 0xffffffec
 c000820:	e3530001 	cmp	r3, #1
 c000824:	1a000010 	bne	c00086c <Delay.clone.0+0x118>
	{
		rWTCON=((MCLK/1000000-1)<<8)|(2<<3);
 c000828:	e59f304c 	ldr	r3, [pc, #76]	; c00087c <Delay.clone.0+0x128>
 c00082c:	e59f204c 	ldr	r2, [pc, #76]	; c000880 <Delay.clone.0+0x12c>
 c000830:	e5832000 	str	r2, [r3]
		i=0xffff-rWTCNT;   //  1count/16us?????????//
 c000834:	e59f3050 	ldr	r3, [pc, #80]	; c00088c <Delay.clone.0+0x138>
 c000838:	e5933000 	ldr	r3, [r3]
 c00083c:	e2633cff 	rsb	r3, r3, #65280	; 0xff00
 c000840:	e28330ff 	add	r3, r3, #255	; 0xff
 c000844:	e50b3018 	str	r3, [fp, #-24]	; 0xffffffe8
		delayLoopCount=8000000/(i*64);	//400*100/(i*64/200)   //
 c000848:	e51b3018 	ldr	r3, [fp, #-24]	; 0xffffffe8
 c00084c:	e1a03303 	lsl	r3, r3, #6
 c000850:	e59f003c 	ldr	r0, [pc, #60]	; c000894 <Delay.clone.0+0x140>
 c000854:	e1a01003 	mov	r1, r3
 c000858:	eb002662 	bl	c00a1e8 <__aeabi_idiv>
 c00085c:	e1a03000 	mov	r3, r0
 c000860:	e1a02003 	mov	r2, r3
 c000864:	e59f300c 	ldr	r3, [pc, #12]	; c000878 <Delay.clone.0+0x124>
 c000868:	e5832000 	str	r2, [r3]
	}
}
 c00086c:	e24bd00c 	sub	sp, fp, #12
 c000870:	e89d6800 	ldm	sp, {fp, sp, lr}
 c000874:	e12fff1e 	bx	lr
 c000878:	0c00adf8 	.word	0x0c00adf8
 c00087c:	01d30000 	.word	0x01d30000
 c000880:	00003f10 	.word	0x00003f10
 c000884:	01d30004 	.word	0x01d30004
 c000888:	0000ffff 	.word	0x0000ffff
 c00088c:	01d30008 	.word	0x01d30008
 c000890:	00003f30 	.word	0x00003f30
 c000894:	007a1200 	.word	0x007a1200

0c000898 <Delay>:
void Delay(int time)
// time=0: adjust the Delay function by WatchDog timer
// time>0: the number of loop time
// 100us resolution
// Delay(10) -> 10*100us resolution
{
 c000898:	e1a0c00d 	mov	ip, sp
 c00089c:	e92dd800 	push	{fp, ip, lr, pc}
 c0008a0:	e24cb004 	sub	fp, ip, #4
 c0008a4:	e24dd010 	sub	sp, sp, #16
 c0008a8:	e50b0018 	str	r0, [fp, #-24]	; 0xffffffe8
	int i,adjust=0;
 c0008ac:	e3a03000 	mov	r3, #0
 c0008b0:	e50b3014 	str	r3, [fp, #-20]	; 0xffffffec
	if(time==0)
 c0008b4:	e51b3018 	ldr	r3, [fp, #-24]	; 0xffffffe8
 c0008b8:	e3530000 	cmp	r3, #0
 c0008bc:	1a000022 	bne	c00094c <Delay+0xb4>
	{
		time=200;
 c0008c0:	e3a030c8 	mov	r3, #200	; 0xc8
 c0008c4:	e50b3018 	str	r3, [fp, #-24]	; 0xffffffe8
		adjust=1;
 c0008c8:	e3a03001 	mov	r3, #1
 c0008cc:	e50b3014 	str	r3, [fp, #-20]	; 0xffffffec
		delayLoopCount=400;
 c0008d0:	e59f30e0 	ldr	r3, [pc, #224]	; c0009b8 <Delay+0x120>
 c0008d4:	e3a02e19 	mov	r2, #400	; 0x190
 c0008d8:	e5832000 	str	r2, [r3]
		rWTCON=((MCLK/1000000-1)<<8)|(2<<3);	// 1M/64,Watch-dog,nRESET,interrupt disable//
 c0008dc:	e59f30d8 	ldr	r3, [pc, #216]	; c0009bc <Delay+0x124>
 c0008e0:	e59f20d8 	ldr	r2, [pc, #216]	; c0009c0 <Delay+0x128>
 c0008e4:	e5832000 	str	r2, [r3]
		rWTDAT=0xffff;
 c0008e8:	e59f30d4 	ldr	r3, [pc, #212]	; c0009c4 <Delay+0x12c>
 c0008ec:	e59f20d4 	ldr	r2, [pc, #212]	; c0009c8 <Delay+0x130>
 c0008f0:	e5832000 	str	r2, [r3]
		rWTCNT=0xffff;	 
 c0008f4:	e59f30d0 	ldr	r3, [pc, #208]	; c0009cc <Delay+0x134>
 c0008f8:	e59f20c8 	ldr	r2, [pc, #200]	; c0009c8 <Delay+0x130>
 c0008fc:	e5832000 	str	r2, [r3]
		rWTCON=((MCLK/1000000-1)<<8)|(2<<3)|(1<<5); // 1M/64,Watch-dog enable,nRESET,interrupt disable //
 c000900:	e59f30b4 	ldr	r3, [pc, #180]	; c0009bc <Delay+0x124>
 c000904:	e59f20c4 	ldr	r2, [pc, #196]	; c0009d0 <Delay+0x138>
 c000908:	e5832000 	str	r2, [r3]
	}
	for(;time>0;time--)
 c00090c:	ea00000f 	b	c000950 <Delay+0xb8>
		for(i=0;i<delayLoopCount;i++);
 c000910:	e3a03000 	mov	r3, #0
 c000914:	e50b3010 	str	r3, [fp, #-16]
 c000918:	ea000002 	b	c000928 <Delay+0x90>
 c00091c:	e51b3010 	ldr	r3, [fp, #-16]
 c000920:	e2833001 	add	r3, r3, #1
 c000924:	e50b3010 	str	r3, [fp, #-16]
 c000928:	e59f3088 	ldr	r3, [pc, #136]	; c0009b8 <Delay+0x120>
 c00092c:	e5933000 	ldr	r3, [r3]
 c000930:	e51b2010 	ldr	r2, [fp, #-16]
 c000934:	e1520003 	cmp	r2, r3
 c000938:	bafffff7 	blt	c00091c <Delay+0x84>
		rWTCON=((MCLK/1000000-1)<<8)|(2<<3);	// 1M/64,Watch-dog,nRESET,interrupt disable//
		rWTDAT=0xffff;
		rWTCNT=0xffff;	 
		rWTCON=((MCLK/1000000-1)<<8)|(2<<3)|(1<<5); // 1M/64,Watch-dog enable,nRESET,interrupt disable //
	}
	for(;time>0;time--)
 c00093c:	e51b3018 	ldr	r3, [fp, #-24]	; 0xffffffe8
 c000940:	e2433001 	sub	r3, r3, #1
 c000944:	e50b3018 	str	r3, [fp, #-24]	; 0xffffffe8
 c000948:	ea000000 	b	c000950 <Delay+0xb8>
 c00094c:	e1a00000 	nop			; (mov r0, r0)
 c000950:	e51b3018 	ldr	r3, [fp, #-24]	; 0xffffffe8
 c000954:	e3530000 	cmp	r3, #0
 c000958:	caffffec 	bgt	c000910 <Delay+0x78>
		for(i=0;i<delayLoopCount;i++);
	if(adjust==1)
 c00095c:	e51b3014 	ldr	r3, [fp, #-20]	; 0xffffffec
 c000960:	e3530001 	cmp	r3, #1
 c000964:	1a000010 	bne	c0009ac <Delay+0x114>
	{
		rWTCON=((MCLK/1000000-1)<<8)|(2<<3);
 c000968:	e59f304c 	ldr	r3, [pc, #76]	; c0009bc <Delay+0x124>
 c00096c:	e59f204c 	ldr	r2, [pc, #76]	; c0009c0 <Delay+0x128>
 c000970:	e5832000 	str	r2, [r3]
		i=0xffff-rWTCNT;   //  1count/16us?????????//
 c000974:	e59f3050 	ldr	r3, [pc, #80]	; c0009cc <Delay+0x134>
 c000978:	e5933000 	ldr	r3, [r3]
 c00097c:	e2633cff 	rsb	r3, r3, #65280	; 0xff00
 c000980:	e28330ff 	add	r3, r3, #255	; 0xff
 c000984:	e50b3010 	str	r3, [fp, #-16]
		delayLoopCount=8000000/(i*64);	//400*100/(i*64/200)   //
 c000988:	e51b3010 	ldr	r3, [fp, #-16]
 c00098c:	e1a03303 	lsl	r3, r3, #6
 c000990:	e59f003c 	ldr	r0, [pc, #60]	; c0009d4 <Delay+0x13c>
 c000994:	e1a01003 	mov	r1, r3
 c000998:	eb002612 	bl	c00a1e8 <__aeabi_idiv>
 c00099c:	e1a03000 	mov	r3, r0
 c0009a0:	e1a02003 	mov	r2, r3
 c0009a4:	e59f300c 	ldr	r3, [pc, #12]	; c0009b8 <Delay+0x120>
 c0009a8:	e5832000 	str	r2, [r3]
	}
}
 c0009ac:	e24bd00c 	sub	sp, fp, #12
 c0009b0:	e89d6800 	ldm	sp, {fp, sp, lr}
 c0009b4:	e12fff1e 	bx	lr
 c0009b8:	0c00adf8 	.word	0x0c00adf8
 c0009bc:	01d30000 	.word	0x01d30000
 c0009c0:	00003f10 	.word	0x00003f10
 c0009c4:	01d30004 	.word	0x01d30004
 c0009c8:	0000ffff 	.word	0x0000ffff
 c0009cc:	01d30008 	.word	0x01d30008
 c0009d0:	00003f30 	.word	0x00003f30
 c0009d4:	007a1200 	.word	0x007a1200

0c0009d8 <DelayMs>:
{
	int i;
	
	for( i = 0 ; i < 1000*ms_time ; i++ )
		;
}
 c0009d8:	e12fff1e 	bx	lr

0c0009dc <DelayTime>:

void DelayTime(int num)
{
 c0009dc:	e1a0c00d 	mov	ip, sp
 c0009e0:	e92dd800 	push	{fp, ip, lr, pc}
 c0009e4:	e24cb004 	sub	fp, ip, #4
 c0009e8:	e24dd010 	sub	sp, sp, #16
 c0009ec:	e50b0018 	str	r0, [fp, #-24]	; 0xffffffe8
	int i;
	
	for( i = 0 ; i < num ; i++ )
 c0009f0:	e3a03000 	mov	r3, #0
 c0009f4:	e50b3010 	str	r3, [fp, #-16]
 c0009f8:	ea000002 	b	c000a08 <DelayTime+0x2c>
 c0009fc:	e51b3010 	ldr	r3, [fp, #-16]
 c000a00:	e2833001 	add	r3, r3, #1
 c000a04:	e50b3010 	str	r3, [fp, #-16]
 c000a08:	e51b2010 	ldr	r2, [fp, #-16]
 c000a0c:	e51b3018 	ldr	r3, [fp, #-24]	; 0xffffffe8
 c000a10:	e1520003 	cmp	r2, r3
 c000a14:	bafffff8 	blt	c0009fc <DelayTime+0x20>
		;
}
 c000a18:	e24bd00c 	sub	sp, fp, #12
 c000a1c:	e89d6800 	ldm	sp, {fp, sp, lr}
 c000a20:	e12fff1e 	bx	lr

0c000a24 <Port_Init>:

	// PORT A GROUP
	// BIT 	9	8	7	6	5	4	3	2	1	0
	// 		A24	A23	A22	A21	A20	A19	A18	A17	A16	A0
	//		0	1	1	1	1	1	1	1	1	1
	rPCONA = 0x1ff;	
 c000a24:	e59f309c 	ldr	r3, [pc, #156]	; c000ac8 <Port_Init+0xa4>
 c000a28:	e59f009c 	ldr	r0, [pc, #156]	; c000acc <Port_Init+0xa8>
	// PORT B GROUP
	// BIT 	10		9		8		7		6		5		4		3		2		1		0
	//		/CS5	/CS4	/CS3	/CS2	/CS1	GPB5	GPB4	/SRAS	/SCAS	SCLK	SCKE
	//		EXT		NIC		USB		IDE		SMC		NC		NC		Sdram	Sdram	Sdram	Sdram
	//      1, 		1,   	1,   	1,    	1,    	0,       0,     1,    	1,    	1,   	1	
	rPDATB = 0x7ff;				// P9-LED1 P10-LED2
 c000a2c:	e59fc09c 	ldr	ip, [pc, #156]	; c000ad0 <Port_Init+0xac>

	// PORT A GROUP
	// BIT 	9	8	7	6	5	4	3	2	1	0
	// 		A24	A23	A22	A21	A20	A19	A18	A17	A16	A0
	//		0	1	1	1	1	1	1	1	1	1
	rPCONA = 0x1ff;	
 c000a30:	e5830000 	str	r0, [r3]
	// PORT B GROUP
	// BIT 	10		9		8		7		6		5		4		3		2		1		0
	//		/CS5	/CS4	/CS3	/CS2	/CS1	GPB5	GPB4	/SRAS	/SCAS	SCLK	SCKE
	//		EXT		NIC		USB		IDE		SMC		NC		NC		Sdram	Sdram	Sdram	Sdram
	//      1, 		1,   	1,   	1,    	1,    	0,       0,     1,    	1,    	1,   	1	
	rPDATB = 0x7ff;				// P9-LED1 P10-LED2
 c000a34:	e583c00c 	str	ip, [r3, #12]
	rPCONB = 0x1cf;
 c000a38:	e59fc094 	ldr	ip, [pc, #148]	; c000ad4 <Port_Init+0xb0>
 c000a3c:	e583c008 	str	ip, [r3, #8]

	//  PC7		6		5		4		3		2		1		0
	//   I		I		I		I		I		I		I		I
	//   NC		NC		NC		NC		IISCLK	IISDI	IISDO	IISLRCK
	//   00		00		00		00		11		11		11		11
	rPDATC = 0xff00;
 c000a40:	e3a0ccff 	mov	ip, #65280	; 0xff00
 c000a44:	e583c014 	str	ip, [r3, #20]
	rPCONC = 0x0ff0ffff;	
 c000a48:	e59fc088 	ldr	ip, [pc, #136]	; c000ad8 <Port_Init+0xb4>
 c000a4c:	e583c010 	str	ip, [r3, #16]
	rPUPC  = 0x30ff;	//PULL UP RESISTOR should be enabled to I/O
 c000a50:	e59fc084 	ldr	ip, [pc, #132]	; c000adc <Port_Init+0xb8>
 c000a54:	e583c018 	str	ip, [r3, #24]
	// PORT D GROUP(I/O OR LCD)
	// BIT7		6		5		4		3		2		1		0
	//	VF		VM		VLINE	VCLK	VD3		VD2		VD1		VD0
	//	00		00		00		00		00		00		00		00
	rPDATD= 0xff;
	rPCOND= 0xaaaa;	
 c000a58:	e59fc080 	ldr	ip, [pc, #128]	; c000ae0 <Port_Init+0xbc>
	// PORT D GROUP
	// PORT D GROUP(I/O OR LCD)
	// BIT7		6		5		4		3		2		1		0
	//	VF		VM		VLINE	VCLK	VD3		VD2		VD1		VD0
	//	00		00		00		00		00		00		00		00
	rPDATD= 0xff;
 c000a5c:	e3a010ff 	mov	r1, #255	; 0xff
 c000a60:	e5831020 	str	r1, [r3, #32]
	rPCOND= 0xaaaa;	
	rPUPD = 0x0;
 c000a64:	e3a02000 	mov	r2, #0
	// PORT D GROUP(I/O OR LCD)
	// BIT7		6		5		4		3		2		1		0
	//	VF		VM		VLINE	VCLK	VD3		VD2		VD1		VD0
	//	00		00		00		00		00		00		00		00
	rPDATD= 0xff;
	rPCOND= 0xaaaa;	
 c000a68:	e583c01c 	str	ip, [r3, #28]
	// PORT E GROUP 
	// Bit	8		7		6		5		4		3		2		1		0
	//  	CODECLK	LED4	LED5	LED6	LED7	BEEP	RXD0	TXD0	LcdDisp
	//  	10		01		01		01		01		01		10		10		01
	rPDATE	= 0x1ff;
	rPCONE	= 0x25529;	
 c000a6c:	e280ca25 	add	ip, r0, #151552	; 0x25000
	// BIT7		6		5		4		3		2		1		0
	//	VF		VM		VLINE	VCLK	VD3		VD2		VD1		VD0
	//	00		00		00		00		00		00		00		00
	rPDATD= 0xff;
	rPCOND= 0xaaaa;	
	rPUPD = 0x0;
 c000a70:	e5832024 	str	r2, [r3, #36]	; 0x24
	
	// PORT E GROUP 
	// Bit	8		7		6		5		4		3		2		1		0
	//  	CODECLK	LED4	LED5	LED6	LED7	BEEP	RXD0	TXD0	LcdDisp
	//  	10		01		01		01		01		01		10		10		01
	rPDATE	= 0x1ff;
 c000a74:	e583002c 	str	r0, [r3, #44]	; 0x2c
	rPCONE	= 0x25529;	
 c000a78:	e28c0fca 	add	r0, ip, #808	; 0x328
 c000a7c:	e280c002 	add	ip, r0, #2
 c000a80:	e583c028 	str	ip, [r3, #40]	; 0x28
	rPUPE	= 0x6;
 c000a84:	e3a00006 	mov	r0, #6
	// PORT F GROUP
	// Bit8		7		6		5		 4		3		2		1		0
	// IISCLK	IISDI	IISDO	IISLRCK	Input	Input	Input	IICSDA	IICSCL
	// 100		100		100		100		00		00		00		10		10
	rPDATF = 0x0;
	rPCONF = 0x252a;
 c000a88:	e59fc054 	ldr	ip, [pc, #84]	; c000ae4 <Port_Init+0xc0>
	// Bit	8		7		6		5		4		3		2		1		0
	//  	CODECLK	LED4	LED5	LED6	LED7	BEEP	RXD0	TXD0	LcdDisp
	//  	10		01		01		01		01		01		10		10		01
	rPDATE	= 0x1ff;
	rPCONE	= 0x25529;	
	rPUPE	= 0x6;
 c000a8c:	e5830030 	str	r0, [r3, #48]	; 0x30
	// BIT7		6		5		4		3		2		1		0
	// 	INT7	INT6	INT5	INT4	INT3	INT2	INT1	INT0
	//	S3		S4		S5		S6		NIC		EXT		IDE		USB
	//	11      11      11      11      11      11      11      11
	rPDATG = 0xff;
	rPCONG = 0xffff;
 c000a90:	e2810cff 	add	r0, r1, #65280	; 0xff00
	
	// PORT F GROUP
	// Bit8		7		6		5		 4		3		2		1		0
	// IISCLK	IISDI	IISDO	IISLRCK	Input	Input	Input	IICSDA	IICSCL
	// 100		100		100		100		00		00		00		10		10
	rPDATF = 0x0;
 c000a94:	e5832038 	str	r2, [r3, #56]	; 0x38
	rPCONF = 0x252a;
 c000a98:	e583c034 	str	ip, [r3, #52]	; 0x34
	rPUPF  = 0x0;
 c000a9c:	e583203c 	str	r2, [r3, #60]	; 0x3c
	// PORT G GROUP
	// BIT7		6		5		4		3		2		1		0
	// 	INT7	INT6	INT5	INT4	INT3	INT2	INT1	INT0
	//	S3		S4		S5		S6		NIC		EXT		IDE		USB
	//	11      11      11      11      11      11      11      11
	rPDATG = 0xff;
 c000aa0:	e5831044 	str	r1, [r3, #68]	; 0x44
	rPCONG = 0xffff;
 c000aa4:	e5830040 	str	r0, [r3, #64]	; 0x40
	rPUPG  = 0x0;		//should be enabled  
	rSPUCR = 0x7;  		//D15-D0 pull-up disable

	/* Non Cache area */
	rNCACHBE0=((Non_Cache_End>>12)<<16)|(Non_Cache_Start>>12); 
 c000aa8:	e59f0038 	ldr	r0, [pc, #56]	; c000ae8 <Port_Init+0xc4>
	//	S3		S4		S5		S6		NIC		EXT		IDE		USB
	//	11      11      11      11      11      11      11      11
	rPDATG = 0xff;
	rPCONG = 0xffff;
	rPUPG  = 0x0;		//should be enabled  
	rSPUCR = 0x7;  		//D15-D0 pull-up disable
 c000aac:	e3a0c007 	mov	ip, #7

	/* Non Cache area */
	rNCACHBE0=((Non_Cache_End>>12)<<16)|(Non_Cache_Start>>12); 
 c000ab0:	e3a01507 	mov	r1, #29360128	; 0x1c00000
	// 	INT7	INT6	INT5	INT4	INT3	INT2	INT1	INT0
	//	S3		S4		S5		S6		NIC		EXT		IDE		USB
	//	11      11      11      11      11      11      11      11
	rPDATG = 0xff;
	rPCONG = 0xffff;
	rPUPG  = 0x0;		//should be enabled  
 c000ab4:	e5832048 	str	r2, [r3, #72]	; 0x48
	rSPUCR = 0x7;  		//D15-D0 pull-up disable
 c000ab8:	e583c04c 	str	ip, [r3, #76]	; 0x4c

	/* Non Cache area */
	rNCACHBE0=((Non_Cache_End>>12)<<16)|(Non_Cache_Start>>12); 
 c000abc:	e5810004 	str	r0, [r1, #4]
	/* Low level default */
	rEXTINT=0x0;
 c000ac0:	e5832050 	str	r2, [r3, #80]	; 0x50
}
 c000ac4:	e12fff1e 	bx	lr
 c000ac8:	01d20000 	.word	0x01d20000
 c000acc:	000001ff 	.word	0x000001ff
 c000ad0:	000007ff 	.word	0x000007ff
 c000ad4:	000001cf 	.word	0x000001cf
 c000ad8:	0ff0ffff 	.word	0x0ff0ffff
 c000adc:	000030ff 	.word	0x000030ff
 c000ae0:	0000aaaa 	.word	0x0000aaaa
 c000ae4:	0000252a 	.word	0x0000252a
 c000ae8:	c0002000 	.word	0xc0002000

0c000aec <Uart_Init>:

//------------------------UART------------------------------//
void Uart_Init(int mclk,int baud)
{
 c000aec:	e1a0c00d 	mov	ip, sp
    int i;
    if(mclk==0)
 c000af0:	e3500000 	cmp	r0, #0
	rEXTINT=0x0;
}

//------------------------UART------------------------------//
void Uart_Init(int mclk,int baud)
{
 c000af4:	e92ddff8 	push	{r3, r4, r5, r6, r7, r8, r9, sl, fp, ip, lr, pc}
 c000af8:	e24cb004 	sub	fp, ip, #4
 c000afc:	e1a08001 	mov	r8, r1
    int i;
    if(mclk==0)
 c000b00:	1a00001f 	bne	c000b84 <Uart_Init+0x98>
 c000b04:	e59fa094 	ldr	sl, [pc, #148]	; c000ba0 <Uart_Init+0xb4>
 c000b08:	e3a09000 	mov	r9, #0
		mclk=MCLK;

    rUFCON0=0x0;     //FIFO disable
    rUFCON1=0x0;
 c000b0c:	e59f4090 	ldr	r4, [pc, #144]	; c000ba4 <Uart_Init+0xb8>
    rUMCON0=0x0;
    rUMCON1=0x0;
//UART0
    rULCON0=0x3;     //Normal,No parity,1 stop,8 bit
    rUCON0=0x245;    //rx=edge,tx=level,disable timeout int.,enable rx error int.,normal,interrupt or polling
 c000b10:	e59f7090 	ldr	r7, [pc, #144]	; c000ba8 <Uart_Init+0xbc>
{
    int i;
    if(mclk==0)
		mclk=MCLK;

    rUFCON0=0x0;     //FIFO disable
 c000b14:	e3a03000 	mov	r3, #0
 c000b18:	e3a0561d 	mov	r5, #30408704	; 0x1d00000
    rUFCON1=0x0;
    rUMCON0=0x0;
    rUMCON1=0x0;
//UART0
    rULCON0=0x3;     //Normal,No parity,1 stop,8 bit
 c000b1c:	e3a06003 	mov	r6, #3
{
    int i;
    if(mclk==0)
		mclk=MCLK;

    rUFCON0=0x0;     //FIFO disable
 c000b20:	e5853008 	str	r3, [r5, #8]
    rUMCON0=0x0;
    rUMCON1=0x0;
//UART0
    rULCON0=0x3;     //Normal,No parity,1 stop,8 bit
    rUCON0=0x245;    //rx=edge,tx=level,disable timeout int.,enable rx error int.,normal,interrupt or polling
    rUBRDIV0=( (int)(mclk/16./baud + 0.5) -1 );
 c000b24:	e1a00008 	mov	r0, r8
    int i;
    if(mclk==0)
		mclk=MCLK;

    rUFCON0=0x0;     //FIFO disable
    rUFCON1=0x0;
 c000b28:	e5843008 	str	r3, [r4, #8]
    rUMCON0=0x0;
 c000b2c:	e585300c 	str	r3, [r5, #12]
    rUMCON1=0x0;
 c000b30:	e584300c 	str	r3, [r4, #12]
//UART0
    rULCON0=0x3;     //Normal,No parity,1 stop,8 bit
 c000b34:	e5856000 	str	r6, [r5]
    rUCON0=0x245;    //rx=edge,tx=level,disable timeout int.,enable rx error int.,normal,interrupt or polling
 c000b38:	e5857004 	str	r7, [r5, #4]
    rUBRDIV0=( (int)(mclk/16./baud + 0.5) -1 );
 c000b3c:	eb0026cc 	bl	c00a674 <__aeabi_i2d>
 c000b40:	e1a02000 	mov	r2, r0
 c000b44:	e1a03001 	mov	r3, r1
 c000b48:	e1a00009 	mov	r0, r9
 c000b4c:	e1a0100a 	mov	r1, sl
 c000b50:	eb0027a2 	bl	c00a9e0 <__aeabi_ddiv>
 c000b54:	e3a02000 	mov	r2, #0
 c000b58:	e59f304c 	ldr	r3, [pc, #76]	; c000bac <Uart_Init+0xc0>
 c000b5c:	eb0025f7 	bl	c00a340 <__adddf3>
 c000b60:	eb002872 	bl	c00ad30 <__aeabi_d2iz>
 c000b64:	e2400001 	sub	r0, r0, #1
 c000b68:	e5850028 	str	r0, [r5, #40]	; 0x28
//UART1
    rULCON1=0x3;
 c000b6c:	e5846000 	str	r6, [r4]
    rUCON1=0x245;
 c000b70:	e5847004 	str	r7, [r4, #4]
    rUBRDIV1=( (int)(mclk/16./baud + 0.5) -1 );
 c000b74:	e5840028 	str	r0, [r4, #40]	; 0x28

    for(i=0;i<100;i++);
}
 c000b78:	e24bd02c 	sub	sp, fp, #44	; 0x2c
 c000b7c:	e89d6ff8 	ldm	sp, {r3, r4, r5, r6, r7, r8, r9, sl, fp, sp, lr}
 c000b80:	e12fff1e 	bx	lr

//------------------------UART------------------------------//
void Uart_Init(int mclk,int baud)
{
    int i;
    if(mclk==0)
 c000b84:	eb0026ba 	bl	c00a674 <__aeabi_i2d>
 c000b88:	e3a02000 	mov	r2, #0
 c000b8c:	e59f301c 	ldr	r3, [pc, #28]	; c000bb0 <Uart_Init+0xc4>
 c000b90:	eb0026ee 	bl	c00a750 <__aeabi_dmul>
 c000b94:	e1a09000 	mov	r9, r0
 c000b98:	e1a0a001 	mov	sl, r1
 c000b9c:	eaffffda 	b	c000b0c <Uart_Init+0x20>
 c000ba0:	414e8480 	.word	0x414e8480
 c000ba4:	01d04000 	.word	0x01d04000
 c000ba8:	00000245 	.word	0x00000245
 c000bac:	3fe00000 	.word	0x3fe00000
 c000bb0:	3fb00000 	.word	0x3fb00000

0c000bb4 <Timer_Start>:
}

//------------------------ Timer ------------------------------//
void Timer_Start(int divider)  //0:16us,1:32us 2:64us 3:128us
{
    rWTCON=((MCLK/1000000-1)<<8)|(divider<<3);
 c000bb4:	e1a0c180 	lsl	ip, r0, #3
 c000bb8:	e59f301c 	ldr	r3, [pc, #28]	; c000bdc <Timer_Start+0x28>
 c000bbc:	e38c0c3f 	orr	r0, ip, #16128	; 0x3f00
    rWTDAT=0xffff;
 c000bc0:	e59f2018 	ldr	r2, [pc, #24]	; c000be0 <Timer_Start+0x2c>
    rWTCNT=0xffff;   

    // 1/16/(65+1),nRESET & interrupt  disable
    rWTCON=((MCLK/1000000-1)<<8)|(divider<<3)|(1<<5);	
 c000bc4:	e3801020 	orr	r1, r0, #32
}

//------------------------ Timer ------------------------------//
void Timer_Start(int divider)  //0:16us,1:32us 2:64us 3:128us
{
    rWTCON=((MCLK/1000000-1)<<8)|(divider<<3);
 c000bc8:	e5830000 	str	r0, [r3]
    rWTDAT=0xffff;
 c000bcc:	e5832004 	str	r2, [r3, #4]
    rWTCNT=0xffff;   
 c000bd0:	e5832008 	str	r2, [r3, #8]

    // 1/16/(65+1),nRESET & interrupt  disable
    rWTCON=((MCLK/1000000-1)<<8)|(divider<<3)|(1<<5);	
 c000bd4:	e5831000 	str	r1, [r3]
}
 c000bd8:	e12fff1e 	bx	lr
 c000bdc:	01d30000 	.word	0x01d30000
 c000be0:	0000ffff 	.word	0x0000ffff

0c000be4 <Timer_Stop>:


int Timer_Stop(void)
{
    rWTCON=((MCLK/1000000-1)<<8);
 c000be4:	e59f3014 	ldr	r3, [pc, #20]	; c000c00 <Timer_Stop+0x1c>
 c000be8:	e3a02c3f 	mov	r2, #16128	; 0x3f00
 c000bec:	e5832000 	str	r2, [r3]
    return (0xffff-rWTCNT);
 c000bf0:	e5931008 	ldr	r1, [r3, #8]
 c000bf4:	e2610cff 	rsb	r0, r1, #65280	; 0xff00
}
 c000bf8:	e28000ff 	add	r0, r0, #255	; 0xff
 c000bfc:	e12fff1e 	bx	lr
 c000c00:	01d30000 	.word	0x01d30000

0c000c04 <Beep>:

void Beep(int BeepStatus)
{
	if (BeepStatus==0)
 c000c04:	e3500000 	cmp	r0, #0
		rPDATE=rPDATE|0x8;
 c000c08:	059f3020 	ldreq	r3, [pc, #32]	; c000c30 <Beep+0x2c>
	else
		rPDATE=rPDATE&0x1f7;
 c000c0c:	159f201c 	ldrne	r2, [pc, #28]	; c000c30 <Beep+0x2c>
}

void Beep(int BeepStatus)
{
	if (BeepStatus==0)
		rPDATE=rPDATE|0x8;
 c000c10:	0593202c 	ldreq	r2, [r3, #44]	; 0x2c
	else
		rPDATE=rPDATE&0x1f7;
 c000c14:	159f3018 	ldrne	r3, [pc, #24]	; c000c34 <Beep+0x30>
 c000c18:	1592102c 	ldrne	r1, [r2, #44]	; 0x2c
}

void Beep(int BeepStatus)
{
	if (BeepStatus==0)
		rPDATE=rPDATE|0x8;
 c000c1c:	03822008 	orreq	r2, r2, #8
	else
		rPDATE=rPDATE&0x1f7;
 c000c20:	10013003 	andne	r3, r1, r3
}

void Beep(int BeepStatus)
{
	if (BeepStatus==0)
		rPDATE=rPDATE|0x8;
 c000c24:	0583202c 	streq	r2, [r3, #44]	; 0x2c
	else
		rPDATE=rPDATE&0x1f7;
 c000c28:	1582302c 	strne	r3, [r2, #44]	; 0x2c
 c000c2c:	e12fff1e 	bx	lr
 c000c30:	01d20000 	.word	0x01d20000
 c000c34:	000001f7 	.word	0x000001f7

0c000c38 <ChangePllValue>:
}

//------------------------ PLL ------------------------------//
void ChangePllValue(int mdiv,int pdiv,int sdiv)
{
    rPLLCON=(mdiv<<12)|(pdiv<<4)|sdiv;
 c000c38:	e1821201 	orr	r1, r2, r1, lsl #4
 c000c3c:	e1812600 	orr	r2, r1, r0, lsl #12
 c000c40:	e3a03776 	mov	r3, #30932992	; 0x1d80000
 c000c44:	e5832000 	str	r2, [r3]
}
 c000c48:	e12fff1e 	bx	lr

0c000c4c <malloc>:
//------------------------ General Library ------------------------------//
void * malloc(unsigned nbyte) 
/*Very simple; Use malloc() & free() like Stack*/
//void *mallocPt=Image$$RW$$Limit;
{
    void *returnPt=mallocPt;
 c000c4c:	e59f102c 	ldr	r1, [pc, #44]	; c000c80 <malloc+0x34>

    mallocPt= (int *)mallocPt+nbyte/4+((nbyte%4)>0); //to align 4byte
 c000c50:	e2103003 	ands	r3, r0, #3
//------------------------ General Library ------------------------------//
void * malloc(unsigned nbyte) 
/*Very simple; Use malloc() & free() like Stack*/
//void *mallocPt=Image$$RW$$Limit;
{
    void *returnPt=mallocPt;
 c000c54:	e5912000 	ldr	r2, [r1]

    mallocPt= (int *)mallocPt+nbyte/4+((nbyte%4)>0); //to align 4byte
 c000c58:	13a03001 	movne	r3, #1
 c000c5c:	e083c120 	add	ip, r3, r0, lsr #2

    if( (int)mallocPt > HEAPEND )
 c000c60:	e59f001c 	ldr	r0, [pc, #28]	; c000c84 <malloc+0x38>
/*Very simple; Use malloc() & free() like Stack*/
//void *mallocPt=Image$$RW$$Limit;
{
    void *returnPt=mallocPt;

    mallocPt= (int *)mallocPt+nbyte/4+((nbyte%4)>0); //to align 4byte
 c000c64:	e082310c 	add	r3, r2, ip, lsl #2

    if( (int)mallocPt > HEAPEND )
 c000c68:	e1530000 	cmp	r3, r0
/*Very simple; Use malloc() & free() like Stack*/
//void *mallocPt=Image$$RW$$Limit;
{
    void *returnPt=mallocPt;

    mallocPt= (int *)mallocPt+nbyte/4+((nbyte%4)>0); //to align 4byte
 c000c6c:	e5813000 	str	r3, [r1]

    if( (int)mallocPt > HEAPEND )
    {
		mallocPt=returnPt;
 c000c70:	c5812000 	strgt	r2, [r1]
		return NULL;
 c000c74:	c3a02000 	movgt	r2, #0
    }
    return returnPt;
}
 c000c78:	e1a00002 	mov	r0, r2
 c000c7c:	e12fff1e 	bx	lr
 c000c80:	0c00adfc 	.word	0x0c00adfc
 c000c84:	0c7ff000 	.word	0x0c7ff000

0c000c88 <free>:

void free(void *pt)
{
    mallocPt=pt;
 c000c88:	e59f3004 	ldr	r3, [pc, #4]	; c000c94 <free+0xc>
 c000c8c:	e5830000 	str	r0, [r3]
}
 c000c90:	e12fff1e 	bx	lr
 c000c94:	0c00adfc 	.word	0x0c00adfc

0c000c98 <Cache_Flush>:

void Cache_Flush(void)
{
    int i,saveSyscfg;
    
    saveSyscfg=rSYSCFG;
 c000c98:	e3a02507 	mov	r2, #29360128	; 0x1c00000

    rSYSCFG=SYSCFG_0KB; 		      
 c000c9c:	e3a01008 	mov	r1, #8
 c000ca0:	e59f3048 	ldr	r3, [pc, #72]	; c000cf0 <Cache_Flush+0x58>
    for(i=0x10004000;i<0x10004800;i+=16)    
 c000ca4:	e59fc048 	ldr	ip, [pc, #72]	; c000cf4 <Cache_Flush+0x5c>
{
    mallocPt=pt;
}

void Cache_Flush(void)
{
 c000ca8:	e52d4004 	push	{r4}		; (str r4, [sp, #-4]!)
    int i,saveSyscfg;
    
    saveSyscfg=rSYSCFG;
 c000cac:	e5924000 	ldr	r4, [r2]

    rSYSCFG=SYSCFG_0KB; 		      
 c000cb0:	e5821000 	str	r1, [r2]
    for(i=0x10004000;i<0x10004800;i+=16)    
    {					   
		*((int *)i)=0x0;		   
 c000cb4:	e3a02000 	mov	r2, #0
 c000cb8:	e1a01003 	mov	r1, r3
 c000cbc:	e5032010 	str	r2, [r3, #-16]
 c000cc0:	e4812010 	str	r2, [r1], #16
 c000cc4:	e2830030 	add	r0, r3, #48	; 0x30
 c000cc8:	e2833040 	add	r3, r3, #64	; 0x40
 c000ccc:	e2811010 	add	r1, r1, #16
    int i,saveSyscfg;
    
    saveSyscfg=rSYSCFG;

    rSYSCFG=SYSCFG_0KB; 		      
    for(i=0x10004000;i<0x10004800;i+=16)    
 c000cd0:	e153000c 	cmp	r3, ip
    {					   
		*((int *)i)=0x0;		   
 c000cd4:	e5012010 	str	r2, [r1, #-16]
 c000cd8:	e5002010 	str	r2, [r0, #-16]
    int i,saveSyscfg;
    
    saveSyscfg=rSYSCFG;

    rSYSCFG=SYSCFG_0KB; 		      
    for(i=0x10004000;i<0x10004800;i+=16)    
 c000cdc:	1afffff5 	bne	c000cb8 <Cache_Flush+0x20>
    {					   
		*((int *)i)=0x0;		   
    }
    rSYSCFG=saveSyscfg; 			    
 c000ce0:	e3a03507 	mov	r3, #29360128	; 0x1c00000
 c000ce4:	e5834000 	str	r4, [r3]
}
 c000ce8:	e49d4004 	pop	{r4}		; (ldr r4, [sp], #4)
 c000cec:	e12fff1e 	bx	lr
 c000cf0:	10004010 	.word	0x10004010
 c000cf4:	10004810 	.word	0x10004810

0c000cf8 <sys_init>:

void sys_init()// Interrupt, Port and UART
{
 c000cf8:	e1a0c00d 	mov	ip, sp
	/* enable interrupt */
	rINTMOD = 0x0 | (BIT_TIMER2); 	// TIMER2 UNICA INTERRUPCION FIQ
	rINTCON = 0x0;
	rI_ISPC = 0xffffffff;			// clear all IRQ interrupt pend
	rF_ISPC = 0xffffffff;			// clear all FIQ interrupt pend
	rEXTINTPND = 0xf;				// clear EXTINTPND reg
 c000cfc:	e59f0048 	ldr	r0, [pc, #72]	; c000d4c <sys_init+0x54>
    }
    rSYSCFG=saveSyscfg; 			    
}

void sys_init()// Interrupt, Port and UART
{
 c000d00:	e92dd818 	push	{r3, r4, fp, ip, lr, pc}
	/* enable interrupt */
	rINTMOD = 0x0 | (BIT_TIMER2); 	// TIMER2 UNICA INTERRUPCION FIQ
	rINTCON = 0x0;
	rI_ISPC = 0xffffffff;			// clear all IRQ interrupt pend
 c000d04:	e3e01000 	mvn	r1, #0
}

void sys_init()// Interrupt, Port and UART
{
	/* enable interrupt */
	rINTMOD = 0x0 | (BIT_TIMER2); 	// TIMER2 UNICA INTERRUPCION FIQ
 c000d08:	e3a0461e 	mov	r4, #31457280	; 0x1e00000
    }
    rSYSCFG=saveSyscfg; 			    
}

void sys_init()// Interrupt, Port and UART
{
 c000d0c:	e24cb004 	sub	fp, ip, #4
	/* enable interrupt */
	rINTMOD = 0x0 | (BIT_TIMER2); 	// TIMER2 UNICA INTERRUPCION FIQ
 c000d10:	e3a0eb02 	mov	lr, #2048	; 0x800
	rINTCON = 0x0;
 c000d14:	e3a0c000 	mov	ip, #0
	rI_ISPC = 0xffffffff;			// clear all IRQ interrupt pend
	rF_ISPC = 0xffffffff;			// clear all FIQ interrupt pend
	rEXTINTPND = 0xf;				// clear EXTINTPND reg
 c000d18:	e3a0200f 	mov	r2, #15
}

void sys_init()// Interrupt, Port and UART
{
	/* enable interrupt */
	rINTMOD = 0x0 | (BIT_TIMER2); 	// TIMER2 UNICA INTERRUPCION FIQ
 c000d1c:	e584e008 	str	lr, [r4, #8]
	rINTCON = 0x0;
 c000d20:	e584c000 	str	ip, [r4]
	rI_ISPC = 0xffffffff;			// clear all IRQ interrupt pend
 c000d24:	e5841024 	str	r1, [r4, #36]	; 0x24
	rF_ISPC = 0xffffffff;			// clear all FIQ interrupt pend
 c000d28:	e584103c 	str	r1, [r4, #60]	; 0x3c
	rEXTINTPND = 0xf;				// clear EXTINTPND reg
 c000d2c:	e5802054 	str	r2, [r0, #84]	; 0x54
	Port_Init();					// Initial 44B0X's I/O port
 c000d30:	ebffff3b 	bl	c000a24 <Port_Init>
	Delay(0);						// delay time
 c000d34:	ebfffe86 	bl	c000754 <Delay.clone.0>
	rINTMSK = ~(BIT_GLOBAL);  		// enable interrupt mask vector
 c000d38:	e3e03301 	mvn	r3, #67108864	; 0x4000000
 c000d3c:	e584300c 	str	r3, [r4, #12]
}
 c000d40:	e24bd014 	sub	sp, fp, #20
 c000d44:	e89d6818 	ldm	sp, {r3, r4, fp, sp, lr}
 c000d48:	e12fff1e 	bx	lr
 c000d4c:	01d20000 	.word	0x01d20000

0c000d50 <D8Led_init>:
/*--- código de las funciones ---*/
void D8Led_init()
{
	/* Estado inicial del display con todos los segmentos iluminados
	   (buscar en los ficheros de cabecera la direccion implicada) */
	LED8ADDR = (unsigned char) cero;
 c000d50:	e3a02012 	mov	r2, #18
 c000d54:	e3a03785 	mov	r3, #34865152	; 0x2140000
 c000d58:	e5c32000 	strb	r2, [r3]
}
 c000d5c:	e12fff1e 	bx	lr

0c000d60 <D8Led_symbol>:

void D8Led_symbol(int value)
{
	/* muestra el Symbol[value] en el display (analogo al caso anterior) */
	if ((value >= 0) && (value < size_8led)) {
 c000d60:	e3500010 	cmp	r0, #16
		LED8ADDR = (unsigned char) Symbol[value];
 c000d64:	959f300c 	ldrls	r3, [pc, #12]	; c000d78 <D8Led_symbol+0x18>
 c000d68:	97d32100 	ldrbls	r2, [r3, r0, lsl #2]
 c000d6c:	93a03785 	movls	r3, #34865152	; 0x2140000
 c000d70:	95c32000 	strbls	r2, [r3]
 c000d74:	e12fff1e 	bx	lr
 c000d78:	0c00c4d4 	.word	0x0c00c4d4

0c000d7c <BitmapView>:
* ret:		none
* modify:
* comment:		
*********************************************************************************************/
void BitmapView (INT16U x, INT16U y, STRU_BITMAP Stru_Bitmap)
{
 c000d7c:	e24dd008 	sub	sp, sp, #8
 c000d80:	e92d07f0 	push	{r4, r5, r6, r7, r8, r9, sl}
 c000d84:	e24dd024 	sub	sp, sp, #36	; 0x24
 c000d88:	e28dc040 	add	ip, sp, #64	; 0x40
 c000d8c:	e88c000c 	stm	ip, {r2, r3}
	INT32U i, j;
	INT8U ucColor;
	
	for (i =  0; i < Stru_Bitmap.usHeight; i++)
 c000d90:	e1dd24b4 	ldrh	r2, [sp, #68]	; 0x44
 c000d94:	e1dd34b2 	ldrh	r3, [sp, #66]	; 0x42
 c000d98:	e3520000 	cmp	r2, #0
 c000d9c:	e58d201c 	str	r2, [sp, #28]
* ret:		none
* modify:
* comment:		
*********************************************************************************************/
void BitmapView (INT16U x, INT16U y, STRU_BITMAP Stru_Bitmap)
{
 c000da0:	e58d0004 	str	r0, [sp, #4]
	INT32U i, j;
	INT8U ucColor;
	
	for (i =  0; i < Stru_Bitmap.usHeight; i++)
 c000da4:	e58d3014 	str	r3, [sp, #20]
 c000da8:	0a0000a0 	beq	c001030 <BitmapView+0x2b4>
 c000dac:	e59d504c 	ldr	r5, [sp, #76]	; 0x4c
 c000db0:	e0817101 	add	r7, r1, r1, lsl #2
 c000db4:	e3a08000 	mov	r8, #0
	{
		for (j = 0; j <Stru_Bitmap.usWidth; j++)
		{
			if ((ucColor = *(INT8U*)(Stru_Bitmap.pucStart + i * Stru_Bitmap.usWidth + j)) != (TRANSPARENCY))
			{
				LCD_PutPixel( (x + j), (y + i), ucColor);
 c000db8:	e1e01000 	mvn	r1, r0
void BitmapView (INT16U x, INT16U y, STRU_BITMAP Stru_Bitmap)
{
	INT32U i, j;
	INT8U ucColor;
	
	for (i =  0; i < Stru_Bitmap.usHeight; i++)
 c000dbc:	e1a04307 	lsl	r4, r7, #6
 c000dc0:	e58d500c 	str	r5, [sp, #12]
 c000dc4:	e58d8008 	str	r8, [sp, #8]
	{
		for (j = 0; j <Stru_Bitmap.usWidth; j++)
		{
			if ((ucColor = *(INT8U*)(Stru_Bitmap.pucStart + i * Stru_Bitmap.usWidth + j)) != (TRANSPARENCY))
			{
				LCD_PutPixel( (x + j), (y + i), ucColor);
 c000dc8:	e58d1018 	str	r1, [sp, #24]
void BitmapView (INT16U x, INT16U y, STRU_BITMAP Stru_Bitmap)
{
	INT32U i, j;
	INT8U ucColor;
	
	for (i =  0; i < Stru_Bitmap.usHeight; i++)
 c000dcc:	e58d4010 	str	r4, [sp, #16]
*			Stru_Bitmap -- bitmap struct
* ret:		none
* modify:
* comment:		
*********************************************************************************************/
void BitmapView (INT16U x, INT16U y, STRU_BITMAP Stru_Bitmap)
 c000dd0:	e0837000 	add	r7, r3, r0
	{
		for (j = 0; j <Stru_Bitmap.usWidth; j++)
		{
			if ((ucColor = *(INT8U*)(Stru_Bitmap.pucStart + i * Stru_Bitmap.usWidth + j)) != (TRANSPARENCY))
			{
				LCD_PutPixel( (x + j), (y + i), ucColor);
 c000dd4:	e3a0420f 	mov	r4, #-268435456	; 0xf0000000
	INT32U i, j;
	INT8U ucColor;
	
	for (i =  0; i < Stru_Bitmap.usHeight; i++)
	{
		for (j = 0; j <Stru_Bitmap.usWidth; j++)
 c000dd8:	e59d8014 	ldr	r8, [sp, #20]
 c000ddc:	e3580000 	cmp	r8, #0
 c000de0:	0a000085 	beq	c000ffc <BitmapView+0x280>
		{
			if ((ucColor = *(INT8U*)(Stru_Bitmap.pucStart + i * Stru_Bitmap.usWidth + j)) != (TRANSPARENCY))
			{
				LCD_PutPixel( (x + j), (y + i), ucColor);
 c000de4:	e28d100c 	add	r1, sp, #12
 c000de8:	e8910022 	ldm	r1, {r1, r5}
 c000dec:	e1a080a5 	lsr	r8, r5, #1
 c000df0:	e59d5004 	ldr	r5, [sp, #4]
	
	for (i =  0; i < Stru_Bitmap.usHeight; i++)
	{
		for (j = 0; j <Stru_Bitmap.usWidth; j++)
		{
			if ((ucColor = *(INT8U*)(Stru_Bitmap.pucStart + i * Stru_Bitmap.usWidth + j)) != (TRANSPARENCY))
 c000df4:	e4d13001 	ldrb	r3, [r1], #1
 c000df8:	e1e00005 	mvn	r0, r5
			{
				LCD_PutPixel( (x + j), (y + i), ucColor);
 c000dfc:	e28826c3 	add	r2, r8, #204472320	; 0xc300000
 c000e00:	e080c007 	add	ip, r0, r7
	
	for (i =  0; i < Stru_Bitmap.usHeight; i++)
	{
		for (j = 0; j <Stru_Bitmap.usWidth; j++)
		{
			if ((ucColor = *(INT8U*)(Stru_Bitmap.pucStart + i * Stru_Bitmap.usWidth + j)) != (TRANSPARENCY))
 c000e04:	e35300ff 	cmp	r3, #255	; 0xff
			{
				LCD_PutPixel( (x + j), (y + i), ucColor);
 c000e08:	e2822c96 	add	r2, r2, #38400	; 0x9600
 c000e0c:	e20c0003 	and	r0, ip, #3
 c000e10:	059d5018 	ldreq	r5, [sp, #24]
	
	for (i =  0; i < Stru_Bitmap.usHeight; i++)
	{
		for (j = 0; j <Stru_Bitmap.usWidth; j++)
		{
			if ((ucColor = *(INT8U*)(Stru_Bitmap.pucStart + i * Stru_Bitmap.usWidth + j)) != (TRANSPARENCY))
 c000e14:	0a00000a 	beq	c000e44 <BitmapView+0xc8>
			{
				LCD_PutPixel( (x + j), (y + i), ucColor);
 c000e18:	e1a0c1a5 	lsr	ip, r5, #3
 c000e1c:	e792610c 	ldr	r6, [r2, ip, lsl #2]
 c000e20:	e2055007 	and	r5, r5, #7
 c000e24:	e1a08105 	lsl	r8, r5, #2
 c000e28:	e1c65834 	bic	r5, r6, r4, lsr r8
 c000e2c:	e59d8018 	ldr	r8, [sp, #24]
 c000e30:	e2086007 	and	r6, r8, #7
 c000e34:	e1a06106 	lsl	r6, r6, #2
 c000e38:	e1853613 	orr	r3, r5, r3, lsl r6
 c000e3c:	e782310c 	str	r3, [r2, ip, lsl #2]
 c000e40:	e1a05008 	mov	r5, r8
 c000e44:	e59d3004 	ldr	r3, [sp, #4]
 c000e48:	e2833001 	add	r3, r3, #1
	INT32U i, j;
	INT8U ucColor;
	
	for (i =  0; i < Stru_Bitmap.usHeight; i++)
	{
		for (j = 0; j <Stru_Bitmap.usWidth; j++)
 c000e4c:	e1530007 	cmp	r3, r7
		{
			if ((ucColor = *(INT8U*)(Stru_Bitmap.pucStart + i * Stru_Bitmap.usWidth + j)) != (TRANSPARENCY))
			{
				LCD_PutPixel( (x + j), (y + i), ucColor);
 c000e50:	e245c001 	sub	ip, r5, #1
	INT32U i, j;
	INT8U ucColor;
	
	for (i =  0; i < Stru_Bitmap.usHeight; i++)
	{
		for (j = 0; j <Stru_Bitmap.usWidth; j++)
 c000e54:	0a000068 	beq	c000ffc <BitmapView+0x280>
 c000e58:	e3500000 	cmp	r0, #0
 c000e5c:	0a00002f 	beq	c000f20 <BitmapView+0x1a4>
 c000e60:	e3500001 	cmp	r0, #1
 c000e64:	0a00001d 	beq	c000ee0 <BitmapView+0x164>
 c000e68:	e3500002 	cmp	r0, #2
 c000e6c:	0a00000d 	beq	c000ea8 <BitmapView+0x12c>
		{
			if ((ucColor = *(INT8U*)(Stru_Bitmap.pucStart + i * Stru_Bitmap.usWidth + j)) != (TRANSPARENCY))
 c000e70:	e4d10001 	ldrb	r0, [r1], #1
 c000e74:	e35000ff 	cmp	r0, #255	; 0xff
 c000e78:	0a000008 	beq	c000ea0 <BitmapView+0x124>
			{
				LCD_PutPixel( (x + j), (y + i), ucColor);
 c000e7c:	e1a051a3 	lsr	r5, r3, #3
 c000e80:	e7928105 	ldr	r8, [r2, r5, lsl #2]
 c000e84:	e2036007 	and	r6, r3, #7
 c000e88:	e1a06106 	lsl	r6, r6, #2
 c000e8c:	e1c86634 	bic	r6, r8, r4, lsr r6
 c000e90:	e20c8007 	and	r8, ip, #7
 c000e94:	e1a08108 	lsl	r8, r8, #2
 c000e98:	e1860810 	orr	r0, r6, r0, lsl r8
 c000e9c:	e7820105 	str	r0, [r2, r5, lsl #2]
 c000ea0:	e2833001 	add	r3, r3, #1
 c000ea4:	e24cc001 	sub	ip, ip, #1
	
	for (i =  0; i < Stru_Bitmap.usHeight; i++)
	{
		for (j = 0; j <Stru_Bitmap.usWidth; j++)
		{
			if ((ucColor = *(INT8U*)(Stru_Bitmap.pucStart + i * Stru_Bitmap.usWidth + j)) != (TRANSPARENCY))
 c000ea8:	e4d10001 	ldrb	r0, [r1], #1
 c000eac:	e35000ff 	cmp	r0, #255	; 0xff
 c000eb0:	0a000008 	beq	c000ed8 <BitmapView+0x15c>
			{
				LCD_PutPixel( (x + j), (y + i), ucColor);
 c000eb4:	e1a051a3 	lsr	r5, r3, #3
 c000eb8:	e7928105 	ldr	r8, [r2, r5, lsl #2]
 c000ebc:	e2036007 	and	r6, r3, #7
 c000ec0:	e1a06106 	lsl	r6, r6, #2
 c000ec4:	e1c86634 	bic	r6, r8, r4, lsr r6
 c000ec8:	e20c8007 	and	r8, ip, #7
 c000ecc:	e1a08108 	lsl	r8, r8, #2
 c000ed0:	e1860810 	orr	r0, r6, r0, lsl r8
 c000ed4:	e7820105 	str	r0, [r2, r5, lsl #2]
 c000ed8:	e2833001 	add	r3, r3, #1
 c000edc:	e24cc001 	sub	ip, ip, #1
	
	for (i =  0; i < Stru_Bitmap.usHeight; i++)
	{
		for (j = 0; j <Stru_Bitmap.usWidth; j++)
		{
			if ((ucColor = *(INT8U*)(Stru_Bitmap.pucStart + i * Stru_Bitmap.usWidth + j)) != (TRANSPARENCY))
 c000ee0:	e4d10001 	ldrb	r0, [r1], #1
 c000ee4:	e35000ff 	cmp	r0, #255	; 0xff
 c000ee8:	0a000008 	beq	c000f10 <BitmapView+0x194>
			{
				LCD_PutPixel( (x + j), (y + i), ucColor);
 c000eec:	e1a051a3 	lsr	r5, r3, #3
 c000ef0:	e7928105 	ldr	r8, [r2, r5, lsl #2]
 c000ef4:	e2036007 	and	r6, r3, #7
 c000ef8:	e1a06106 	lsl	r6, r6, #2
 c000efc:	e1c86634 	bic	r6, r8, r4, lsr r6
 c000f00:	e20c8007 	and	r8, ip, #7
 c000f04:	e1a08108 	lsl	r8, r8, #2
 c000f08:	e1860810 	orr	r0, r6, r0, lsl r8
 c000f0c:	e7820105 	str	r0, [r2, r5, lsl #2]
 c000f10:	e2833001 	add	r3, r3, #1
	INT32U i, j;
	INT8U ucColor;
	
	for (i =  0; i < Stru_Bitmap.usHeight; i++)
	{
		for (j = 0; j <Stru_Bitmap.usWidth; j++)
 c000f14:	e1530007 	cmp	r3, r7
		{
			if ((ucColor = *(INT8U*)(Stru_Bitmap.pucStart + i * Stru_Bitmap.usWidth + j)) != (TRANSPARENCY))
			{
				LCD_PutPixel( (x + j), (y + i), ucColor);
 c000f18:	e24cc001 	sub	ip, ip, #1
	INT32U i, j;
	INT8U ucColor;
	
	for (i =  0; i < Stru_Bitmap.usHeight; i++)
	{
		for (j = 0; j <Stru_Bitmap.usWidth; j++)
 c000f1c:	0a000036 	beq	c000ffc <BitmapView+0x280>
		{
			if ((ucColor = *(INT8U*)(Stru_Bitmap.pucStart + i * Stru_Bitmap.usWidth + j)) != (TRANSPARENCY))
 c000f20:	e4d10001 	ldrb	r0, [r1], #1
			{
				LCD_PutPixel( (x + j), (y + i), ucColor);
 c000f24:	e1a091a3 	lsr	r9, r3, #3
	
	for (i =  0; i < Stru_Bitmap.usHeight; i++)
	{
		for (j = 0; j <Stru_Bitmap.usWidth; j++)
		{
			if ((ucColor = *(INT8U*)(Stru_Bitmap.pucStart + i * Stru_Bitmap.usWidth + j)) != (TRANSPARENCY))
 c000f28:	e35000ff 	cmp	r0, #255	; 0xff
			{
				LCD_PutPixel( (x + j), (y + i), ucColor);
 c000f2c:	1792a109 	ldrne	sl, [r2, r9, lsl #2]
 c000f30:	e2038007 	and	r8, r3, #7
 c000f34:	e1a08108 	lsl	r8, r8, #2
 c000f38:	11ca8834 	bicne	r8, sl, r4, lsr r8
 c000f3c:	e20c6007 	and	r6, ip, #7
 c000f40:	e1a05106 	lsl	r5, r6, #2
 c000f44:	11888510 	orrne	r8, r8, r0, lsl r5
 c000f48:	e2830001 	add	r0, r3, #1
 c000f4c:	17828109 	strne	r8, [r2, r9, lsl #2]
 c000f50:	e2003007 	and	r3, r0, #7
 c000f54:	e1a08103 	lsl	r8, r3, #2
	
	for (i =  0; i < Stru_Bitmap.usHeight; i++)
	{
		for (j = 0; j <Stru_Bitmap.usWidth; j++)
		{
			if ((ucColor = *(INT8U*)(Stru_Bitmap.pucStart + i * Stru_Bitmap.usWidth + j)) != (TRANSPARENCY))
 c000f58:	e5d13000 	ldrb	r3, [r1]
			{
				LCD_PutPixel( (x + j), (y + i), ucColor);
 c000f5c:	e24cc001 	sub	ip, ip, #1
 c000f60:	e20c6007 	and	r6, ip, #7
	
	for (i =  0; i < Stru_Bitmap.usHeight; i++)
	{
		for (j = 0; j <Stru_Bitmap.usWidth; j++)
		{
			if ((ucColor = *(INT8U*)(Stru_Bitmap.pucStart + i * Stru_Bitmap.usWidth + j)) != (TRANSPARENCY))
 c000f64:	e35300ff 	cmp	r3, #255	; 0xff
			{
				LCD_PutPixel( (x + j), (y + i), ucColor);
 c000f68:	e1a051a0 	lsr	r5, r0, #3
 c000f6c:	e1a06106 	lsl	r6, r6, #2
 c000f70:	1792a105 	ldrne	sl, [r2, r5, lsl #2]
 c000f74:	11ca8834 	bicne	r8, sl, r4, lsr r8
 c000f78:	11889613 	orrne	r9, r8, r3, lsl r6
 c000f7c:	17829105 	strne	r9, [r2, r5, lsl #2]
	
	for (i =  0; i < Stru_Bitmap.usHeight; i++)
	{
		for (j = 0; j <Stru_Bitmap.usWidth; j++)
		{
			if ((ucColor = *(INT8U*)(Stru_Bitmap.pucStart + i * Stru_Bitmap.usWidth + j)) != (TRANSPARENCY))
 c000f80:	e5d15001 	ldrb	r5, [r1, #1]
			{
				LCD_PutPixel( (x + j), (y + i), ucColor);
 c000f84:	e2809001 	add	r9, r0, #1
	
	for (i =  0; i < Stru_Bitmap.usHeight; i++)
	{
		for (j = 0; j <Stru_Bitmap.usWidth; j++)
		{
			if ((ucColor = *(INT8U*)(Stru_Bitmap.pucStart + i * Stru_Bitmap.usWidth + j)) != (TRANSPARENCY))
 c000f88:	e35500ff 	cmp	r5, #255	; 0xff
			{
				LCD_PutPixel( (x + j), (y + i), ucColor);
 c000f8c:	e1a061a9 	lsr	r6, r9, #3
 c000f90:	1792a106 	ldrne	sl, [r2, r6, lsl #2]
 c000f94:	e2098007 	and	r8, r9, #7
 c000f98:	e1a08108 	lsl	r8, r8, #2
 c000f9c:	11ca8834 	bicne	r8, sl, r4, lsr r8
 c000fa0:	e24c9001 	sub	r9, ip, #1
 c000fa4:	e2099007 	and	r9, r9, #7
 c000fa8:	e1a09109 	lsl	r9, r9, #2
 c000fac:	11888915 	orrne	r8, r8, r5, lsl r9
 c000fb0:	17828106 	strne	r8, [r2, r6, lsl #2]
 c000fb4:	e2805002 	add	r5, r0, #2
 c000fb8:	e1a061a5 	lsr	r6, r5, #3
 c000fbc:	e2803003 	add	r3, r0, #3
 c000fc0:	e2050007 	and	r0, r5, #7
	
	for (i =  0; i < Stru_Bitmap.usHeight; i++)
	{
		for (j = 0; j <Stru_Bitmap.usWidth; j++)
		{
			if ((ucColor = *(INT8U*)(Stru_Bitmap.pucStart + i * Stru_Bitmap.usWidth + j)) != (TRANSPARENCY))
 c000fc4:	e5d15002 	ldrb	r5, [r1, #2]
 c000fc8:	e35500ff 	cmp	r5, #255	; 0xff
			{
				LCD_PutPixel( (x + j), (y + i), ucColor);
 c000fcc:	1792a106 	ldrne	sl, [r2, r6, lsl #2]
 c000fd0:	e1a00100 	lsl	r0, r0, #2
 c000fd4:	11ca0034 	bicne	r0, sl, r4, lsr r0
 c000fd8:	e24c8002 	sub	r8, ip, #2
 c000fdc:	e2088007 	and	r8, r8, #7
 c000fe0:	e1a08108 	lsl	r8, r8, #2
 c000fe4:	11800815 	orrne	r0, r0, r5, lsl r8
 c000fe8:	17820106 	strne	r0, [r2, r6, lsl #2]
	INT32U i, j;
	INT8U ucColor;
	
	for (i =  0; i < Stru_Bitmap.usHeight; i++)
	{
		for (j = 0; j <Stru_Bitmap.usWidth; j++)
 c000fec:	e1530007 	cmp	r3, r7
		{
			if ((ucColor = *(INT8U*)(Stru_Bitmap.pucStart + i * Stru_Bitmap.usWidth + j)) != (TRANSPARENCY))
 c000ff0:	e2811003 	add	r1, r1, #3
			{
				LCD_PutPixel( (x + j), (y + i), ucColor);
 c000ff4:	e24cc003 	sub	ip, ip, #3
	INT32U i, j;
	INT8U ucColor;
	
	for (i =  0; i < Stru_Bitmap.usHeight; i++)
	{
		for (j = 0; j <Stru_Bitmap.usWidth; j++)
 c000ff8:	1affffc8 	bne	c000f20 <BitmapView+0x1a4>
void BitmapView (INT16U x, INT16U y, STRU_BITMAP Stru_Bitmap)
{
	INT32U i, j;
	INT8U ucColor;
	
	for (i =  0; i < Stru_Bitmap.usHeight; i++)
 c000ffc:	e59d5008 	ldr	r5, [sp, #8]
 c001000:	e59d100c 	ldr	r1, [sp, #12]
 c001004:	e2853001 	add	r3, r5, #1
 c001008:	e59d2010 	ldr	r2, [sp, #16]
 c00100c:	e59d001c 	ldr	r0, [sp, #28]
 c001010:	e59d5014 	ldr	r5, [sp, #20]
 c001014:	e2828d05 	add	r8, r2, #320	; 0x140
 c001018:	e081c005 	add	ip, r1, r5
 c00101c:	e1500003 	cmp	r0, r3
 c001020:	e58d3008 	str	r3, [sp, #8]
 c001024:	e58dc00c 	str	ip, [sp, #12]
 c001028:	e58d8010 	str	r8, [sp, #16]
 c00102c:	8affff69 	bhi	c000dd8 <BitmapView+0x5c>
			{
				LCD_PutPixel( (x + j), (y + i), ucColor);
			}
		}
	}
}
 c001030:	e28dd024 	add	sp, sp, #36	; 0x24
 c001034:	e8bd07f0 	pop	{r4, r5, r6, r7, r8, r9, sl}
 c001038:	e28dd008 	add	sp, sp, #8
 c00103c:	e12fff1e 	bx	lr

0c001040 <BitmapPush>:
* ret:		none
* modify:
* comment:		
*********************************************************************************************/
void BitmapPush (INT16U x, INT16U y, STRU_BITMAP Stru_Bitmap)
{
 c001040:	e24dd008 	sub	sp, sp, #8
 c001044:	e92d07f0 	push	{r4, r5, r6, r7, r8, r9, sl}
 c001048:	e24dd014 	sub	sp, sp, #20
 c00104c:	e28dc030 	add	ip, sp, #48	; 0x30
 c001050:	e88c000c 	stm	ip, {r2, r3}
	INT32U i, j;

	ulMouseX = x; 
	ulMouseY = y;
	for (i =  0; i < Stru_Bitmap.usHeight; i++)
 c001054:	e1dd53b4 	ldrh	r5, [sp, #52]	; 0x34
*********************************************************************************************/
void BitmapPush (INT16U x, INT16U y, STRU_BITMAP Stru_Bitmap)
{
	INT32U i, j;

	ulMouseX = x; 
 c001058:	e59f22c4 	ldr	r2, [pc, #708]	; c001324 <BitmapPush+0x2e4>
	ulMouseY = y;
 c00105c:	e59f32c4 	ldr	r3, [pc, #708]	; c001328 <BitmapPush+0x2e8>
	for (i =  0; i < Stru_Bitmap.usHeight; i++)
 c001060:	e3550000 	cmp	r5, #0
 c001064:	e58d500c 	str	r5, [sp, #12]
* ret:		none
* modify:
* comment:		
*********************************************************************************************/
void BitmapPush (INT16U x, INT16U y, STRU_BITMAP Stru_Bitmap)
{
 c001068:	e58d0000 	str	r0, [sp]
	INT32U i, j;

	ulMouseX = x; 
	ulMouseY = y;
	for (i =  0; i < Stru_Bitmap.usHeight; i++)
 c00106c:	e1dd53b2 	ldrh	r5, [sp, #50]	; 0x32
*********************************************************************************************/
void BitmapPush (INT16U x, INT16U y, STRU_BITMAP Stru_Bitmap)
{
	INT32U i, j;

	ulMouseX = x; 
 c001070:	e1c200b0 	strh	r0, [r2]
	ulMouseY = y;
 c001074:	e1c310b0 	strh	r1, [r3]
	for (i =  0; i < Stru_Bitmap.usHeight; i++)
 c001078:	0a000087 	beq	c00129c <BitmapPush+0x25c>
 c00107c:	e0810101 	add	r0, r1, r1, lsl #2
 c001080:	e1a01300 	lsl	r1, r0, #6
 c001084:	e58d1004 	str	r1, [sp, #4]
 c001088:	e59fc29c 	ldr	ip, [pc, #668]	; c00132c <BitmapPush+0x2ec>
 c00108c:	e3a09000 	mov	r9, #0
	{
		for (j = 0; j < Stru_Bitmap.usWidth; j+=2)
 c001090:	e3550000 	cmp	r5, #0
 c001094:	0a000079 	beq	c001280 <BitmapPush+0x240>
 c001098:	e59d8004 	ldr	r8, [sp, #4]
		{
			if ((x + j)%2)
 c00109c:	e59da000 	ldr	sl, [sp]
 c0010a0:	e2454001 	sub	r4, r5, #1

	ulMouseX = x; 
	ulMouseY = y;
	for (i =  0; i < Stru_Bitmap.usHeight; i++)
	{
		for (j = 0; j < Stru_Bitmap.usWidth; j+=2)
 c0010a4:	e1a060a8 	lsr	r6, r8, #1
 c0010a8:	e1a010a4 	lsr	r1, r4, #1
				(((*(INT8U*)(LCD_ACTIVE_BUFFER + (y + i) * SCR_XSIZE / 2 + (x + j) / 8 * 4  + 3 - ((x + j)%8) / 2)) << 4) & 0xf0) + 
				(((*(INT8U*)(LCD_ACTIVE_BUFFER + (y + i) * SCR_XSIZE / 2 + (x + j+1) / 8 * 4  + 3 - ((x + j+1)%8) / 2)) >> 4) & 0x0f);
			}
			else
			{
				ucCursorBackUp[i][j/2] = (*(INT8U*)(LCD_ACTIVE_BUFFER + (y + i) * SCR_XSIZE / 2 + (x + j) / 8 * 4  + 3 - ((x + j)%8) / 2));
 c0010ac:	e0893089 	add	r3, r9, r9, lsl #1
		for (j = 0; j < Stru_Bitmap.usWidth; j+=2)
		{
			if ((x + j)%2)
			{
				ucCursorBackUp[i][j/2] =
				(((*(INT8U*)(LCD_ACTIVE_BUFFER + (y + i) * SCR_XSIZE / 2 + (x + j) / 8 * 4  + 3 - ((x + j)%8) / 2)) << 4) & 0xf0) + 
 c0010b0:	e28606c3 	add	r0, r6, #204472320	; 0xc300000
	ulMouseY = y;
	for (i =  0; i < Stru_Bitmap.usHeight; i++)
	{
		for (j = 0; j < Stru_Bitmap.usWidth; j+=2)
		{
			if ((x + j)%2)
 c0010b4:	e31a0001 	tst	sl, #1
				(((*(INT8U*)(LCD_ACTIVE_BUFFER + (y + i) * SCR_XSIZE / 2 + (x + j) / 8 * 4  + 3 - ((x + j)%8) / 2)) << 4) & 0xf0) + 
				(((*(INT8U*)(LCD_ACTIVE_BUFFER + (y + i) * SCR_XSIZE / 2 + (x + j+1) / 8 * 4  + 3 - ((x + j+1)%8) / 2)) >> 4) & 0x0f);
			}
			else
			{
				ucCursorBackUp[i][j/2] = (*(INT8U*)(LCD_ACTIVE_BUFFER + (y + i) * SCR_XSIZE / 2 + (x + j) / 8 * 4  + 3 - ((x + j)%8) / 2));
 c0010b8:	e1a04083 	lsl	r4, r3, #1
		for (j = 0; j < Stru_Bitmap.usWidth; j+=2)
		{
			if ((x + j)%2)
			{
				ucCursorBackUp[i][j/2] =
				(((*(INT8U*)(LCD_ACTIVE_BUFFER + (y + i) * SCR_XSIZE / 2 + (x + j) / 8 * 4  + 3 - ((x + j)%8) / 2)) << 4) & 0xf0) + 
 c0010bc:	e2800003 	add	r0, r0, #3
 c0010c0:	e2011001 	and	r1, r1, #1
	ulMouseY = y;
	for (i =  0; i < Stru_Bitmap.usHeight; i++)
	{
		for (j = 0; j < Stru_Bitmap.usWidth; j+=2)
		{
			if ((x + j)%2)
 c0010c4:	0a000078 	beq	c0012ac <BitmapPush+0x26c>
			{
				ucCursorBackUp[i][j/2] =
				(((*(INT8U*)(LCD_ACTIVE_BUFFER + (y + i) * SCR_XSIZE / 2 + (x + j) / 8 * 4  + 3 - ((x + j)%8) / 2)) << 4) & 0xf0) + 
 c0010c8:	e59d8000 	ldr	r8, [sp]
 c0010cc:	e59da000 	ldr	sl, [sp]
 c0010d0:	e2882001 	add	r2, r8, #1
 c0010d4:	e20a8007 	and	r8, sl, #7
 c0010d8:	e1a0a1aa 	lsr	sl, sl, #3
 c0010dc:	e58da008 	str	sl, [sp, #8]
				(((*(INT8U*)(LCD_ACTIVE_BUFFER + (y + i) * SCR_XSIZE / 2 + (x + j+1) / 8 * 4  + 3 - ((x + j+1)%8) / 2)) >> 4) & 0x0f);
 c0010e0:	e2027007 	and	r7, r2, #7
		for (j = 0; j < Stru_Bitmap.usWidth; j+=2)
		{
			if ((x + j)%2)
			{
				ucCursorBackUp[i][j/2] =
				(((*(INT8U*)(LCD_ACTIVE_BUFFER + (y + i) * SCR_XSIZE / 2 + (x + j) / 8 * 4  + 3 - ((x + j)%8) / 2)) << 4) & 0xf0) + 
 c0010e4:	e1a0a0a8 	lsr	sl, r8, #1
				(((*(INT8U*)(LCD_ACTIVE_BUFFER + (y + i) * SCR_XSIZE / 2 + (x + j+1) / 8 * 4  + 3 - ((x + j+1)%8) / 2)) >> 4) & 0x0f);
 c0010e8:	e1a021a2 	lsr	r2, r2, #3
 c0010ec:	e0808102 	add	r8, r0, r2, lsl #2
 c0010f0:	e1a070a7 	lsr	r7, r7, #1
		for (j = 0; j < Stru_Bitmap.usWidth; j+=2)
		{
			if ((x + j)%2)
			{
				ucCursorBackUp[i][j/2] =
				(((*(INT8U*)(LCD_ACTIVE_BUFFER + (y + i) * SCR_XSIZE / 2 + (x + j) / 8 * 4  + 3 - ((x + j)%8) / 2)) << 4) & 0xf0) + 
 c0010f4:	e26a2000 	rsb	r2, sl, #0
 c0010f8:	e59da008 	ldr	sl, [sp, #8]
				(((*(INT8U*)(LCD_ACTIVE_BUFFER + (y + i) * SCR_XSIZE / 2 + (x + j+1) / 8 * 4  + 3 - ((x + j+1)%8) / 2)) >> 4) & 0x0f);
 c0010fc:	e2677000 	rsb	r7, r7, #0
	{
		for (j = 0; j < Stru_Bitmap.usWidth; j+=2)
		{
			if ((x + j)%2)
			{
				ucCursorBackUp[i][j/2] =
 c001100:	e7d88007 	ldrb	r8, [r8, r7]
				(((*(INT8U*)(LCD_ACTIVE_BUFFER + (y + i) * SCR_XSIZE / 2 + (x + j) / 8 * 4  + 3 - ((x + j)%8) / 2)) << 4) & 0xf0) + 
 c001104:	e080710a 	add	r7, r0, sl, lsl #2
 c001108:	e7d72002 	ldrb	r2, [r7, r2]
	{
		for (j = 0; j < Stru_Bitmap.usWidth; j+=2)
		{
			if ((x + j)%2)
			{
				ucCursorBackUp[i][j/2] =
 c00110c:	e1a08228 	lsr	r8, r8, #4
 c001110:	e0888202 	add	r8, r8, r2, lsl #4
 c001114:	e7cc8083 	strb	r8, [ip, r3, lsl #1]

	ulMouseX = x; 
	ulMouseY = y;
	for (i =  0; i < Stru_Bitmap.usHeight; i++)
	{
		for (j = 0; j < Stru_Bitmap.usWidth; j+=2)
 c001118:	e3a02002 	mov	r2, #2
 c00111c:	e59d3000 	ldr	r3, [sp]
 c001120:	e1520005 	cmp	r2, r5
 c001124:	e0833002 	add	r3, r3, r2
 c001128:	2a000054 	bcs	c001280 <BitmapPush+0x240>
 c00112c:	e3510000 	cmp	r1, #0
 c001130:	0a000038 	beq	c001218 <BitmapPush+0x1d8>
		{
			if ((x + j)%2)
 c001134:	e3130001 	tst	r3, #1
 c001138:	1a000064 	bne	c0012d0 <BitmapPush+0x290>
				(((*(INT8U*)(LCD_ACTIVE_BUFFER + (y + i) * SCR_XSIZE / 2 + (x + j) / 8 * 4  + 3 - ((x + j)%8) / 2)) << 4) & 0xf0) + 
				(((*(INT8U*)(LCD_ACTIVE_BUFFER + (y + i) * SCR_XSIZE / 2 + (x + j+1) / 8 * 4  + 3 - ((x + j+1)%8) / 2)) >> 4) & 0x0f);
			}
			else
			{
				ucCursorBackUp[i][j/2] = (*(INT8U*)(LCD_ACTIVE_BUFFER + (y + i) * SCR_XSIZE / 2 + (x + j) / 8 * 4  + 3 - ((x + j)%8) / 2));
 c00113c:	e1a071a3 	lsr	r7, r3, #3
 c001140:	e2031007 	and	r1, r3, #7
 c001144:	e0867107 	add	r7, r6, r7, lsl #2
 c001148:	e04770a1 	sub	r7, r7, r1, lsr #1
 c00114c:	e28716c3 	add	r1, r7, #204472320	; 0xc300000
 c001150:	e5d17003 	ldrb	r7, [r1, #3]
 c001154:	e2841001 	add	r1, r4, #1
 c001158:	e7cc7001 	strb	r7, [ip, r1]

	ulMouseX = x; 
	ulMouseY = y;
	for (i =  0; i < Stru_Bitmap.usHeight; i++)
	{
		for (j = 0; j < Stru_Bitmap.usWidth; j+=2)
 c00115c:	e2822002 	add	r2, r2, #2
 c001160:	e1520005 	cmp	r2, r5
 c001164:	e2833002 	add	r3, r3, #2
 c001168:	3a00002a 	bcc	c001218 <BitmapPush+0x1d8>
 c00116c:	ea000043 	b	c001280 <BitmapPush+0x240>
		{
			if ((x + j)%2)
			{
				ucCursorBackUp[i][j/2] =
				(((*(INT8U*)(LCD_ACTIVE_BUFFER + (y + i) * SCR_XSIZE / 2 + (x + j) / 8 * 4  + 3 - ((x + j)%8) / 2)) << 4) & 0xf0) + 
 c001170:	e283a001 	add	sl, r3, #1
				(((*(INT8U*)(LCD_ACTIVE_BUFFER + (y + i) * SCR_XSIZE / 2 + (x + j+1) / 8 * 4  + 3 - ((x + j+1)%8) / 2)) >> 4) & 0x0f);
 c001174:	e20a1007 	and	r1, sl, #7
 c001178:	e1a080a1 	lsr	r8, r1, #1
		for (j = 0; j < Stru_Bitmap.usWidth; j+=2)
		{
			if ((x + j)%2)
			{
				ucCursorBackUp[i][j/2] =
				(((*(INT8U*)(LCD_ACTIVE_BUFFER + (y + i) * SCR_XSIZE / 2 + (x + j) / 8 * 4  + 3 - ((x + j)%8) / 2)) << 4) & 0xf0) + 
 c00117c:	e2037007 	and	r7, r3, #7
				(((*(INT8U*)(LCD_ACTIVE_BUFFER + (y + i) * SCR_XSIZE / 2 + (x + j+1) / 8 * 4  + 3 - ((x + j+1)%8) / 2)) >> 4) & 0x0f);
 c001180:	e1a0a1aa 	lsr	sl, sl, #3
		for (j = 0; j < Stru_Bitmap.usWidth; j+=2)
		{
			if ((x + j)%2)
			{
				ucCursorBackUp[i][j/2] =
				(((*(INT8U*)(LCD_ACTIVE_BUFFER + (y + i) * SCR_XSIZE / 2 + (x + j) / 8 * 4  + 3 - ((x + j)%8) / 2)) << 4) & 0xf0) + 
 c001184:	e1a011a3 	lsr	r1, r3, #3
 c001188:	e1a070a7 	lsr	r7, r7, #1
				(((*(INT8U*)(LCD_ACTIVE_BUFFER + (y + i) * SCR_XSIZE / 2 + (x + j+1) / 8 * 4  + 3 - ((x + j+1)%8) / 2)) >> 4) & 0x0f);
 c00118c:	e2688000 	rsb	r8, r8, #0
 c001190:	e080a10a 	add	sl, r0, sl, lsl #2
	{
		for (j = 0; j < Stru_Bitmap.usWidth; j+=2)
		{
			if ((x + j)%2)
			{
				ucCursorBackUp[i][j/2] =
 c001194:	e7da8008 	ldrb	r8, [sl, r8]
				(((*(INT8U*)(LCD_ACTIVE_BUFFER + (y + i) * SCR_XSIZE / 2 + (x + j) / 8 * 4  + 3 - ((x + j)%8) / 2)) << 4) & 0xf0) + 
 c001198:	e0801101 	add	r1, r0, r1, lsl #2
 c00119c:	e2677000 	rsb	r7, r7, #0
 c0011a0:	e7d17007 	ldrb	r7, [r1, r7]
	{
		for (j = 0; j < Stru_Bitmap.usWidth; j+=2)
		{
			if ((x + j)%2)
			{
				ucCursorBackUp[i][j/2] =
 c0011a4:	e1a08228 	lsr	r8, r8, #4
 c0011a8:	e08410a2 	add	r1, r4, r2, lsr #1
 c0011ac:	e0888207 	add	r8, r8, r7, lsl #4
 c0011b0:	e7cc8001 	strb	r8, [ip, r1]

	ulMouseX = x; 
	ulMouseY = y;
	for (i =  0; i < Stru_Bitmap.usHeight; i++)
	{
		for (j = 0; j < Stru_Bitmap.usWidth; j+=2)
 c0011b4:	e2831002 	add	r1, r3, #2
		{
			if ((x + j)%2)
 c0011b8:	e3110001 	tst	r1, #1

	ulMouseX = x; 
	ulMouseY = y;
	for (i =  0; i < Stru_Bitmap.usHeight; i++)
	{
		for (j = 0; j < Stru_Bitmap.usWidth; j+=2)
 c0011bc:	e2822002 	add	r2, r2, #2
		{
			if ((x + j)%2)
 c0011c0:	0a000022 	beq	c001250 <BitmapPush+0x210>
			{
				ucCursorBackUp[i][j/2] =
				(((*(INT8U*)(LCD_ACTIVE_BUFFER + (y + i) * SCR_XSIZE / 2 + (x + j) / 8 * 4  + 3 - ((x + j)%8) / 2)) << 4) & 0xf0) + 
 c0011c4:	e2833003 	add	r3, r3, #3
				(((*(INT8U*)(LCD_ACTIVE_BUFFER + (y + i) * SCR_XSIZE / 2 + (x + j+1) / 8 * 4  + 3 - ((x + j+1)%8) / 2)) >> 4) & 0x0f);
 c0011c8:	e2037007 	and	r7, r3, #7
 c0011cc:	e1a0a0a7 	lsr	sl, r7, #1
		for (j = 0; j < Stru_Bitmap.usWidth; j+=2)
		{
			if ((x + j)%2)
			{
				ucCursorBackUp[i][j/2] =
				(((*(INT8U*)(LCD_ACTIVE_BUFFER + (y + i) * SCR_XSIZE / 2 + (x + j) / 8 * 4  + 3 - ((x + j)%8) / 2)) << 4) & 0xf0) + 
 c0011d0:	e2018007 	and	r8, r1, #7
				(((*(INT8U*)(LCD_ACTIVE_BUFFER + (y + i) * SCR_XSIZE / 2 + (x + j+1) / 8 * 4  + 3 - ((x + j+1)%8) / 2)) >> 4) & 0x0f);
 c0011d4:	e1a031a3 	lsr	r3, r3, #3
		for (j = 0; j < Stru_Bitmap.usWidth; j+=2)
		{
			if ((x + j)%2)
			{
				ucCursorBackUp[i][j/2] =
				(((*(INT8U*)(LCD_ACTIVE_BUFFER + (y + i) * SCR_XSIZE / 2 + (x + j) / 8 * 4  + 3 - ((x + j)%8) / 2)) << 4) & 0xf0) + 
 c0011d8:	e1a071a1 	lsr	r7, r1, #3
 c0011dc:	e1a080a8 	lsr	r8, r8, #1
				(((*(INT8U*)(LCD_ACTIVE_BUFFER + (y + i) * SCR_XSIZE / 2 + (x + j+1) / 8 * 4  + 3 - ((x + j+1)%8) / 2)) >> 4) & 0x0f);
 c0011e0:	e26aa000 	rsb	sl, sl, #0
 c0011e4:	e0803103 	add	r3, r0, r3, lsl #2
	{
		for (j = 0; j < Stru_Bitmap.usWidth; j+=2)
		{
			if ((x + j)%2)
			{
				ucCursorBackUp[i][j/2] =
 c0011e8:	e7d3300a 	ldrb	r3, [r3, sl]
				(((*(INT8U*)(LCD_ACTIVE_BUFFER + (y + i) * SCR_XSIZE / 2 + (x + j) / 8 * 4  + 3 - ((x + j)%8) / 2)) << 4) & 0xf0) + 
 c0011ec:	e2688000 	rsb	r8, r8, #0
 c0011f0:	e0807107 	add	r7, r0, r7, lsl #2
 c0011f4:	e7d77008 	ldrb	r7, [r7, r8]
	{
		for (j = 0; j < Stru_Bitmap.usWidth; j+=2)
		{
			if ((x + j)%2)
			{
				ucCursorBackUp[i][j/2] =
 c0011f8:	e1a08223 	lsr	r8, r3, #4
 c0011fc:	e08430a2 	add	r3, r4, r2, lsr #1

	ulMouseX = x; 
	ulMouseY = y;
	for (i =  0; i < Stru_Bitmap.usHeight; i++)
	{
		for (j = 0; j < Stru_Bitmap.usWidth; j+=2)
 c001200:	e2822002 	add	r2, r2, #2
		{
			if ((x + j)%2)
			{
				ucCursorBackUp[i][j/2] =
 c001204:	e0887207 	add	r7, r8, r7, lsl #4

	ulMouseX = x; 
	ulMouseY = y;
	for (i =  0; i < Stru_Bitmap.usHeight; i++)
	{
		for (j = 0; j < Stru_Bitmap.usWidth; j+=2)
 c001208:	e1520005 	cmp	r2, r5
		{
			if ((x + j)%2)
			{
				ucCursorBackUp[i][j/2] =
 c00120c:	e7cc7003 	strb	r7, [ip, r3]

	ulMouseX = x; 
	ulMouseY = y;
	for (i =  0; i < Stru_Bitmap.usHeight; i++)
	{
		for (j = 0; j < Stru_Bitmap.usWidth; j+=2)
 c001210:	e2813002 	add	r3, r1, #2
 c001214:	2a000019 	bcs	c001280 <BitmapPush+0x240>
		{
			if ((x + j)%2)
 c001218:	e3130001 	tst	r3, #1
 c00121c:	1affffd3 	bne	c001170 <BitmapPush+0x130>
				(((*(INT8U*)(LCD_ACTIVE_BUFFER + (y + i) * SCR_XSIZE / 2 + (x + j) / 8 * 4  + 3 - ((x + j)%8) / 2)) << 4) & 0xf0) + 
				(((*(INT8U*)(LCD_ACTIVE_BUFFER + (y + i) * SCR_XSIZE / 2 + (x + j+1) / 8 * 4  + 3 - ((x + j+1)%8) / 2)) >> 4) & 0x0f);
			}
			else
			{
				ucCursorBackUp[i][j/2] = (*(INT8U*)(LCD_ACTIVE_BUFFER + (y + i) * SCR_XSIZE / 2 + (x + j) / 8 * 4  + 3 - ((x + j)%8) / 2));
 c001220:	e1a071a3 	lsr	r7, r3, #3
 c001224:	e2031007 	and	r1, r3, #7
 c001228:	e0867107 	add	r7, r6, r7, lsl #2
 c00122c:	e04770a1 	sub	r7, r7, r1, lsr #1
 c001230:	e28716c3 	add	r1, r7, #204472320	; 0xc300000
 c001234:	e5d17003 	ldrb	r7, [r1, #3]
 c001238:	e08410a2 	add	r1, r4, r2, lsr #1
 c00123c:	e7cc7001 	strb	r7, [ip, r1]

	ulMouseX = x; 
	ulMouseY = y;
	for (i =  0; i < Stru_Bitmap.usHeight; i++)
	{
		for (j = 0; j < Stru_Bitmap.usWidth; j+=2)
 c001240:	e2831002 	add	r1, r3, #2
		{
			if ((x + j)%2)
 c001244:	e3110001 	tst	r1, #1

	ulMouseX = x; 
	ulMouseY = y;
	for (i =  0; i < Stru_Bitmap.usHeight; i++)
	{
		for (j = 0; j < Stru_Bitmap.usWidth; j+=2)
 c001248:	e2822002 	add	r2, r2, #2
		{
			if ((x + j)%2)
 c00124c:	1affffdc 	bne	c0011c4 <BitmapPush+0x184>
				(((*(INT8U*)(LCD_ACTIVE_BUFFER + (y + i) * SCR_XSIZE / 2 + (x + j) / 8 * 4  + 3 - ((x + j)%8) / 2)) << 4) & 0xf0) + 
				(((*(INT8U*)(LCD_ACTIVE_BUFFER + (y + i) * SCR_XSIZE / 2 + (x + j+1) / 8 * 4  + 3 - ((x + j+1)%8) / 2)) >> 4) & 0x0f);
			}
			else
			{
				ucCursorBackUp[i][j/2] = (*(INT8U*)(LCD_ACTIVE_BUFFER + (y + i) * SCR_XSIZE / 2 + (x + j) / 8 * 4  + 3 - ((x + j)%8) / 2));
 c001250:	e1a071a1 	lsr	r7, r1, #3
 c001254:	e2013007 	and	r3, r1, #7
 c001258:	e0867107 	add	r7, r6, r7, lsl #2
 c00125c:	e04770a3 	sub	r7, r7, r3, lsr #1
 c001260:	e28736c3 	add	r3, r7, #204472320	; 0xc300000
 c001264:	e5d37003 	ldrb	r7, [r3, #3]
 c001268:	e08430a2 	add	r3, r4, r2, lsr #1

	ulMouseX = x; 
	ulMouseY = y;
	for (i =  0; i < Stru_Bitmap.usHeight; i++)
	{
		for (j = 0; j < Stru_Bitmap.usWidth; j+=2)
 c00126c:	e2822002 	add	r2, r2, #2
 c001270:	e1520005 	cmp	r2, r5
				(((*(INT8U*)(LCD_ACTIVE_BUFFER + (y + i) * SCR_XSIZE / 2 + (x + j) / 8 * 4  + 3 - ((x + j)%8) / 2)) << 4) & 0xf0) + 
				(((*(INT8U*)(LCD_ACTIVE_BUFFER + (y + i) * SCR_XSIZE / 2 + (x + j+1) / 8 * 4  + 3 - ((x + j+1)%8) / 2)) >> 4) & 0x0f);
			}
			else
			{
				ucCursorBackUp[i][j/2] = (*(INT8U*)(LCD_ACTIVE_BUFFER + (y + i) * SCR_XSIZE / 2 + (x + j) / 8 * 4  + 3 - ((x + j)%8) / 2));
 c001274:	e7cc7003 	strb	r7, [ip, r3]

	ulMouseX = x; 
	ulMouseY = y;
	for (i =  0; i < Stru_Bitmap.usHeight; i++)
	{
		for (j = 0; j < Stru_Bitmap.usWidth; j+=2)
 c001278:	e2813002 	add	r3, r1, #2
 c00127c:	3affffe5 	bcc	c001218 <BitmapPush+0x1d8>
{
	INT32U i, j;

	ulMouseX = x; 
	ulMouseY = y;
	for (i =  0; i < Stru_Bitmap.usHeight; i++)
 c001280:	e59d3004 	ldr	r3, [sp, #4]
 c001284:	e59d200c 	ldr	r2, [sp, #12]
 c001288:	e2899001 	add	r9, r9, #1
 c00128c:	e2837d05 	add	r7, r3, #320	; 0x140
 c001290:	e1520009 	cmp	r2, r9
 c001294:	e58d7004 	str	r7, [sp, #4]
 c001298:	8affff7c 	bhi	c001090 <BitmapPush+0x50>
			{
				ucCursorBackUp[i][j/2] = (*(INT8U*)(LCD_ACTIVE_BUFFER + (y + i) * SCR_XSIZE / 2 + (x + j) / 8 * 4  + 3 - ((x + j)%8) / 2));
			}
		}
	}
}
 c00129c:	e28dd014 	add	sp, sp, #20
 c0012a0:	e8bd07f0 	pop	{r4, r5, r6, r7, r8, r9, sl}
 c0012a4:	e28dd008 	add	sp, sp, #8
 c0012a8:	e12fff1e 	bx	lr
				(((*(INT8U*)(LCD_ACTIVE_BUFFER + (y + i) * SCR_XSIZE / 2 + (x + j) / 8 * 4  + 3 - ((x + j)%8) / 2)) << 4) & 0xf0) + 
				(((*(INT8U*)(LCD_ACTIVE_BUFFER + (y + i) * SCR_XSIZE / 2 + (x + j+1) / 8 * 4  + 3 - ((x + j+1)%8) / 2)) >> 4) & 0x0f);
			}
			else
			{
				ucCursorBackUp[i][j/2] = (*(INT8U*)(LCD_ACTIVE_BUFFER + (y + i) * SCR_XSIZE / 2 + (x + j) / 8 * 4  + 3 - ((x + j)%8) / 2));
 c0012ac:	e1a071aa 	lsr	r7, sl, #3
 c0012b0:	e0867107 	add	r7, r6, r7, lsl #2
 c0012b4:	e20a2007 	and	r2, sl, #7
 c0012b8:	e04720a2 	sub	r2, r7, r2, lsr #1
 c0012bc:	e28276c3 	add	r7, r2, #204472320	; 0xc300000
 c0012c0:	e2872003 	add	r2, r7, #3
 c0012c4:	e5d27000 	ldrb	r7, [r2]
 c0012c8:	e7cc7083 	strb	r7, [ip, r3, lsl #1]
 c0012cc:	eaffff91 	b	c001118 <BitmapPush+0xd8>
		for (j = 0; j < Stru_Bitmap.usWidth; j+=2)
		{
			if ((x + j)%2)
			{
				ucCursorBackUp[i][j/2] =
				(((*(INT8U*)(LCD_ACTIVE_BUFFER + (y + i) * SCR_XSIZE / 2 + (x + j) / 8 * 4  + 3 - ((x + j)%8) / 2)) << 4) & 0xf0) + 
 c0012d0:	e59d8000 	ldr	r8, [sp]
 c0012d4:	e1a0a1a3 	lsr	sl, r3, #3
 c0012d8:	e2881003 	add	r1, r8, #3
 c0012dc:	e2038007 	and	r8, r3, #7
 c0012e0:	e58da008 	str	sl, [sp, #8]
				(((*(INT8U*)(LCD_ACTIVE_BUFFER + (y + i) * SCR_XSIZE / 2 + (x + j+1) / 8 * 4  + 3 - ((x + j+1)%8) / 2)) >> 4) & 0x0f);
 c0012e4:	e2017007 	and	r7, r1, #7
		for (j = 0; j < Stru_Bitmap.usWidth; j+=2)
		{
			if ((x + j)%2)
			{
				ucCursorBackUp[i][j/2] =
				(((*(INT8U*)(LCD_ACTIVE_BUFFER + (y + i) * SCR_XSIZE / 2 + (x + j) / 8 * 4  + 3 - ((x + j)%8) / 2)) << 4) & 0xf0) + 
 c0012e8:	e1a0a0a8 	lsr	sl, r8, #1
				(((*(INT8U*)(LCD_ACTIVE_BUFFER + (y + i) * SCR_XSIZE / 2 + (x + j+1) / 8 * 4  + 3 - ((x + j+1)%8) / 2)) >> 4) & 0x0f);
 c0012ec:	e1a011a1 	lsr	r1, r1, #3
 c0012f0:	e0808101 	add	r8, r0, r1, lsl #2
 c0012f4:	e1a070a7 	lsr	r7, r7, #1
		for (j = 0; j < Stru_Bitmap.usWidth; j+=2)
		{
			if ((x + j)%2)
			{
				ucCursorBackUp[i][j/2] =
				(((*(INT8U*)(LCD_ACTIVE_BUFFER + (y + i) * SCR_XSIZE / 2 + (x + j) / 8 * 4  + 3 - ((x + j)%8) / 2)) << 4) & 0xf0) + 
 c0012f8:	e26a1000 	rsb	r1, sl, #0
 c0012fc:	e59da008 	ldr	sl, [sp, #8]
				(((*(INT8U*)(LCD_ACTIVE_BUFFER + (y + i) * SCR_XSIZE / 2 + (x + j+1) / 8 * 4  + 3 - ((x + j+1)%8) / 2)) >> 4) & 0x0f);
 c001300:	e2677000 	rsb	r7, r7, #0
	{
		for (j = 0; j < Stru_Bitmap.usWidth; j+=2)
		{
			if ((x + j)%2)
			{
				ucCursorBackUp[i][j/2] =
 c001304:	e7d88007 	ldrb	r8, [r8, r7]
				(((*(INT8U*)(LCD_ACTIVE_BUFFER + (y + i) * SCR_XSIZE / 2 + (x + j) / 8 * 4  + 3 - ((x + j)%8) / 2)) << 4) & 0xf0) + 
 c001308:	e080710a 	add	r7, r0, sl, lsl #2
 c00130c:	e7d77001 	ldrb	r7, [r7, r1]
	{
		for (j = 0; j < Stru_Bitmap.usWidth; j+=2)
		{
			if ((x + j)%2)
			{
				ucCursorBackUp[i][j/2] =
 c001310:	e1a08228 	lsr	r8, r8, #4
 c001314:	e2841001 	add	r1, r4, #1
 c001318:	e0888207 	add	r8, r8, r7, lsl #4
 c00131c:	e7cc8001 	strb	r8, [ip, r1]
 c001320:	eaffff8d 	b	c00115c <BitmapPush+0x11c>
 c001324:	0c00cfa6 	.word	0x0c00cfa6
 c001328:	0c00cfa4 	.word	0x0c00cfa4
 c00132c:	0c00cf2c 	.word	0x0c00cf2c

0c001330 <BitmapPop>:
* ret:		none
* modify:
* comment:		
*********************************************************************************************/
void BitmapPop(INT16U x, INT16U y, STRU_BITMAP Stru_Bitmap)
{
 c001330:	e24dd008 	sub	sp, sp, #8
 c001334:	e92d07f0 	push	{r4, r5, r6, r7, r8, r9, sl}
 c001338:	e24dd01c 	sub	sp, sp, #28
 c00133c:	e28dc038 	add	ip, sp, #56	; 0x38
 c001340:	e88c000c 	stm	ip, {r2, r3}
	INT32U i, j;
	INT32U ulAddr, ulAddr1;

	for (i =  0; i < Stru_Bitmap.usHeight; i++)
 c001344:	e1dd23bc 	ldrh	r2, [sp, #60]	; 0x3c
 c001348:	e3520000 	cmp	r2, #0
 c00134c:	e58d2014 	str	r2, [sp, #20]
* ret:		none
* modify:
* comment:		
*********************************************************************************************/
void BitmapPop(INT16U x, INT16U y, STRU_BITMAP Stru_Bitmap)
{
 c001350:	e58d000c 	str	r0, [sp, #12]
	INT32U i, j;
	INT32U ulAddr, ulAddr1;

	for (i =  0; i < Stru_Bitmap.usHeight; i++)
 c001354:	e1dd63ba 	ldrh	r6, [sp, #58]	; 0x3a
 c001358:	0a00008d 	beq	c001594 <BitmapPop+0x264>
 c00135c:	e0810101 	add	r0, r1, r1, lsl #2
 c001360:	e1a01300 	lsl	r1, r0, #6
 c001364:	e3a03000 	mov	r3, #0
 c001368:	e58d1010 	str	r1, [sp, #16]
 c00136c:	e58d3008 	str	r3, [sp, #8]
 c001370:	e59f02a4 	ldr	r0, [pc, #676]	; c00161c <BitmapPop+0x2ec>
	{
		for (j = 0; j <Stru_Bitmap.usWidth; j+=2)
 c001374:	e3560000 	cmp	r6, #0
 c001378:	0a00007c 	beq	c001570 <BitmapPop+0x240>
 c00137c:	e59d4010 	ldr	r4, [sp, #16]
		{
			ulAddr = LCD_ACTIVE_BUFFER + (y + i) * SCR_XSIZE / 2 + (x + j) / 8 * 4 + 3 - ((x + j)%8) / 2;
 c001380:	e59d500c 	ldr	r5, [sp, #12]
	INT32U i, j;
	INT32U ulAddr, ulAddr1;

	for (i =  0; i < Stru_Bitmap.usHeight; i++)
	{
		for (j = 0; j <Stru_Bitmap.usWidth; j+=2)
 c001384:	e1a0c0a4 	lsr	ip, r4, #1
		{
			ulAddr = LCD_ACTIVE_BUFFER + (y + i) * SCR_XSIZE / 2 + (x + j) / 8 * 4 + 3 - ((x + j)%8) / 2;
 c001388:	e28d3008 	add	r3, sp, #8
 c00138c:	e8930088 	ldm	r3, {r3, r7}
 c001390:	e2052007 	and	r2, r5, #7
	INT32U i, j;
	INT32U ulAddr, ulAddr1;

	for (i =  0; i < Stru_Bitmap.usHeight; i++)
	{
		for (j = 0; j <Stru_Bitmap.usWidth; j+=2)
 c001394:	e28c16c3 	add	r1, ip, #204472320	; 0xc300000
 c001398:	e2469001 	sub	r9, r6, #1
 c00139c:	e1a040a9 	lsr	r4, r9, #1
 c0013a0:	e2811003 	add	r1, r1, #3
				(*(INT8U*)ulAddr1) &= 0x0f;
				(*(INT8U*)ulAddr1) |= ((ucCursorBackUp[i][j/2] << 4) & 0xf0);
			}
			else
			{
				(*(INT8U*)ulAddr) = ucCursorBackUp[i][j/2];
 c0013a4:	e0833083 	add	r3, r3, r3, lsl #1

	for (i =  0; i < Stru_Bitmap.usHeight; i++)
	{
		for (j = 0; j <Stru_Bitmap.usWidth; j+=2)
		{
			ulAddr = LCD_ACTIVE_BUFFER + (y + i) * SCR_XSIZE / 2 + (x + j) / 8 * 4 + 3 - ((x + j)%8) / 2;
 c0013a8:	e1a0c1a7 	lsr	ip, r7, #3
 c0013ac:	e1a090a2 	lsr	r9, r2, #1
			ulAddr1 =LCD_ACTIVE_BUFFER + (y + i) * SCR_XSIZE / 2 + (x + j + 1) / 8 * 4 + 3 - ((x + j + 1)%8) / 2;
			if ((x + j)%2)
 c0013b0:	e3170001 	tst	r7, #1
				(*(INT8U*)ulAddr1) &= 0x0f;
				(*(INT8U*)ulAddr1) |= ((ucCursorBackUp[i][j/2] << 4) & 0xf0);
			}
			else
			{
				(*(INT8U*)ulAddr) = ucCursorBackUp[i][j/2];
 c0013b4:	e1a05083 	lsl	r5, r3, #1
 c0013b8:	e2044001 	and	r4, r4, #1

	for (i =  0; i < Stru_Bitmap.usHeight; i++)
	{
		for (j = 0; j <Stru_Bitmap.usWidth; j+=2)
		{
			ulAddr = LCD_ACTIVE_BUFFER + (y + i) * SCR_XSIZE / 2 + (x + j) / 8 * 4 + 3 - ((x + j)%8) / 2;
 c0013bc:	e081c10c 	add	ip, r1, ip, lsl #2
 c0013c0:	e2692000 	rsb	r2, r9, #0
			ulAddr1 =LCD_ACTIVE_BUFFER + (y + i) * SCR_XSIZE / 2 + (x + j + 1) / 8 * 4 + 3 - ((x + j + 1)%8) / 2;
			if ((x + j)%2)
 c0013c4:	0a00007a 	beq	c0015b4 <BitmapPop+0x284>
			{
				
				(*(INT8U*)ulAddr) &= 0xf0;
 c0013c8:	e7dc7002 	ldrb	r7, [ip, r2]
 c0013cc:	e20780f0 	and	r8, r7, #240	; 0xf0
 c0013d0:	e7cc8002 	strb	r8, [ip, r2]
	{
		for (j = 0; j <Stru_Bitmap.usWidth; j+=2)
		{
			ulAddr = LCD_ACTIVE_BUFFER + (y + i) * SCR_XSIZE / 2 + (x + j) / 8 * 4 + 3 - ((x + j)%8) / 2;
			ulAddr1 =LCD_ACTIVE_BUFFER + (y + i) * SCR_XSIZE / 2 + (x + j + 1) / 8 * 4 + 3 - ((x + j + 1)%8) / 2;
			if ((x + j)%2)
 c0013d4:	e59d900c 	ldr	r9, [sp, #12]
			{
				
				(*(INT8U*)ulAddr) &= 0xf0;
				(*(INT8U*)ulAddr) |= ((ucCursorBackUp[i][j/2] >> 4) & 0x0f);
 c0013d8:	e7d0a083 	ldrb	sl, [r0, r3, lsl #1]
	{
		for (j = 0; j <Stru_Bitmap.usWidth; j+=2)
		{
			ulAddr = LCD_ACTIVE_BUFFER + (y + i) * SCR_XSIZE / 2 + (x + j) / 8 * 4 + 3 - ((x + j)%8) / 2;
			ulAddr1 =LCD_ACTIVE_BUFFER + (y + i) * SCR_XSIZE / 2 + (x + j + 1) / 8 * 4 + 3 - ((x + j + 1)%8) / 2;
			if ((x + j)%2)
 c0013dc:	e2897001 	add	r7, r9, #1
	for (i =  0; i < Stru_Bitmap.usHeight; i++)
	{
		for (j = 0; j <Stru_Bitmap.usWidth; j+=2)
		{
			ulAddr = LCD_ACTIVE_BUFFER + (y + i) * SCR_XSIZE / 2 + (x + j) / 8 * 4 + 3 - ((x + j)%8) / 2;
			ulAddr1 =LCD_ACTIVE_BUFFER + (y + i) * SCR_XSIZE / 2 + (x + j + 1) / 8 * 4 + 3 - ((x + j + 1)%8) / 2;
 c0013e0:	e2079007 	and	r9, r7, #7
			if ((x + j)%2)
			{
				
				(*(INT8U*)ulAddr) &= 0xf0;
				(*(INT8U*)ulAddr) |= ((ucCursorBackUp[i][j/2] >> 4) & 0x0f);
 c0013e4:	e188822a 	orr	r8, r8, sl, lsr #4
 c0013e8:	e7cc8002 	strb	r8, [ip, r2]
	for (i =  0; i < Stru_Bitmap.usHeight; i++)
	{
		for (j = 0; j <Stru_Bitmap.usWidth; j+=2)
		{
			ulAddr = LCD_ACTIVE_BUFFER + (y + i) * SCR_XSIZE / 2 + (x + j) / 8 * 4 + 3 - ((x + j)%8) / 2;
			ulAddr1 =LCD_ACTIVE_BUFFER + (y + i) * SCR_XSIZE / 2 + (x + j + 1) / 8 * 4 + 3 - ((x + j + 1)%8) / 2;
 c0013ec:	e1a0a0a9 	lsr	sl, r9, #1
 c0013f0:	e1a021a7 	lsr	r2, r7, #3
 c0013f4:	e0819102 	add	r9, r1, r2, lsl #2
 c0013f8:	e26aa000 	rsb	sl, sl, #0
			if ((x + j)%2)
			{
				
				(*(INT8U*)ulAddr) &= 0xf0;
				(*(INT8U*)ulAddr) |= ((ucCursorBackUp[i][j/2] >> 4) & 0x0f);
				(*(INT8U*)ulAddr1) &= 0x0f;
 c0013fc:	e7d9700a 	ldrb	r7, [r9, sl]
 c001400:	e207c00f 	and	ip, r7, #15
 c001404:	e7c9c00a 	strb	ip, [r9, sl]
				(*(INT8U*)ulAddr1) |= ((ucCursorBackUp[i][j/2] << 4) & 0xf0);
 c001408:	e7d03083 	ldrb	r3, [r0, r3, lsl #1]
 c00140c:	e18c2203 	orr	r2, ip, r3, lsl #4
 c001410:	e7c9200a 	strb	r2, [r9, sl]
	INT32U i, j;
	INT32U ulAddr, ulAddr1;

	for (i =  0; i < Stru_Bitmap.usHeight; i++)
	{
		for (j = 0; j <Stru_Bitmap.usWidth; j+=2)
 c001414:	e3a02002 	mov	r2, #2
 c001418:	e59d300c 	ldr	r3, [sp, #12]
 c00141c:	e1520006 	cmp	r2, r6
 c001420:	e0833002 	add	r3, r3, r2
 c001424:	2a000051 	bcs	c001570 <BitmapPop+0x240>
 c001428:	e3540000 	cmp	r4, #0
 c00142c:	0a00000d 	beq	c001468 <BitmapPop+0x138>
		{
			ulAddr = LCD_ACTIVE_BUFFER + (y + i) * SCR_XSIZE / 2 + (x + j) / 8 * 4 + 3 - ((x + j)%8) / 2;
 c001430:	e2039007 	and	r9, r3, #7
 c001434:	e1a041a3 	lsr	r4, r3, #3
 c001438:	e1a0c0a9 	lsr	ip, r9, #1
			ulAddr1 =LCD_ACTIVE_BUFFER + (y + i) * SCR_XSIZE / 2 + (x + j + 1) / 8 * 4 + 3 - ((x + j + 1)%8) / 2;
			if ((x + j)%2)
 c00143c:	e3130001 	tst	r3, #1

	for (i =  0; i < Stru_Bitmap.usHeight; i++)
	{
		for (j = 0; j <Stru_Bitmap.usWidth; j+=2)
		{
			ulAddr = LCD_ACTIVE_BUFFER + (y + i) * SCR_XSIZE / 2 + (x + j) / 8 * 4 + 3 - ((x + j)%8) / 2;
 c001440:	e0814104 	add	r4, r1, r4, lsl #2
 c001444:	e26cc000 	rsb	ip, ip, #0
			ulAddr1 =LCD_ACTIVE_BUFFER + (y + i) * SCR_XSIZE / 2 + (x + j + 1) / 8 * 4 + 3 - ((x + j + 1)%8) / 2;
			if ((x + j)%2)
 c001448:	1a00005c 	bne	c0015c0 <BitmapPop+0x290>
				(*(INT8U*)ulAddr1) &= 0x0f;
				(*(INT8U*)ulAddr1) |= ((ucCursorBackUp[i][j/2] << 4) & 0xf0);
			}
			else
			{
				(*(INT8U*)ulAddr) = ucCursorBackUp[i][j/2];
 c00144c:	e2859001 	add	r9, r5, #1
 c001450:	e7d07009 	ldrb	r7, [r0, r9]
 c001454:	e7c4700c 	strb	r7, [r4, ip]
	INT32U i, j;
	INT32U ulAddr, ulAddr1;

	for (i =  0; i < Stru_Bitmap.usHeight; i++)
	{
		for (j = 0; j <Stru_Bitmap.usWidth; j+=2)
 c001458:	e2822002 	add	r2, r2, #2
 c00145c:	e1520006 	cmp	r2, r6
 c001460:	e2833002 	add	r3, r3, #2
 c001464:	2a000041 	bcs	c001570 <BitmapPop+0x240>
 c001468:	e58d6004 	str	r6, [sp, #4]
 c00146c:	ea000033 	b	c001540 <BitmapPop+0x210>
			ulAddr = LCD_ACTIVE_BUFFER + (y + i) * SCR_XSIZE / 2 + (x + j) / 8 * 4 + 3 - ((x + j)%8) / 2;
			ulAddr1 =LCD_ACTIVE_BUFFER + (y + i) * SCR_XSIZE / 2 + (x + j + 1) / 8 * 4 + 3 - ((x + j + 1)%8) / 2;
			if ((x + j)%2)
			{
				
				(*(INT8U*)ulAddr) &= 0xf0;
 c001470:	e7d4600c 	ldrb	r6, [r4, ip]
 c001474:	e20680f0 	and	r8, r6, #240	; 0xf0
 c001478:	e7c4800c 	strb	r8, [r4, ip]
				(*(INT8U*)ulAddr) |= ((ucCursorBackUp[i][j/2] >> 4) & 0x0f);
 c00147c:	e08560a2 	add	r6, r5, r2, lsr #1
 c001480:	e7d09006 	ldrb	r9, [r0, r6]
	{
		for (j = 0; j <Stru_Bitmap.usWidth; j+=2)
		{
			ulAddr = LCD_ACTIVE_BUFFER + (y + i) * SCR_XSIZE / 2 + (x + j) / 8 * 4 + 3 - ((x + j)%8) / 2;
			ulAddr1 =LCD_ACTIVE_BUFFER + (y + i) * SCR_XSIZE / 2 + (x + j + 1) / 8 * 4 + 3 - ((x + j + 1)%8) / 2;
			if ((x + j)%2)
 c001484:	e2837001 	add	r7, r3, #1
			{
				
				(*(INT8U*)ulAddr) &= 0xf0;
				(*(INT8U*)ulAddr) |= ((ucCursorBackUp[i][j/2] >> 4) & 0x0f);
 c001488:	e1888229 	orr	r8, r8, r9, lsr #4
	for (i =  0; i < Stru_Bitmap.usHeight; i++)
	{
		for (j = 0; j <Stru_Bitmap.usWidth; j+=2)
		{
			ulAddr = LCD_ACTIVE_BUFFER + (y + i) * SCR_XSIZE / 2 + (x + j) / 8 * 4 + 3 - ((x + j)%8) / 2;
			ulAddr1 =LCD_ACTIVE_BUFFER + (y + i) * SCR_XSIZE / 2 + (x + j + 1) / 8 * 4 + 3 - ((x + j + 1)%8) / 2;
 c00148c:	e207a007 	and	sl, r7, #7
			if ((x + j)%2)
			{
				
				(*(INT8U*)ulAddr) &= 0xf0;
				(*(INT8U*)ulAddr) |= ((ucCursorBackUp[i][j/2] >> 4) & 0x0f);
 c001490:	e7c4800c 	strb	r8, [r4, ip]
	for (i =  0; i < Stru_Bitmap.usHeight; i++)
	{
		for (j = 0; j <Stru_Bitmap.usWidth; j+=2)
		{
			ulAddr = LCD_ACTIVE_BUFFER + (y + i) * SCR_XSIZE / 2 + (x + j) / 8 * 4 + 3 - ((x + j)%8) / 2;
			ulAddr1 =LCD_ACTIVE_BUFFER + (y + i) * SCR_XSIZE / 2 + (x + j + 1) / 8 * 4 + 3 - ((x + j + 1)%8) / 2;
 c001494:	e1a091a7 	lsr	r9, r7, #3
 c001498:	e1a0a0aa 	lsr	sl, sl, #1
 c00149c:	e0819109 	add	r9, r1, r9, lsl #2
 c0014a0:	e26aa000 	rsb	sl, sl, #0
			if ((x + j)%2)
			{
				
				(*(INT8U*)ulAddr) &= 0xf0;
				(*(INT8U*)ulAddr) |= ((ucCursorBackUp[i][j/2] >> 4) & 0x0f);
				(*(INT8U*)ulAddr1) &= 0x0f;
 c0014a4:	e7d9400a 	ldrb	r4, [r9, sl]
 c0014a8:	e204700f 	and	r7, r4, #15
 c0014ac:	e7c9700a 	strb	r7, [r9, sl]
				(*(INT8U*)ulAddr1) |= ((ucCursorBackUp[i][j/2] << 4) & 0xf0);
 c0014b0:	e7d06006 	ldrb	r6, [r0, r6]
 c0014b4:	e187c206 	orr	ip, r7, r6, lsl #4
 c0014b8:	e7c9c00a 	strb	ip, [r9, sl]
	INT32U i, j;
	INT32U ulAddr, ulAddr1;

	for (i =  0; i < Stru_Bitmap.usHeight; i++)
	{
		for (j = 0; j <Stru_Bitmap.usWidth; j+=2)
 c0014bc:	e283c002 	add	ip, r3, #2
		{
			ulAddr = LCD_ACTIVE_BUFFER + (y + i) * SCR_XSIZE / 2 + (x + j) / 8 * 4 + 3 - ((x + j)%8) / 2;
 c0014c0:	e20c7007 	and	r7, ip, #7
 c0014c4:	e1a061ac 	lsr	r6, ip, #3
 c0014c8:	e1a040a7 	lsr	r4, r7, #1
			ulAddr1 =LCD_ACTIVE_BUFFER + (y + i) * SCR_XSIZE / 2 + (x + j + 1) / 8 * 4 + 3 - ((x + j + 1)%8) / 2;
			if ((x + j)%2)
 c0014cc:	e31c0001 	tst	ip, #1
	INT32U i, j;
	INT32U ulAddr, ulAddr1;

	for (i =  0; i < Stru_Bitmap.usHeight; i++)
	{
		for (j = 0; j <Stru_Bitmap.usWidth; j+=2)
 c0014d0:	e2822002 	add	r2, r2, #2
		{
			ulAddr = LCD_ACTIVE_BUFFER + (y + i) * SCR_XSIZE / 2 + (x + j) / 8 * 4 + 3 - ((x + j)%8) / 2;
 c0014d4:	e0816106 	add	r6, r1, r6, lsl #2
 c0014d8:	e2644000 	rsb	r4, r4, #0
			ulAddr1 =LCD_ACTIVE_BUFFER + (y + i) * SCR_XSIZE / 2 + (x + j + 1) / 8 * 4 + 3 - ((x + j + 1)%8) / 2;
			if ((x + j)%2)
 c0014dc:	0a000030 	beq	c0015a4 <BitmapPop+0x274>
			{
				
				(*(INT8U*)ulAddr) &= 0xf0;
 c0014e0:	e7d6a004 	ldrb	sl, [r6, r4]
 c0014e4:	e20a80f0 	and	r8, sl, #240	; 0xf0
 c0014e8:	e7c68004 	strb	r8, [r6, r4]
				(*(INT8U*)ulAddr) |= ((ucCursorBackUp[i][j/2] >> 4) & 0x0f);
 c0014ec:	e08570a2 	add	r7, r5, r2, lsr #1
 c0014f0:	e7d0a007 	ldrb	sl, [r0, r7]
	{
		for (j = 0; j <Stru_Bitmap.usWidth; j+=2)
		{
			ulAddr = LCD_ACTIVE_BUFFER + (y + i) * SCR_XSIZE / 2 + (x + j) / 8 * 4 + 3 - ((x + j)%8) / 2;
			ulAddr1 =LCD_ACTIVE_BUFFER + (y + i) * SCR_XSIZE / 2 + (x + j + 1) / 8 * 4 + 3 - ((x + j + 1)%8) / 2;
			if ((x + j)%2)
 c0014f4:	e2833003 	add	r3, r3, #3
	for (i =  0; i < Stru_Bitmap.usHeight; i++)
	{
		for (j = 0; j <Stru_Bitmap.usWidth; j+=2)
		{
			ulAddr = LCD_ACTIVE_BUFFER + (y + i) * SCR_XSIZE / 2 + (x + j) / 8 * 4 + 3 - ((x + j)%8) / 2;
			ulAddr1 =LCD_ACTIVE_BUFFER + (y + i) * SCR_XSIZE / 2 + (x + j + 1) / 8 * 4 + 3 - ((x + j + 1)%8) / 2;
 c0014f8:	e2039007 	and	r9, r3, #7
			if ((x + j)%2)
			{
				
				(*(INT8U*)ulAddr) &= 0xf0;
				(*(INT8U*)ulAddr) |= ((ucCursorBackUp[i][j/2] >> 4) & 0x0f);
 c0014fc:	e188822a 	orr	r8, r8, sl, lsr #4
 c001500:	e7c68004 	strb	r8, [r6, r4]
	for (i =  0; i < Stru_Bitmap.usHeight; i++)
	{
		for (j = 0; j <Stru_Bitmap.usWidth; j+=2)
		{
			ulAddr = LCD_ACTIVE_BUFFER + (y + i) * SCR_XSIZE / 2 + (x + j) / 8 * 4 + 3 - ((x + j)%8) / 2;
			ulAddr1 =LCD_ACTIVE_BUFFER + (y + i) * SCR_XSIZE / 2 + (x + j + 1) / 8 * 4 + 3 - ((x + j + 1)%8) / 2;
 c001504:	e1a031a3 	lsr	r3, r3, #3
 c001508:	e1a090a9 	lsr	r9, r9, #1
 c00150c:	e0813103 	add	r3, r1, r3, lsl #2
 c001510:	e2699000 	rsb	r9, r9, #0
			if ((x + j)%2)
			{
				
				(*(INT8U*)ulAddr) &= 0xf0;
				(*(INT8U*)ulAddr) |= ((ucCursorBackUp[i][j/2] >> 4) & 0x0f);
				(*(INT8U*)ulAddr1) &= 0x0f;
 c001514:	e7d34009 	ldrb	r4, [r3, r9]
 c001518:	e204400f 	and	r4, r4, #15
 c00151c:	e7c34009 	strb	r4, [r3, r9]
				(*(INT8U*)ulAddr1) |= ((ucCursorBackUp[i][j/2] << 4) & 0xf0);
 c001520:	e7d06007 	ldrb	r6, [r0, r7]
 c001524:	e1844206 	orr	r4, r4, r6, lsl #4
 c001528:	e7c34009 	strb	r4, [r3, r9]
	INT32U i, j;
	INT32U ulAddr, ulAddr1;

	for (i =  0; i < Stru_Bitmap.usHeight; i++)
	{
		for (j = 0; j <Stru_Bitmap.usWidth; j+=2)
 c00152c:	e59d6004 	ldr	r6, [sp, #4]
 c001530:	e2822002 	add	r2, r2, #2
 c001534:	e1520006 	cmp	r2, r6
 c001538:	e28c3002 	add	r3, ip, #2
 c00153c:	2a00000a 	bcs	c00156c <BitmapPop+0x23c>
		{
			ulAddr = LCD_ACTIVE_BUFFER + (y + i) * SCR_XSIZE / 2 + (x + j) / 8 * 4 + 3 - ((x + j)%8) / 2;
 c001540:	e2037007 	and	r7, r3, #7
 c001544:	e1a041a3 	lsr	r4, r3, #3
 c001548:	e1a060a7 	lsr	r6, r7, #1
			ulAddr1 =LCD_ACTIVE_BUFFER + (y + i) * SCR_XSIZE / 2 + (x + j + 1) / 8 * 4 + 3 - ((x + j + 1)%8) / 2;
			if ((x + j)%2)
 c00154c:	e3130001 	tst	r3, #1

	for (i =  0; i < Stru_Bitmap.usHeight; i++)
	{
		for (j = 0; j <Stru_Bitmap.usWidth; j+=2)
		{
			ulAddr = LCD_ACTIVE_BUFFER + (y + i) * SCR_XSIZE / 2 + (x + j) / 8 * 4 + 3 - ((x + j)%8) / 2;
 c001550:	e0814104 	add	r4, r1, r4, lsl #2
 c001554:	e266c000 	rsb	ip, r6, #0
			ulAddr1 =LCD_ACTIVE_BUFFER + (y + i) * SCR_XSIZE / 2 + (x + j + 1) / 8 * 4 + 3 - ((x + j + 1)%8) / 2;
			if ((x + j)%2)
 c001558:	1affffc4 	bne	c001470 <BitmapPop+0x140>
				(*(INT8U*)ulAddr1) &= 0x0f;
				(*(INT8U*)ulAddr1) |= ((ucCursorBackUp[i][j/2] << 4) & 0xf0);
			}
			else
			{
				(*(INT8U*)ulAddr) = ucCursorBackUp[i][j/2];
 c00155c:	e08590a2 	add	r9, r5, r2, lsr #1
 c001560:	e7d07009 	ldrb	r7, [r0, r9]
 c001564:	e7c4700c 	strb	r7, [r4, ip]
 c001568:	eaffffd3 	b	c0014bc <BitmapPop+0x18c>
 c00156c:	e59d6004 	ldr	r6, [sp, #4]
void BitmapPop(INT16U x, INT16U y, STRU_BITMAP Stru_Bitmap)
{
	INT32U i, j;
	INT32U ulAddr, ulAddr1;

	for (i =  0; i < Stru_Bitmap.usHeight; i++)
 c001570:	e59d5008 	ldr	r5, [sp, #8]
 c001574:	e28d2010 	add	r2, sp, #16
 c001578:	e8920084 	ldm	r2, {r2, r7}
 c00157c:	e2855001 	add	r5, r5, #1
 c001580:	e2829d05 	add	r9, r2, #320	; 0x140
 c001584:	e1570005 	cmp	r7, r5
 c001588:	e58d5008 	str	r5, [sp, #8]
 c00158c:	e58d9010 	str	r9, [sp, #16]
 c001590:	8affff77 	bhi	c001374 <BitmapPop+0x44>
				(*(INT8U*)ulAddr) = ucCursorBackUp[i][j/2];
			}
			
		}
	}
}
 c001594:	e28dd01c 	add	sp, sp, #28
 c001598:	e8bd07f0 	pop	{r4, r5, r6, r7, r8, r9, sl}
 c00159c:	e28dd008 	add	sp, sp, #8
 c0015a0:	e12fff1e 	bx	lr
				(*(INT8U*)ulAddr1) &= 0x0f;
				(*(INT8U*)ulAddr1) |= ((ucCursorBackUp[i][j/2] << 4) & 0xf0);
			}
			else
			{
				(*(INT8U*)ulAddr) = ucCursorBackUp[i][j/2];
 c0015a4:	e08570a2 	add	r7, r5, r2, lsr #1
 c0015a8:	e7d03007 	ldrb	r3, [r0, r7]
 c0015ac:	e7c63004 	strb	r3, [r6, r4]
 c0015b0:	eaffffdd 	b	c00152c <BitmapPop+0x1fc>
 c0015b4:	e7d07083 	ldrb	r7, [r0, r3, lsl #1]
 c0015b8:	e7cc7002 	strb	r7, [ip, r2]
 c0015bc:	eaffff94 	b	c001414 <BitmapPop+0xe4>
			ulAddr = LCD_ACTIVE_BUFFER + (y + i) * SCR_XSIZE / 2 + (x + j) / 8 * 4 + 3 - ((x + j)%8) / 2;
			ulAddr1 =LCD_ACTIVE_BUFFER + (y + i) * SCR_XSIZE / 2 + (x + j + 1) / 8 * 4 + 3 - ((x + j + 1)%8) / 2;
			if ((x + j)%2)
			{
				
				(*(INT8U*)ulAddr) &= 0xf0;
 c0015c0:	e7d4a00c 	ldrb	sl, [r4, ip]
 c0015c4:	e20a80f0 	and	r8, sl, #240	; 0xf0
 c0015c8:	e7c4800c 	strb	r8, [r4, ip]
				(*(INT8U*)ulAddr) |= ((ucCursorBackUp[i][j/2] >> 4) & 0x0f);
 c0015cc:	e285a001 	add	sl, r5, #1
 c0015d0:	e7d0900a 	ldrb	r9, [r0, sl]
	{
		for (j = 0; j <Stru_Bitmap.usWidth; j+=2)
		{
			ulAddr = LCD_ACTIVE_BUFFER + (y + i) * SCR_XSIZE / 2 + (x + j) / 8 * 4 + 3 - ((x + j)%8) / 2;
			ulAddr1 =LCD_ACTIVE_BUFFER + (y + i) * SCR_XSIZE / 2 + (x + j + 1) / 8 * 4 + 3 - ((x + j + 1)%8) / 2;
			if ((x + j)%2)
 c0015d4:	e59d700c 	ldr	r7, [sp, #12]
			{
				
				(*(INT8U*)ulAddr) &= 0xf0;
				(*(INT8U*)ulAddr) |= ((ucCursorBackUp[i][j/2] >> 4) & 0x0f);
 c0015d8:	e58d9004 	str	r9, [sp, #4]
 c0015dc:	e59d9004 	ldr	r9, [sp, #4]
	{
		for (j = 0; j <Stru_Bitmap.usWidth; j+=2)
		{
			ulAddr = LCD_ACTIVE_BUFFER + (y + i) * SCR_XSIZE / 2 + (x + j) / 8 * 4 + 3 - ((x + j)%8) / 2;
			ulAddr1 =LCD_ACTIVE_BUFFER + (y + i) * SCR_XSIZE / 2 + (x + j + 1) / 8 * 4 + 3 - ((x + j + 1)%8) / 2;
			if ((x + j)%2)
 c0015e0:	e2877003 	add	r7, r7, #3
			{
				
				(*(INT8U*)ulAddr) &= 0xf0;
				(*(INT8U*)ulAddr) |= ((ucCursorBackUp[i][j/2] >> 4) & 0x0f);
 c0015e4:	e1888229 	orr	r8, r8, r9, lsr #4
	for (i =  0; i < Stru_Bitmap.usHeight; i++)
	{
		for (j = 0; j <Stru_Bitmap.usWidth; j+=2)
		{
			ulAddr = LCD_ACTIVE_BUFFER + (y + i) * SCR_XSIZE / 2 + (x + j) / 8 * 4 + 3 - ((x + j)%8) / 2;
			ulAddr1 =LCD_ACTIVE_BUFFER + (y + i) * SCR_XSIZE / 2 + (x + j + 1) / 8 * 4 + 3 - ((x + j + 1)%8) / 2;
 c0015e8:	e2079007 	and	r9, r7, #7
			if ((x + j)%2)
			{
				
				(*(INT8U*)ulAddr) &= 0xf0;
				(*(INT8U*)ulAddr) |= ((ucCursorBackUp[i][j/2] >> 4) & 0x0f);
 c0015ec:	e7c4800c 	strb	r8, [r4, ip]
	for (i =  0; i < Stru_Bitmap.usHeight; i++)
	{
		for (j = 0; j <Stru_Bitmap.usWidth; j+=2)
		{
			ulAddr = LCD_ACTIVE_BUFFER + (y + i) * SCR_XSIZE / 2 + (x + j) / 8 * 4 + 3 - ((x + j)%8) / 2;
			ulAddr1 =LCD_ACTIVE_BUFFER + (y + i) * SCR_XSIZE / 2 + (x + j + 1) / 8 * 4 + 3 - ((x + j + 1)%8) / 2;
 c0015f0:	e1a041a7 	lsr	r4, r7, #3
 c0015f4:	e1a070a9 	lsr	r7, r9, #1
 c0015f8:	e267c000 	rsb	ip, r7, #0
 c0015fc:	e0814104 	add	r4, r1, r4, lsl #2
			if ((x + j)%2)
			{
				
				(*(INT8U*)ulAddr) &= 0xf0;
				(*(INT8U*)ulAddr) |= ((ucCursorBackUp[i][j/2] >> 4) & 0x0f);
				(*(INT8U*)ulAddr1) &= 0x0f;
 c001600:	e7d4800c 	ldrb	r8, [r4, ip]
 c001604:	e208900f 	and	r9, r8, #15
 c001608:	e7c4900c 	strb	r9, [r4, ip]
				(*(INT8U*)ulAddr1) |= ((ucCursorBackUp[i][j/2] << 4) & 0xf0);
 c00160c:	e7d0800a 	ldrb	r8, [r0, sl]
 c001610:	e1897208 	orr	r7, r9, r8, lsl #4
 c001614:	e7c4700c 	strb	r7, [r4, ip]
 c001618:	eaffff8e 	b	c001458 <BitmapPop+0x128>
 c00161c:	0c00cf2c 	.word	0x0c00cf2c

0c001620 <CursorInit>:
* ret:		none
* modify:
* comment:		
*********************************************************************************************/
void CursorInit(void)
{
 c001620:	e1a0c00d 	mov	ip, sp
 c001624:	e92ddff0 	push	{r4, r5, r6, r7, r8, r9, sl, fp, ip, lr, pc}
* modify:
* comment:		
*********************************************************************************************/
void CursorPush(INT16U x, INT16U y)
{
	BitmapPush(x, y, Stru_Bitmap_gbMouse);
 c001628:	e59f5268 	ldr	r5, [pc, #616]	; c001898 <CursorInit+0x278>
* ret:		none
* modify:
* comment:		
*********************************************************************************************/
void CursorInit(void)
{
 c00162c:	e24cb004 	sub	fp, ip, #4
 c001630:	e24dd01c 	sub	sp, sp, #28
* modify:
* comment:		
*********************************************************************************************/
void CursorPush(INT16U x, INT16U y)
{
	BitmapPush(x, y, Stru_Bitmap_gbMouse);
 c001634:	e2853008 	add	r3, r5, #8
 c001638:	e8930003 	ldm	r3, {r0, r1}
 c00163c:	e1a0200d 	mov	r2, sp
 c001640:	e8820003 	stm	r2, {r0, r1}
* modify:
* comment:		
*********************************************************************************************/
void CursorInit(void)
{
	ulMouseX = 0;
 c001644:	e59f4250 	ldr	r4, [pc, #592]	; c00189c <CursorInit+0x27c>
	ulMouseY = 0;
 c001648:	e59fc250 	ldr	ip, [pc, #592]	; c0018a0 <CursorInit+0x280>
* modify:
* comment:		
*********************************************************************************************/
void CursorPush(INT16U x, INT16U y)
{
	BitmapPush(x, y, Stru_Bitmap_gbMouse);
 c00164c:	e3a00000 	mov	r0, #0
* modify:
* comment:		
*********************************************************************************************/
void CursorInit(void)
{
	ulMouseX = 0;
 c001650:	e3a0e000 	mov	lr, #0
* modify:
* comment:		
*********************************************************************************************/
void CursorPush(INT16U x, INT16U y)
{
	BitmapPush(x, y, Stru_Bitmap_gbMouse);
 c001654:	e895000c 	ldm	r5, {r2, r3}
 c001658:	e1a01000 	mov	r1, r0
* modify:
* comment:		
*********************************************************************************************/
void CursorInit(void)
{
	ulMouseX = 0;
 c00165c:	e1c4e0b0 	strh	lr, [r4]
	ulMouseY = 0;
 c001660:	e1cce0b0 	strh	lr, [ip]
* modify:
* comment:		
*********************************************************************************************/
void CursorPush(INT16U x, INT16U y)
{
	BitmapPush(x, y, Stru_Bitmap_gbMouse);
 c001664:	ebfffe75 	bl	c001040 <BitmapPush>
void BitmapView (INT16U x, INT16U y, STRU_BITMAP Stru_Bitmap)
{
	INT32U i, j;
	INT8U ucColor;
	
	for (i =  0; i < Stru_Bitmap.usHeight; i++)
 c001668:	e1d500b4 	ldrh	r0, [r5, #4]
 c00166c:	e3500000 	cmp	r0, #0
 c001670:	e50b0038 	str	r0, [fp, #-56]	; 0xffffffc8
* modify:
* comment:		
*********************************************************************************************/
void CursorPush(INT16U x, INT16U y)
{
	BitmapPush(x, y, Stru_Bitmap_gbMouse);
 c001674:	e1d540b2 	ldrh	r4, [r5, #2]
 c001678:	e595300c 	ldr	r3, [r5, #12]
void BitmapView (INT16U x, INT16U y, STRU_BITMAP Stru_Bitmap)
{
	INT32U i, j;
	INT8U ucColor;
	
	for (i =  0; i < Stru_Bitmap.usHeight; i++)
 c00167c:	0a000082 	beq	c00188c <CursorInit+0x26c>
 c001680:	e3a01000 	mov	r1, #0
 c001684:	e50b1030 	str	r1, [fp, #-48]	; 0xffffffd0
 c001688:	e50b3034 	str	r3, [fp, #-52]	; 0xffffffcc
 c00168c:	e1a09001 	mov	r9, r1
	{
		for (j = 0; j <Stru_Bitmap.usWidth; j++)
		{
			if ((ucColor = *(INT8U*)(Stru_Bitmap.pucStart + i * Stru_Bitmap.usWidth + j)) != (TRANSPARENCY))
			{
				LCD_PutPixel( (x + j), (y + i), ucColor);
 c001690:	e3a0c20f 	mov	ip, #-268435456	; 0xf0000000
	INT32U i, j;
	INT8U ucColor;
	
	for (i =  0; i < Stru_Bitmap.usHeight; i++)
	{
		for (j = 0; j <Stru_Bitmap.usWidth; j++)
 c001694:	e3540000 	cmp	r4, #0
 c001698:	0a000071 	beq	c001864 <CursorInit+0x244>
		{
			if ((ucColor = *(INT8U*)(Stru_Bitmap.pucStart + i * Stru_Bitmap.usWidth + j)) != (TRANSPARENCY))
 c00169c:	e24b1034 	sub	r1, fp, #52	; 0x34
 c0016a0:	e8910006 	ldm	r1, {r1, r2}
 c0016a4:	e4d13001 	ldrb	r3, [r1], #1
			{
				LCD_PutPixel( (x + j), (y + i), ucColor);
 c0016a8:	e1a000a2 	lsr	r0, r2, #1
 c0016ac:	e28026c3 	add	r2, r0, #204472320	; 0xc300000
	
	for (i =  0; i < Stru_Bitmap.usHeight; i++)
	{
		for (j = 0; j <Stru_Bitmap.usWidth; j++)
		{
			if ((ucColor = *(INT8U*)(Stru_Bitmap.pucStart + i * Stru_Bitmap.usWidth + j)) != (TRANSPARENCY))
 c0016b0:	e35300ff 	cmp	r3, #255	; 0xff
 c0016b4:	e2440001 	sub	r0, r4, #1
			{
				LCD_PutPixel( (x + j), (y + i), ucColor);
 c0016b8:	e2822c96 	add	r2, r2, #38400	; 0x9600
 c0016bc:	e2000003 	and	r0, r0, #3
 c0016c0:	15925000 	ldrne	r5, [r2]
 c0016c4:	13c5520f 	bicne	r5, r5, #-268435456	; 0xf0000000
 c0016c8:	11853e03 	orrne	r3, r5, r3, lsl #28
 c0016cc:	15823000 	strne	r3, [r2]
	INT32U i, j;
	INT8U ucColor;
	
	for (i =  0; i < Stru_Bitmap.usHeight; i++)
	{
		for (j = 0; j <Stru_Bitmap.usWidth; j++)
 c0016d0:	e3a03001 	mov	r3, #1
 c0016d4:	e1530004 	cmp	r3, r4
 c0016d8:	2a000061 	bcs	c001864 <CursorInit+0x244>
 c0016dc:	e3500000 	cmp	r0, #0
 c0016e0:	0a000028 	beq	c001788 <CursorInit+0x168>
 c0016e4:	e1500003 	cmp	r0, r3
 c0016e8:	0a000016 	beq	c001748 <CursorInit+0x128>
 c0016ec:	e3500002 	cmp	r0, #2
 c0016f0:	0a000006 	beq	c001710 <CursorInit+0xf0>
		{
			if ((ucColor = *(INT8U*)(Stru_Bitmap.pucStart + i * Stru_Bitmap.usWidth + j)) != (TRANSPARENCY))
 c0016f4:	e4d10001 	ldrb	r0, [r1], #1
 c0016f8:	e35000ff 	cmp	r0, #255	; 0xff
			{
				LCD_PutPixel( (x + j), (y + i), ucColor);
 c0016fc:	15925000 	ldrne	r5, [r2]
 c001700:	13c5540f 	bicne	r5, r5, #251658240	; 0xf000000
 c001704:	11850c00 	orrne	r0, r5, r0, lsl #24
 c001708:	15820000 	strne	r0, [r2]
	INT32U i, j;
	INT8U ucColor;
	
	for (i =  0; i < Stru_Bitmap.usHeight; i++)
	{
		for (j = 0; j <Stru_Bitmap.usWidth; j++)
 c00170c:	e2833001 	add	r3, r3, #1
		{
			if ((ucColor = *(INT8U*)(Stru_Bitmap.pucStart + i * Stru_Bitmap.usWidth + j)) != (TRANSPARENCY))
 c001710:	e4d10001 	ldrb	r0, [r1], #1
 c001714:	e35000ff 	cmp	r0, #255	; 0xff
 c001718:	0a000009 	beq	c001744 <CursorInit+0x124>
			{
				LCD_PutPixel( (x + j), (y + i), ucColor);
 c00171c:	e1a051a3 	lsr	r5, r3, #3
 c001720:	e7927105 	ldr	r7, [r2, r5, lsl #2]
 c001724:	e2036007 	and	r6, r3, #7
 c001728:	e1a06106 	lsl	r6, r6, #2
 c00172c:	e1c7663c 	bic	r6, r7, ip, lsr r6
 c001730:	e1e07003 	mvn	r7, r3
 c001734:	e2077007 	and	r7, r7, #7
 c001738:	e1a07107 	lsl	r7, r7, #2
 c00173c:	e1860710 	orr	r0, r6, r0, lsl r7
 c001740:	e7820105 	str	r0, [r2, r5, lsl #2]
	INT32U i, j;
	INT8U ucColor;
	
	for (i =  0; i < Stru_Bitmap.usHeight; i++)
	{
		for (j = 0; j <Stru_Bitmap.usWidth; j++)
 c001744:	e2833001 	add	r3, r3, #1
		{
			if ((ucColor = *(INT8U*)(Stru_Bitmap.pucStart + i * Stru_Bitmap.usWidth + j)) != (TRANSPARENCY))
 c001748:	e4d10001 	ldrb	r0, [r1], #1
 c00174c:	e35000ff 	cmp	r0, #255	; 0xff
 c001750:	0a000009 	beq	c00177c <CursorInit+0x15c>
			{
				LCD_PutPixel( (x + j), (y + i), ucColor);
 c001754:	e1a051a3 	lsr	r5, r3, #3
 c001758:	e7927105 	ldr	r7, [r2, r5, lsl #2]
 c00175c:	e2036007 	and	r6, r3, #7
 c001760:	e1a06106 	lsl	r6, r6, #2
 c001764:	e1c7663c 	bic	r6, r7, ip, lsr r6
 c001768:	e1e07003 	mvn	r7, r3
 c00176c:	e2077007 	and	r7, r7, #7
 c001770:	e1a07107 	lsl	r7, r7, #2
 c001774:	e1860710 	orr	r0, r6, r0, lsl r7
 c001778:	e7820105 	str	r0, [r2, r5, lsl #2]
	INT32U i, j;
	INT8U ucColor;
	
	for (i =  0; i < Stru_Bitmap.usHeight; i++)
	{
		for (j = 0; j <Stru_Bitmap.usWidth; j++)
 c00177c:	e2833001 	add	r3, r3, #1
 c001780:	e1530004 	cmp	r3, r4
 c001784:	2a000036 	bcs	c001864 <CursorInit+0x244>
		{
			if ((ucColor = *(INT8U*)(Stru_Bitmap.pucStart + i * Stru_Bitmap.usWidth + j)) != (TRANSPARENCY))
			{
				LCD_PutPixel( (x + j), (y + i), ucColor);
 c001788:	e1e00003 	mvn	r0, r3
 c00178c:	e2006007 	and	r6, r0, #7
	
	for (i =  0; i < Stru_Bitmap.usHeight; i++)
	{
		for (j = 0; j <Stru_Bitmap.usWidth; j++)
		{
			if ((ucColor = *(INT8U*)(Stru_Bitmap.pucStart + i * Stru_Bitmap.usWidth + j)) != (TRANSPARENCY))
 c001790:	e4d10001 	ldrb	r0, [r1], #1
			{
				LCD_PutPixel( (x + j), (y + i), ucColor);
 c001794:	e1a051a3 	lsr	r5, r3, #3
	
	for (i =  0; i < Stru_Bitmap.usHeight; i++)
	{
		for (j = 0; j <Stru_Bitmap.usWidth; j++)
		{
			if ((ucColor = *(INT8U*)(Stru_Bitmap.pucStart + i * Stru_Bitmap.usWidth + j)) != (TRANSPARENCY))
 c001798:	e35000ff 	cmp	r0, #255	; 0xff
			{
				LCD_PutPixel( (x + j), (y + i), ucColor);
 c00179c:	17928105 	ldrne	r8, [r2, r5, lsl #2]
 c0017a0:	e2037007 	and	r7, r3, #7
 c0017a4:	e1a07107 	lsl	r7, r7, #2
 c0017a8:	11c8773c 	bicne	r7, r8, ip, lsr r7
 c0017ac:	e1a06106 	lsl	r6, r6, #2
 c0017b0:	11877610 	orrne	r7, r7, r0, lsl r6
 c0017b4:	17827105 	strne	r7, [r2, r5, lsl #2]
	INT32U i, j;
	INT8U ucColor;
	
	for (i =  0; i < Stru_Bitmap.usHeight; i++)
	{
		for (j = 0; j <Stru_Bitmap.usWidth; j++)
 c0017b8:	e2830001 	add	r0, r3, #1
		{
			if ((ucColor = *(INT8U*)(Stru_Bitmap.pucStart + i * Stru_Bitmap.usWidth + j)) != (TRANSPARENCY))
 c0017bc:	e5d13000 	ldrb	r3, [r1]
			{
				LCD_PutPixel( (x + j), (y + i), ucColor);
 c0017c0:	e1e08000 	mvn	r8, r0
 c0017c4:	e2007007 	and	r7, r0, #7
 c0017c8:	e2086007 	and	r6, r8, #7
	
	for (i =  0; i < Stru_Bitmap.usHeight; i++)
	{
		for (j = 0; j <Stru_Bitmap.usWidth; j++)
		{
			if ((ucColor = *(INT8U*)(Stru_Bitmap.pucStart + i * Stru_Bitmap.usWidth + j)) != (TRANSPARENCY))
 c0017cc:	e35300ff 	cmp	r3, #255	; 0xff
			{
				LCD_PutPixel( (x + j), (y + i), ucColor);
 c0017d0:	e1a051a0 	lsr	r5, r0, #3
 c0017d4:	e1a07107 	lsl	r7, r7, #2
 c0017d8:	e1a06106 	lsl	r6, r6, #2
 c0017dc:	17928105 	ldrne	r8, [r2, r5, lsl #2]
 c0017e0:	11c8773c 	bicne	r7, r8, ip, lsr r7
 c0017e4:	11878613 	orrne	r8, r7, r3, lsl r6
 c0017e8:	17828105 	strne	r8, [r2, r5, lsl #2]
	
	for (i =  0; i < Stru_Bitmap.usHeight; i++)
	{
		for (j = 0; j <Stru_Bitmap.usWidth; j++)
		{
			if ((ucColor = *(INT8U*)(Stru_Bitmap.pucStart + i * Stru_Bitmap.usWidth + j)) != (TRANSPARENCY))
 c0017ec:	e5d15001 	ldrb	r5, [r1, #1]
	INT32U i, j;
	INT8U ucColor;
	
	for (i =  0; i < Stru_Bitmap.usHeight; i++)
	{
		for (j = 0; j <Stru_Bitmap.usWidth; j++)
 c0017f0:	e2807001 	add	r7, r0, #1
		{
			if ((ucColor = *(INT8U*)(Stru_Bitmap.pucStart + i * Stru_Bitmap.usWidth + j)) != (TRANSPARENCY))
 c0017f4:	e35500ff 	cmp	r5, #255	; 0xff
			{
				LCD_PutPixel( (x + j), (y + i), ucColor);
 c0017f8:	e1a061a7 	lsr	r6, r7, #3
 c0017fc:	1792a106 	ldrne	sl, [r2, r6, lsl #2]
 c001800:	e2078007 	and	r8, r7, #7
 c001804:	e1a08108 	lsl	r8, r8, #2
 c001808:	11ca883c 	bicne	r8, sl, ip, lsr r8
 c00180c:	e1e07007 	mvn	r7, r7
 c001810:	e2077007 	and	r7, r7, #7
 c001814:	e1a07107 	lsl	r7, r7, #2
 c001818:	11888715 	orrne	r8, r8, r5, lsl r7
	INT32U i, j;
	INT8U ucColor;
	
	for (i =  0; i < Stru_Bitmap.usHeight; i++)
	{
		for (j = 0; j <Stru_Bitmap.usWidth; j++)
 c00181c:	e2803003 	add	r3, r0, #3
		{
			if ((ucColor = *(INT8U*)(Stru_Bitmap.pucStart + i * Stru_Bitmap.usWidth + j)) != (TRANSPARENCY))
			{
				LCD_PutPixel( (x + j), (y + i), ucColor);
 c001820:	17828106 	strne	r8, [r2, r6, lsl #2]
	INT32U i, j;
	INT8U ucColor;
	
	for (i =  0; i < Stru_Bitmap.usHeight; i++)
	{
		for (j = 0; j <Stru_Bitmap.usWidth; j++)
 c001824:	e2800002 	add	r0, r0, #2
		{
			if ((ucColor = *(INT8U*)(Stru_Bitmap.pucStart + i * Stru_Bitmap.usWidth + j)) != (TRANSPARENCY))
			{
				LCD_PutPixel( (x + j), (y + i), ucColor);
 c001828:	e1e05000 	mvn	r5, r0
 c00182c:	e1a061a0 	lsr	r6, r0, #3
 c001830:	e2007007 	and	r7, r0, #7
 c001834:	e2050007 	and	r0, r5, #7
	
	for (i =  0; i < Stru_Bitmap.usHeight; i++)
	{
		for (j = 0; j <Stru_Bitmap.usWidth; j++)
		{
			if ((ucColor = *(INT8U*)(Stru_Bitmap.pucStart + i * Stru_Bitmap.usWidth + j)) != (TRANSPARENCY))
 c001838:	e5d15002 	ldrb	r5, [r1, #2]
 c00183c:	e35500ff 	cmp	r5, #255	; 0xff
			{
				LCD_PutPixel( (x + j), (y + i), ucColor);
 c001840:	17928106 	ldrne	r8, [r2, r6, lsl #2]
 c001844:	e1a07107 	lsl	r7, r7, #2
 c001848:	11c8773c 	bicne	r7, r8, ip, lsr r7
 c00184c:	e1a00100 	lsl	r0, r0, #2
 c001850:	11877015 	orrne	r7, r7, r5, lsl r0
 c001854:	17827106 	strne	r7, [r2, r6, lsl #2]
	INT32U i, j;
	INT8U ucColor;
	
	for (i =  0; i < Stru_Bitmap.usHeight; i++)
	{
		for (j = 0; j <Stru_Bitmap.usWidth; j++)
 c001858:	e1530004 	cmp	r3, r4
		{
			if ((ucColor = *(INT8U*)(Stru_Bitmap.pucStart + i * Stru_Bitmap.usWidth + j)) != (TRANSPARENCY))
 c00185c:	e2811003 	add	r1, r1, #3
	INT32U i, j;
	INT8U ucColor;
	
	for (i =  0; i < Stru_Bitmap.usHeight; i++)
	{
		for (j = 0; j <Stru_Bitmap.usWidth; j++)
 c001860:	3affffc8 	bcc	c001788 <CursorInit+0x168>
void BitmapView (INT16U x, INT16U y, STRU_BITMAP Stru_Bitmap)
{
	INT32U i, j;
	INT8U ucColor;
	
	for (i =  0; i < Stru_Bitmap.usHeight; i++)
 c001864:	e51b2038 	ldr	r2, [fp, #-56]	; 0xffffffc8
 c001868:	e24b0034 	sub	r0, fp, #52	; 0x34
 c00186c:	e8900009 	ldm	r0, {r0, r3}
 c001870:	e2899001 	add	r9, r9, #1
 c001874:	e1520009 	cmp	r2, r9
 c001878:	e0801004 	add	r1, r0, r4
 c00187c:	e2832d05 	add	r2, r3, #320	; 0x140
 c001880:	e50b1034 	str	r1, [fp, #-52]	; 0xffffffcc
 c001884:	e50b2030 	str	r2, [fp, #-48]	; 0xffffffd0
 c001888:	8affff81 	bhi	c001694 <CursorInit+0x74>
void CursorInit(void)
{
	ulMouseX = 0;
	ulMouseY = 0;
	CursorView(ulMouseX, ulMouseY);
}
 c00188c:	e24bd028 	sub	sp, fp, #40	; 0x28
 c001890:	e89d6ff0 	ldm	sp, {r4, r5, r6, r7, r8, r9, sl, fp, sp, lr}
 c001894:	e12fff1e 	bx	lr
 c001898:	0c00ae04 	.word	0x0c00ae04
 c00189c:	0c00cfa6 	.word	0x0c00cfa6
 c0018a0:	0c00cfa4 	.word	0x0c00cfa4

0c0018a4 <CursorPush>:
* ret:		none
* modify:
* comment:		
*********************************************************************************************/
void CursorPush(INT16U x, INT16U y)
{
 c0018a4:	e1a0c00d 	mov	ip, sp
 c0018a8:	e92dd810 	push	{r4, fp, ip, lr, pc}
	BitmapPush(x, y, Stru_Bitmap_gbMouse);
 c0018ac:	e59f3038 	ldr	r3, [pc, #56]	; c0018ec <CursorPush+0x48>
* ret:		none
* modify:
* comment:		
*********************************************************************************************/
void CursorPush(INT16U x, INT16U y)
{
 c0018b0:	e24cb004 	sub	fp, ip, #4
 c0018b4:	e24dd00c 	sub	sp, sp, #12
	BitmapPush(x, y, Stru_Bitmap_gbMouse);
 c0018b8:	e2832008 	add	r2, r3, #8
* ret:		none
* modify:
* comment:		
*********************************************************************************************/
void CursorPush(INT16U x, INT16U y)
{
 c0018bc:	e1a0e000 	mov	lr, r0
 c0018c0:	e1a0c001 	mov	ip, r1
	BitmapPush(x, y, Stru_Bitmap_gbMouse);
 c0018c4:	e8920003 	ldm	r2, {r0, r1}
 c0018c8:	e1a0400d 	mov	r4, sp
 c0018cc:	e893000c 	ldm	r3, {r2, r3}
 c0018d0:	e8840003 	stm	r4, {r0, r1}
 c0018d4:	e1a0000e 	mov	r0, lr
 c0018d8:	e1a0100c 	mov	r1, ip
 c0018dc:	ebfffdd7 	bl	c001040 <BitmapPush>
}
 c0018e0:	e24bd010 	sub	sp, fp, #16
 c0018e4:	e89d6810 	ldm	sp, {r4, fp, sp, lr}
 c0018e8:	e12fff1e 	bx	lr
 c0018ec:	0c00ae04 	.word	0x0c00ae04

0c0018f0 <CursorPop>:
* ret:		none
* modify:
* comment:		
*********************************************************************************************/
void CursorPop()
{
 c0018f0:	e1a0c00d 	mov	ip, sp
 c0018f4:	e92dd800 	push	{fp, ip, lr, pc}
	BitmapPop(ulMouseX, ulMouseY, Stru_Bitmap_gbMouse);
 c0018f8:	e59f3040 	ldr	r3, [pc, #64]	; c001940 <CursorPop+0x50>
* ret:		none
* modify:
* comment:		
*********************************************************************************************/
void CursorPop()
{
 c0018fc:	e24cb004 	sub	fp, ip, #4
 c001900:	e24dd008 	sub	sp, sp, #8
	BitmapPop(ulMouseX, ulMouseY, Stru_Bitmap_gbMouse);
 c001904:	e2830008 	add	r0, r3, #8
 c001908:	e8900003 	ldm	r0, {r0, r1}
 c00190c:	e59fe030 	ldr	lr, [pc, #48]	; c001944 <CursorPop+0x54>
 c001910:	e59fc030 	ldr	ip, [pc, #48]	; c001948 <CursorPop+0x58>
 c001914:	e1a0200d 	mov	r2, sp
 c001918:	e1dee0b0 	ldrh	lr, [lr]
 c00191c:	e1dcc0b0 	ldrh	ip, [ip]
 c001920:	e8820003 	stm	r2, {r0, r1}
 c001924:	e1a0000e 	mov	r0, lr
 c001928:	e893000c 	ldm	r3, {r2, r3}
 c00192c:	e1a0100c 	mov	r1, ip
 c001930:	ebfffe7e 	bl	c001330 <BitmapPop>
}
 c001934:	e24bd00c 	sub	sp, fp, #12
 c001938:	e89d6800 	ldm	sp, {fp, sp, lr}
 c00193c:	e12fff1e 	bx	lr
 c001940:	0c00ae04 	.word	0x0c00ae04
 c001944:	0c00cfa6 	.word	0x0c00cfa6
 c001948:	0c00cfa4 	.word	0x0c00cfa4

0c00194c <CursorView>:
* ret:		none
* modify:
* comment:		
*********************************************************************************************/
void CursorView(INT16U x, INT16U y)
{
 c00194c:	e1a0c00d 	mov	ip, sp
 c001950:	e92ddff0 	push	{r4, r5, r6, r7, r8, r9, sl, fp, ip, lr, pc}
* modify:
* comment:		
*********************************************************************************************/
void CursorPush(INT16U x, INT16U y)
{
	BitmapPush(x, y, Stru_Bitmap_gbMouse);
 c001954:	e59f42e0 	ldr	r4, [pc, #736]	; c001c3c <CursorView+0x2f0>
* ret:		none
* modify:
* comment:		
*********************************************************************************************/
void CursorView(INT16U x, INT16U y)
{
 c001958:	e24cb004 	sub	fp, ip, #4
 c00195c:	e24dd02c 	sub	sp, sp, #44	; 0x2c
* modify:
* comment:		
*********************************************************************************************/
void CursorPush(INT16U x, INT16U y)
{
	BitmapPush(x, y, Stru_Bitmap_gbMouse);
 c001960:	e2843008 	add	r3, r4, #8
* ret:		none
* modify:
* comment:		
*********************************************************************************************/
void CursorView(INT16U x, INT16U y)
{
 c001964:	e50b0030 	str	r0, [fp, #-48]	; 0xffffffd0
 c001968:	e1a05001 	mov	r5, r1
* modify:
* comment:		
*********************************************************************************************/
void CursorPush(INT16U x, INT16U y)
{
	BitmapPush(x, y, Stru_Bitmap_gbMouse);
 c00196c:	e8930003 	ldm	r3, {r0, r1}
 c001970:	e1a0800d 	mov	r8, sp
 c001974:	e894000c 	ldm	r4, {r2, r3}
 c001978:	e8880003 	stm	r8, {r0, r1}
 c00197c:	e1a01005 	mov	r1, r5
 c001980:	e51b0030 	ldr	r0, [fp, #-48]	; 0xffffffd0
 c001984:	ebfffdad 	bl	c001040 <BitmapPush>
void BitmapView (INT16U x, INT16U y, STRU_BITMAP Stru_Bitmap)
{
	INT32U i, j;
	INT8U ucColor;
	
	for (i =  0; i < Stru_Bitmap.usHeight; i++)
 c001988:	e1d4c0b4 	ldrh	ip, [r4, #4]
* modify:
* comment:		
*********************************************************************************************/
void CursorPush(INT16U x, INT16U y)
{
	BitmapPush(x, y, Stru_Bitmap_gbMouse);
 c00198c:	e1d400b2 	ldrh	r0, [r4, #2]
void BitmapView (INT16U x, INT16U y, STRU_BITMAP Stru_Bitmap)
{
	INT32U i, j;
	INT8U ucColor;
	
	for (i =  0; i < Stru_Bitmap.usHeight; i++)
 c001990:	e35c0000 	cmp	ip, #0
 c001994:	e50bc048 	str	ip, [fp, #-72]	; 0xffffffb8
* modify:
* comment:		
*********************************************************************************************/
void CursorPush(INT16U x, INT16U y)
{
	BitmapPush(x, y, Stru_Bitmap_gbMouse);
 c001998:	e50b0040 	str	r0, [fp, #-64]	; 0xffffffc0
 c00199c:	e594300c 	ldr	r3, [r4, #12]
void BitmapView (INT16U x, INT16U y, STRU_BITMAP Stru_Bitmap)
{
	INT32U i, j;
	INT8U ucColor;
	
	for (i =  0; i < Stru_Bitmap.usHeight; i++)
 c0019a0:	0a0000a2 	beq	c001c30 <CursorView+0x2e4>
	{
		for (j = 0; j <Stru_Bitmap.usWidth; j++)
		{
			if ((ucColor = *(INT8U*)(Stru_Bitmap.pucStart + i * Stru_Bitmap.usWidth + j)) != (TRANSPARENCY))
			{
				LCD_PutPixel( (x + j), (y + i), ucColor);
 c0019a4:	e51b2030 	ldr	r2, [fp, #-48]	; 0xffffffd0
void BitmapView (INT16U x, INT16U y, STRU_BITMAP Stru_Bitmap)
{
	INT32U i, j;
	INT8U ucColor;
	
	for (i =  0; i < Stru_Bitmap.usHeight; i++)
 c0019a8:	e0858105 	add	r8, r5, r5, lsl #2
	{
		for (j = 0; j <Stru_Bitmap.usWidth; j++)
		{
			if ((ucColor = *(INT8U*)(Stru_Bitmap.pucStart + i * Stru_Bitmap.usWidth + j)) != (TRANSPARENCY))
			{
				LCD_PutPixel( (x + j), (y + i), ucColor);
 c0019ac:	e1e01002 	mvn	r1, r2
* para:		none
* ret:		none
* modify:
* comment:		
*********************************************************************************************/
void CursorView(INT16U x, INT16U y)
 c0019b0:	e51b5030 	ldr	r5, [fp, #-48]	; 0xffffffd0
void BitmapView (INT16U x, INT16U y, STRU_BITMAP Stru_Bitmap)
{
	INT32U i, j;
	INT8U ucColor;
	
	for (i =  0; i < Stru_Bitmap.usHeight; i++)
 c0019b4:	e1a07308 	lsl	r7, r8, #6
 c0019b8:	e3a04000 	mov	r4, #0
 c0019bc:	e50b3038 	str	r3, [fp, #-56]	; 0xffffffc8
	{
		for (j = 0; j <Stru_Bitmap.usWidth; j++)
		{
			if ((ucColor = *(INT8U*)(Stru_Bitmap.pucStart + i * Stru_Bitmap.usWidth + j)) != (TRANSPARENCY))
			{
				LCD_PutPixel( (x + j), (y + i), ucColor);
 c0019c0:	e50b1044 	str	r1, [fp, #-68]	; 0xffffffbc
void BitmapView (INT16U x, INT16U y, STRU_BITMAP Stru_Bitmap)
{
	INT32U i, j;
	INT8U ucColor;
	
	for (i =  0; i < Stru_Bitmap.usHeight; i++)
 c0019c4:	e50b703c 	str	r7, [fp, #-60]	; 0xffffffc4
 c0019c8:	e50b4034 	str	r4, [fp, #-52]	; 0xffffffcc
* para:		none
* ret:		none
* modify:
* comment:		
*********************************************************************************************/
void CursorView(INT16U x, INT16U y)
 c0019cc:	e0807005 	add	r7, r0, r5
	{
		for (j = 0; j <Stru_Bitmap.usWidth; j++)
		{
			if ((ucColor = *(INT8U*)(Stru_Bitmap.pucStart + i * Stru_Bitmap.usWidth + j)) != (TRANSPARENCY))
			{
				LCD_PutPixel( (x + j), (y + i), ucColor);
 c0019d0:	e3a0420f 	mov	r4, #-268435456	; 0xf0000000
	INT32U i, j;
	INT8U ucColor;
	
	for (i =  0; i < Stru_Bitmap.usHeight; i++)
	{
		for (j = 0; j <Stru_Bitmap.usWidth; j++)
 c0019d4:	e51b5040 	ldr	r5, [fp, #-64]	; 0xffffffc0
 c0019d8:	e3550000 	cmp	r5, #0
 c0019dc:	0a000086 	beq	c001bfc <CursorView+0x2b0>
		{
			if ((ucColor = *(INT8U*)(Stru_Bitmap.pucStart + i * Stru_Bitmap.usWidth + j)) != (TRANSPARENCY))
			{
				LCD_PutPixel( (x + j), (y + i), ucColor);
 c0019e0:	e51bc03c 	ldr	ip, [fp, #-60]	; 0xffffffc4
	
	for (i =  0; i < Stru_Bitmap.usHeight; i++)
	{
		for (j = 0; j <Stru_Bitmap.usWidth; j++)
		{
			if ((ucColor = *(INT8U*)(Stru_Bitmap.pucStart + i * Stru_Bitmap.usWidth + j)) != (TRANSPARENCY))
 c0019e4:	e51b1038 	ldr	r1, [fp, #-56]	; 0xffffffc8
			{
				LCD_PutPixel( (x + j), (y + i), ucColor);
 c0019e8:	e1a080ac 	lsr	r8, ip, #1
 c0019ec:	e51bc030 	ldr	ip, [fp, #-48]	; 0xffffffd0
	
	for (i =  0; i < Stru_Bitmap.usHeight; i++)
	{
		for (j = 0; j <Stru_Bitmap.usWidth; j++)
		{
			if ((ucColor = *(INT8U*)(Stru_Bitmap.pucStart + i * Stru_Bitmap.usWidth + j)) != (TRANSPARENCY))
 c0019f0:	e4d13001 	ldrb	r3, [r1], #1
 c0019f4:	e1e0000c 	mvn	r0, ip
			{
				LCD_PutPixel( (x + j), (y + i), ucColor);
 c0019f8:	e28826c3 	add	r2, r8, #204472320	; 0xc300000
 c0019fc:	e080e007 	add	lr, r0, r7
	
	for (i =  0; i < Stru_Bitmap.usHeight; i++)
	{
		for (j = 0; j <Stru_Bitmap.usWidth; j++)
		{
			if ((ucColor = *(INT8U*)(Stru_Bitmap.pucStart + i * Stru_Bitmap.usWidth + j)) != (TRANSPARENCY))
 c001a00:	e35300ff 	cmp	r3, #255	; 0xff
			{
				LCD_PutPixel( (x + j), (y + i), ucColor);
 c001a04:	e2822c96 	add	r2, r2, #38400	; 0x9600
 c001a08:	e20e0003 	and	r0, lr, #3
 c001a0c:	051b5044 	ldreq	r5, [fp, #-68]	; 0xffffffbc
	
	for (i =  0; i < Stru_Bitmap.usHeight; i++)
	{
		for (j = 0; j <Stru_Bitmap.usWidth; j++)
		{
			if ((ucColor = *(INT8U*)(Stru_Bitmap.pucStart + i * Stru_Bitmap.usWidth + j)) != (TRANSPARENCY))
 c001a10:	0a00000b 	beq	c001a44 <CursorView+0xf8>
 c001a14:	e1a0600c 	mov	r6, ip
			{
				LCD_PutPixel( (x + j), (y + i), ucColor);
 c001a18:	e1a081ac 	lsr	r8, ip, #3
 c001a1c:	e2065007 	and	r5, r6, #7
 c001a20:	e792c108 	ldr	ip, [r2, r8, lsl #2]
 c001a24:	e1a0e105 	lsl	lr, r5, #2
 c001a28:	e1ccce34 	bic	ip, ip, r4, lsr lr
 c001a2c:	e51be044 	ldr	lr, [fp, #-68]	; 0xffffffbc
 c001a30:	e20e6007 	and	r6, lr, #7
 c001a34:	e1a06106 	lsl	r6, r6, #2
 c001a38:	e18c5613 	orr	r5, ip, r3, lsl r6
 c001a3c:	e7825108 	str	r5, [r2, r8, lsl #2]
 c001a40:	e1a0500e 	mov	r5, lr
 c001a44:	e51b3030 	ldr	r3, [fp, #-48]	; 0xffffffd0
 c001a48:	e2833001 	add	r3, r3, #1
	INT32U i, j;
	INT8U ucColor;
	
	for (i =  0; i < Stru_Bitmap.usHeight; i++)
	{
		for (j = 0; j <Stru_Bitmap.usWidth; j++)
 c001a4c:	e1530007 	cmp	r3, r7
		{
			if ((ucColor = *(INT8U*)(Stru_Bitmap.pucStart + i * Stru_Bitmap.usWidth + j)) != (TRANSPARENCY))
			{
				LCD_PutPixel( (x + j), (y + i), ucColor);
 c001a50:	e245c001 	sub	ip, r5, #1
	INT32U i, j;
	INT8U ucColor;
	
	for (i =  0; i < Stru_Bitmap.usHeight; i++)
	{
		for (j = 0; j <Stru_Bitmap.usWidth; j++)
 c001a54:	0a000068 	beq	c001bfc <CursorView+0x2b0>
 c001a58:	e3500000 	cmp	r0, #0
 c001a5c:	0a00002f 	beq	c001b20 <CursorView+0x1d4>
 c001a60:	e3500001 	cmp	r0, #1
 c001a64:	0a00001d 	beq	c001ae0 <CursorView+0x194>
 c001a68:	e3500002 	cmp	r0, #2
 c001a6c:	0a00000d 	beq	c001aa8 <CursorView+0x15c>
		{
			if ((ucColor = *(INT8U*)(Stru_Bitmap.pucStart + i * Stru_Bitmap.usWidth + j)) != (TRANSPARENCY))
 c001a70:	e4d10001 	ldrb	r0, [r1], #1
 c001a74:	e35000ff 	cmp	r0, #255	; 0xff
 c001a78:	0a000008 	beq	c001aa0 <CursorView+0x154>
			{
				LCD_PutPixel( (x + j), (y + i), ucColor);
 c001a7c:	e1a051a3 	lsr	r5, r3, #3
 c001a80:	e7928105 	ldr	r8, [r2, r5, lsl #2]
 c001a84:	e203e007 	and	lr, r3, #7
 c001a88:	e1a0610e 	lsl	r6, lr, #2
 c001a8c:	e1c86634 	bic	r6, r8, r4, lsr r6
 c001a90:	e20ce007 	and	lr, ip, #7
 c001a94:	e1a0810e 	lsl	r8, lr, #2
 c001a98:	e1860810 	orr	r0, r6, r0, lsl r8
 c001a9c:	e7820105 	str	r0, [r2, r5, lsl #2]
 c001aa0:	e2833001 	add	r3, r3, #1
 c001aa4:	e24cc001 	sub	ip, ip, #1
	
	for (i =  0; i < Stru_Bitmap.usHeight; i++)
	{
		for (j = 0; j <Stru_Bitmap.usWidth; j++)
		{
			if ((ucColor = *(INT8U*)(Stru_Bitmap.pucStart + i * Stru_Bitmap.usWidth + j)) != (TRANSPARENCY))
 c001aa8:	e4d10001 	ldrb	r0, [r1], #1
 c001aac:	e35000ff 	cmp	r0, #255	; 0xff
 c001ab0:	0a000008 	beq	c001ad8 <CursorView+0x18c>
			{
				LCD_PutPixel( (x + j), (y + i), ucColor);
 c001ab4:	e1a051a3 	lsr	r5, r3, #3
 c001ab8:	e7928105 	ldr	r8, [r2, r5, lsl #2]
 c001abc:	e203e007 	and	lr, r3, #7
 c001ac0:	e1a0610e 	lsl	r6, lr, #2
 c001ac4:	e1c86634 	bic	r6, r8, r4, lsr r6
 c001ac8:	e20ce007 	and	lr, ip, #7
 c001acc:	e1a0810e 	lsl	r8, lr, #2
 c001ad0:	e1860810 	orr	r0, r6, r0, lsl r8
 c001ad4:	e7820105 	str	r0, [r2, r5, lsl #2]
 c001ad8:	e2833001 	add	r3, r3, #1
 c001adc:	e24cc001 	sub	ip, ip, #1
	
	for (i =  0; i < Stru_Bitmap.usHeight; i++)
	{
		for (j = 0; j <Stru_Bitmap.usWidth; j++)
		{
			if ((ucColor = *(INT8U*)(Stru_Bitmap.pucStart + i * Stru_Bitmap.usWidth + j)) != (TRANSPARENCY))
 c001ae0:	e4d10001 	ldrb	r0, [r1], #1
 c001ae4:	e35000ff 	cmp	r0, #255	; 0xff
 c001ae8:	0a000008 	beq	c001b10 <CursorView+0x1c4>
			{
				LCD_PutPixel( (x + j), (y + i), ucColor);
 c001aec:	e1a051a3 	lsr	r5, r3, #3
 c001af0:	e7928105 	ldr	r8, [r2, r5, lsl #2]
 c001af4:	e203e007 	and	lr, r3, #7
 c001af8:	e1a0610e 	lsl	r6, lr, #2
 c001afc:	e1c86634 	bic	r6, r8, r4, lsr r6
 c001b00:	e20ce007 	and	lr, ip, #7
 c001b04:	e1a0810e 	lsl	r8, lr, #2
 c001b08:	e1860810 	orr	r0, r6, r0, lsl r8
 c001b0c:	e7820105 	str	r0, [r2, r5, lsl #2]
 c001b10:	e2833001 	add	r3, r3, #1
	INT32U i, j;
	INT8U ucColor;
	
	for (i =  0; i < Stru_Bitmap.usHeight; i++)
	{
		for (j = 0; j <Stru_Bitmap.usWidth; j++)
 c001b14:	e1530007 	cmp	r3, r7
		{
			if ((ucColor = *(INT8U*)(Stru_Bitmap.pucStart + i * Stru_Bitmap.usWidth + j)) != (TRANSPARENCY))
			{
				LCD_PutPixel( (x + j), (y + i), ucColor);
 c001b18:	e24cc001 	sub	ip, ip, #1
	INT32U i, j;
	INT8U ucColor;
	
	for (i =  0; i < Stru_Bitmap.usHeight; i++)
	{
		for (j = 0; j <Stru_Bitmap.usWidth; j++)
 c001b1c:	0a000036 	beq	c001bfc <CursorView+0x2b0>
		{
			if ((ucColor = *(INT8U*)(Stru_Bitmap.pucStart + i * Stru_Bitmap.usWidth + j)) != (TRANSPARENCY))
 c001b20:	e4d10001 	ldrb	r0, [r1], #1
			{
				LCD_PutPixel( (x + j), (y + i), ucColor);
 c001b24:	e1a0e1a3 	lsr	lr, r3, #3
	
	for (i =  0; i < Stru_Bitmap.usHeight; i++)
	{
		for (j = 0; j <Stru_Bitmap.usWidth; j++)
		{
			if ((ucColor = *(INT8U*)(Stru_Bitmap.pucStart + i * Stru_Bitmap.usWidth + j)) != (TRANSPARENCY))
 c001b28:	e35000ff 	cmp	r0, #255	; 0xff
			{
				LCD_PutPixel( (x + j), (y + i), ucColor);
 c001b2c:	e2039007 	and	r9, r3, #7
 c001b30:	1792a10e 	ldrne	sl, [r2, lr, lsl #2]
 c001b34:	e1a05109 	lsl	r5, r9, #2
 c001b38:	11ca5534 	bicne	r5, sl, r4, lsr r5
 c001b3c:	e20c6007 	and	r6, ip, #7
 c001b40:	e1a08106 	lsl	r8, r6, #2
 c001b44:	11855810 	orrne	r5, r5, r0, lsl r8
 c001b48:	1782510e 	strne	r5, [r2, lr, lsl #2]
 c001b4c:	e2830001 	add	r0, r3, #1
	
	for (i =  0; i < Stru_Bitmap.usHeight; i++)
	{
		for (j = 0; j <Stru_Bitmap.usWidth; j++)
		{
			if ((ucColor = *(INT8U*)(Stru_Bitmap.pucStart + i * Stru_Bitmap.usWidth + j)) != (TRANSPARENCY))
 c001b50:	e5d13000 	ldrb	r3, [r1]
			{
				LCD_PutPixel( (x + j), (y + i), ucColor);
 c001b54:	e24cc001 	sub	ip, ip, #1
 c001b58:	e2009007 	and	r9, r0, #7
 c001b5c:	e20c6007 	and	r6, ip, #7
	
	for (i =  0; i < Stru_Bitmap.usHeight; i++)
	{
		for (j = 0; j <Stru_Bitmap.usWidth; j++)
		{
			if ((ucColor = *(INT8U*)(Stru_Bitmap.pucStart + i * Stru_Bitmap.usWidth + j)) != (TRANSPARENCY))
 c001b60:	e35300ff 	cmp	r3, #255	; 0xff
			{
				LCD_PutPixel( (x + j), (y + i), ucColor);
 c001b64:	e1a051a0 	lsr	r5, r0, #3
 c001b68:	e1a08109 	lsl	r8, r9, #2
 c001b6c:	e1a06106 	lsl	r6, r6, #2
 c001b70:	1792a105 	ldrne	sl, [r2, r5, lsl #2]
 c001b74:	11ca8834 	bicne	r8, sl, r4, lsr r8
 c001b78:	11889613 	orrne	r9, r8, r3, lsl r6
 c001b7c:	17829105 	strne	r9, [r2, r5, lsl #2]
	
	for (i =  0; i < Stru_Bitmap.usHeight; i++)
	{
		for (j = 0; j <Stru_Bitmap.usWidth; j++)
		{
			if ((ucColor = *(INT8U*)(Stru_Bitmap.pucStart + i * Stru_Bitmap.usWidth + j)) != (TRANSPARENCY))
 c001b80:	e5d1e001 	ldrb	lr, [r1, #1]
			{
				LCD_PutPixel( (x + j), (y + i), ucColor);
 c001b84:	e2809001 	add	r9, r0, #1
	
	for (i =  0; i < Stru_Bitmap.usHeight; i++)
	{
		for (j = 0; j <Stru_Bitmap.usWidth; j++)
		{
			if ((ucColor = *(INT8U*)(Stru_Bitmap.pucStart + i * Stru_Bitmap.usWidth + j)) != (TRANSPARENCY))
 c001b88:	e35e00ff 	cmp	lr, #255	; 0xff
			{
				LCD_PutPixel( (x + j), (y + i), ucColor);
 c001b8c:	e1a061a9 	lsr	r6, r9, #3
 c001b90:	1792a106 	ldrne	sl, [r2, r6, lsl #2]
 c001b94:	e2098007 	and	r8, r9, #7
 c001b98:	e1a08108 	lsl	r8, r8, #2
 c001b9c:	11ca8834 	bicne	r8, sl, r4, lsr r8
 c001ba0:	e24c5001 	sub	r5, ip, #1
 c001ba4:	e2059007 	and	r9, r5, #7
 c001ba8:	e1a09109 	lsl	r9, r9, #2
 c001bac:	1188891e 	orrne	r8, r8, lr, lsl r9
 c001bb0:	e2803003 	add	r3, r0, #3
 c001bb4:	17828106 	strne	r8, [r2, r6, lsl #2]
 c001bb8:	e2800002 	add	r0, r0, #2
 c001bbc:	e2005007 	and	r5, r0, #7
 c001bc0:	e1a061a0 	lsr	r6, r0, #3
 c001bc4:	e1a00105 	lsl	r0, r5, #2
	
	for (i =  0; i < Stru_Bitmap.usHeight; i++)
	{
		for (j = 0; j <Stru_Bitmap.usWidth; j++)
		{
			if ((ucColor = *(INT8U*)(Stru_Bitmap.pucStart + i * Stru_Bitmap.usWidth + j)) != (TRANSPARENCY))
 c001bc8:	e5d15002 	ldrb	r5, [r1, #2]
 c001bcc:	e35500ff 	cmp	r5, #255	; 0xff
			{
				LCD_PutPixel( (x + j), (y + i), ucColor);
 c001bd0:	1792a106 	ldrne	sl, [r2, r6, lsl #2]
 c001bd4:	11ca0034 	bicne	r0, sl, r4, lsr r0
 c001bd8:	e24ce002 	sub	lr, ip, #2
 c001bdc:	e20e8007 	and	r8, lr, #7
 c001be0:	e1a0e108 	lsl	lr, r8, #2
 c001be4:	11800e15 	orrne	r0, r0, r5, lsl lr
 c001be8:	17820106 	strne	r0, [r2, r6, lsl #2]
	INT32U i, j;
	INT8U ucColor;
	
	for (i =  0; i < Stru_Bitmap.usHeight; i++)
	{
		for (j = 0; j <Stru_Bitmap.usWidth; j++)
 c001bec:	e1530007 	cmp	r3, r7
		{
			if ((ucColor = *(INT8U*)(Stru_Bitmap.pucStart + i * Stru_Bitmap.usWidth + j)) != (TRANSPARENCY))
 c001bf0:	e2811003 	add	r1, r1, #3
			{
				LCD_PutPixel( (x + j), (y + i), ucColor);
 c001bf4:	e24cc003 	sub	ip, ip, #3
	INT32U i, j;
	INT8U ucColor;
	
	for (i =  0; i < Stru_Bitmap.usHeight; i++)
	{
		for (j = 0; j <Stru_Bitmap.usWidth; j++)
 c001bf8:	1affffc8 	bne	c001b20 <CursorView+0x1d4>
void BitmapView (INT16U x, INT16U y, STRU_BITMAP Stru_Bitmap)
{
	INT32U i, j;
	INT8U ucColor;
	
	for (i =  0; i < Stru_Bitmap.usHeight; i++)
 c001bfc:	e51b8034 	ldr	r8, [fp, #-52]	; 0xffffffcc
 c001c00:	e24b303c 	sub	r3, fp, #60	; 0x3c
 c001c04:	e8934008 	ldm	r3, {r3, lr}
 c001c08:	e51b0048 	ldr	r0, [fp, #-72]	; 0xffffffb8
 c001c0c:	e51b2040 	ldr	r2, [fp, #-64]	; 0xffffffc0
 c001c10:	e2888001 	add	r8, r8, #1
 c001c14:	e08e1002 	add	r1, lr, r2
 c001c18:	e283cd05 	add	ip, r3, #320	; 0x140
 c001c1c:	e1580000 	cmp	r8, r0
 c001c20:	e50b8034 	str	r8, [fp, #-52]	; 0xffffffcc
 c001c24:	e50b1038 	str	r1, [fp, #-56]	; 0xffffffc8
 c001c28:	e50bc03c 	str	ip, [fp, #-60]	; 0xffffffc4
 c001c2c:	3affff68 	bcc	c0019d4 <CursorView+0x88>
*********************************************************************************************/
void CursorView(INT16U x, INT16U y)
{
	CursorPush(x, y);
	BitmapView(x, y, Stru_Bitmap_gbMouse);
}
 c001c30:	e24bd028 	sub	sp, fp, #40	; 0x28
 c001c34:	e89d6ff0 	ldm	sp, {r4, r5, r6, r7, r8, r9, sl, fp, sp, lr}
 c001c38:	e12fff1e 	bx	lr
 c001c3c:	0c00ae04 	.word	0x0c00ae04

0c001c40 <patron_volteo_arm_c>:

.global patron_volteo_arm_c

patron_volteo_arm_c:

		mov r12, sp //prologo
 c001c40:	e1a0c00d 	mov	ip, sp
		push {r4-r10,r11, r12, lr, pc}
 c001c44:	e92ddff0 	push	{r4, r5, r6, r7, r8, r9, sl, fp, ip, lr, pc}
		sub r11, r12, #4
 c001c48:	e24cb004 	sub	fp, ip, #4
		sub sp, sp, #24
 c001c4c:	e24dd018 	sub	sp, sp, #24
		str r0, [r11, #-52]
 c001c50:	e50b0034 	str	r0, [fp, #-52]	; 0xffffffcc
		str r1, [r11, #-56]
 c001c54:	e50b1038 	str	r1, [fp, #-56]	; 0xffffffc8
		strb r2, [r11, #-57]
 c001c58:	e54b2039 	strb	r2, [fp, #-57]	; 0xffffffc7
		strb r3, [r11, #-58]
 c001c5c:	e54b303a 	strb	r3, [fp, #-58]	; 0xffffffc6
		
		mov r6,r1
 c001c60:	e1a06001 	mov	r6, r1
		ldrb r4, [r11, #4] //FA=FA+SF
 c001c64:	e5db4004 	ldrb	r4, [fp, #4]
		add r1,r2,r4
 c001c68:	e0821004 	add	r1, r2, r4
		bic r1,r1,#256//convertir a char
 c001c6c:	e3c11c01 	bic	r1, r1, #256	; 0x100
		ldrb r5, [r11, #8] //CA=CA+SC
 c001c70:	e5db5008 	ldrb	r5, [fp, #8]
		add r2,r3,r5
 c001c74:	e0832005 	add	r2, r3, r5
		bic r2,r2,#256
 c001c78:	e3c22c01 	bic	r2, r2, #256	; 0x100
		
		mov r8,r1 //casilla = ficha_valida(tablero, FA, CA, &posicion_valida);
 c001c7c:	e1a08001 	mov	r8, r1
		mov r9,r2
 c001c80:	e1a09002 	mov	r9, r2
		sub r3,r11,#48//fp-48=&posicion_valida
 c001c84:	e24b3030 	sub	r3, fp, #48	; 0x30
		mov r7,r0
 c001c88:	e1a07000 	mov	r7, r0
		bl ficha_valida//llamada a c
 c001c8c:	eb00188b 	bl	c007ec0 <ficha_valida>
		
		ldr r10, [r11, #12]//r10=color (parametro de entrada patron_volteo por pila)
 c001c90:	e59ba00c 	ldr	sl, [fp, #12]
		b cond //while ((posicion_valida == 1) && (casilla != color))
 c001c94:	ea00000b 	b	c001cc8 <cond>

0c001c98 <while_>:
		
while_:	add r1,r8,r4 //FA=FA+SF
 c001c98:	e0881004 	add	r1, r8, r4
		bic r1,r1,#256
 c001c9c:	e3c11c01 	bic	r1, r1, #256	; 0x100
		add r2,r9,r5 //CA=CA+SC
 c001ca0:	e0892005 	add	r2, r9, r5
		bic r2,r2,#256
 c001ca4:	e3c22c01 	bic	r2, r2, #256	; 0x100
		ldr r0,[r6] //*longitud = *longitud + 1;
 c001ca8:	e5960000 	ldr	r0, [r6]
		add r0,r0,#1
 c001cac:	e2800001 	add	r0, r0, #1
		str r0,[r6]
 c001cb0:	e5860000 	str	r0, [r6]
		
		mov r8,r1 //casilla = ficha_valida(tablero, FA, CA, &posicion_valida);
 c001cb4:	e1a08001 	mov	r8, r1
		mov r9,r2
 c001cb8:	e1a09002 	mov	r9, r2
		sub r3,r11,#48//fp-48=&posicion_valida
 c001cbc:	e24b3030 	sub	r3, fp, #48	; 0x30
		mov r0,r7
 c001cc0:	e1a00007 	mov	r0, r7
		bl ficha_valida //llamada a c
 c001cc4:	eb00187d 	bl	c007ec0 <ficha_valida>

0c001cc8 <cond>:
		
		//while ((posicion_valida == 1) && (casilla != color))
cond:	ldr r3, [r11, #-48] //posicion_valida
 c001cc8:	e51b3030 	ldr	r3, [fp, #-48]	; 0xffffffd0
		cmp r3,#1
 c001ccc:	e3530001 	cmp	r3, #1
		bne if_
 c001cd0:	1a000001 	bne	c001cdc <if_>
		cmp r0,r10//r0=casilla(salida de ficha_valida())
 c001cd4:	e150000a 	cmp	r0, sl
		bne while_
 c001cd8:	1affffee 	bne	c001c98 <while_>

0c001cdc <if_>:
		
if_:	cmp r3,#1 //if ((posicion_valida == 1) && (casilla == color) && (*longitud >0))
 c001cdc:	e3530001 	cmp	r3, #1
		bne else_
 c001ce0:	1a000006 	bne	c001d00 <else_>
		cmp r0,r10
 c001ce4:	e150000a 	cmp	r0, sl
		bne else_
 c001ce8:	1a000004 	bne	c001d00 <else_>
		ldr r6,[r6]
 c001cec:	e5966000 	ldr	r6, [r6]
		cmp r6,#0
 c001cf0:	e3560000 	cmp	r6, #0
		ble else_
 c001cf4:	da000001 	ble	c001d00 <else_>
		
		mov r0,#1 //return PATRON_ENCONTRADO;
 c001cf8:	e3a00001 	mov	r0, #1
		b fin
 c001cfc:	ea000000 	b	c001d04 <fin>

0c001d00 <else_>:
		
else_:	mov r0,#0 //return NO_HAY_PATRON;
 c001d00:	e3a00000 	mov	r0, #0

0c001d04 <fin>:
		
fin:	sub sp, r11, #40//epilogo
 c001d04:	e24bd028 	sub	sp, fp, #40	; 0x28
		ldm sp, {r4-r10,r11, sp, lr}
 c001d08:	e89d6ff0 	ldm	sp, {r4, r5, r6, r7, r8, r9, sl, fp, sp, lr}
		bx lr
 c001d0c:	e12fff1e 	bx	lr

0c001d10 <patron_volteo_arm_arm>:
* r10 = FA*8 || longitud
****************************************/

patron_volteo_arm_arm:

		mov r12, sp //prologo
 c001d10:	e1a0c00d 	mov	ip, sp
		push {r4-r10,r11, r12, lr, pc}
 c001d14:	e92ddff0 	push	{r4, r5, r6, r7, r8, r9, sl, fp, ip, lr, pc}
		sub r11, r12, #4
 c001d18:	e24cb004 	sub	fp, ip, #4
		
		ldrb r5, [r11, #4] //FA=FA+SF
 c001d1c:	e5db5004 	ldrb	r5, [fp, #4]
		add r2,r2,r5
 c001d20:	e0822005 	add	r2, r2, r5
		bic r2,r2,#256
 c001d24:	e3c22c01 	bic	r2, r2, #256	; 0x100
		ldrb r6, [r11, #8] //CA=CA+SC
 c001d28:	e5db6008 	ldrb	r6, [fp, #8]
		add r3,r3,r6
 c001d2c:	e0833006 	add	r3, r3, r6
		bic r3,r3,#256
 c001d30:	e3c33c01 	bic	r3, r3, #256	; 0x100
		ldr r8, [r11, #12]
 c001d34:	e59b800c 	ldr	r8, [fp, #12]

		//ficha_valida
		mov r4,#0 //pos_v=0
 c001d38:	e3a04000 	mov	r4, #0
		cmp r2,#7 //0<=FA<DIM
 c001d3c:	e3520007 	cmp	r2, #7
		bhi fv1_f
 c001d40:	8a000006 	bhi	c001d60 <fv1_f>
		cmp r3,#7 //0<=CA<DIM
 c001d44:	e3530007 	cmp	r3, #7
		bhi fv1_f
 c001d48:	8a000004 	bhi	c001d60 <fv1_f>
		lsl r10,r2,#3
 c001d4c:	e1a0a182 	lsl	sl, r2, #3
		add r9,r0,r10
 c001d50:	e080900a 	add	r9, r0, sl
		ldrb r7,[r9,r3]
 c001d54:	e7d97003 	ldrb	r7, [r9, r3]
		cmp r7,#0 //tablero[FA][CA]!=0=casilla
 c001d58:	e3570000 	cmp	r7, #0
		movne r4,#1 //pos_v=1
 c001d5c:	13a04001 	movne	r4, #1

0c001d60 <fv1_f>:
		
fv1_f:	b cond //while ((posicion_valida == 1) && (casilla != color))
 c001d60:	ea000010 	b	c001da8 <cond>

0c001d64 <while_>:
		
while_:	add r2,r2,r5 //FA=FA+SF
 c001d64:	e0822005 	add	r2, r2, r5
		bic r2,r2,#256
 c001d68:	e3c22c01 	bic	r2, r2, #256	; 0x100
		add r3,r3,r6 //CA=CA+SC
 c001d6c:	e0833006 	add	r3, r3, r6
		bic r3,r3,#256
 c001d70:	e3c33c01 	bic	r3, r3, #256	; 0x100
		ldr r10,[r1] //*longitud = *longitud + 1;
 c001d74:	e591a000 	ldr	sl, [r1]
		add r10,r10,#1
 c001d78:	e28aa001 	add	sl, sl, #1
		str r10,[r1]
 c001d7c:	e581a000 	str	sl, [r1]
		
		//ficha_valida
		mov r4,#0 //pos_v=0
 c001d80:	e3a04000 	mov	r4, #0
		cmp r2,#7 //0<=FA<DIM
 c001d84:	e3520007 	cmp	r2, #7
		bhi cond
 c001d88:	8a000006 	bhi	c001da8 <cond>
		cmp r3,#7 //0<=CA<DIM
 c001d8c:	e3530007 	cmp	r3, #7
		bhi cond
 c001d90:	8a000004 	bhi	c001da8 <cond>
		lsl r10,r2,#3
 c001d94:	e1a0a182 	lsl	sl, r2, #3
		add r9,r0,r10
 c001d98:	e080900a 	add	r9, r0, sl
		ldrb r7,[r9,r3]
 c001d9c:	e7d97003 	ldrb	r7, [r9, r3]
		cmp r7,#0 //tablero[FA][CA]!=0=casilla
 c001da0:	e3570000 	cmp	r7, #0
		movne r4,#1 //pos_v=1
 c001da4:	13a04001 	movne	r4, #1

0c001da8 <cond>:
		
cond:	cmp r4,#1 //while ((posicion_valida == 1) && (casilla != color))
 c001da8:	e3540001 	cmp	r4, #1
		bne if_
 c001dac:	1a000001 	bne	c001db8 <if_>
		cmp r7,r8
 c001db0:	e1570008 	cmp	r7, r8
		bne while_
 c001db4:	1affffea 	bne	c001d64 <while_>

0c001db8 <if_>:
		
if_:	mov r0,#0 //return NO_HAY_PATRON;
 c001db8:	e3a00000 	mov	r0, #0
		cmp r4,#1 //if ((posicion_valida == 1) && (casilla == color) && (*longitud >0))
 c001dbc:	e3540001 	cmp	r4, #1
		bne fin
 c001dc0:	1a000004 	bne	c001dd8 <fin>
		cmp r7,r8
 c001dc4:	e1570008 	cmp	r7, r8
		bne fin
 c001dc8:	1a000002 	bne	c001dd8 <fin>
		ldr r1,[r1]
 c001dcc:	e5911000 	ldr	r1, [r1]
		cmp r1,#0
 c001dd0:	e3510000 	cmp	r1, #0
		movgt r0,#1 //return PATRON_ENCONTRADO;
 c001dd4:	c3a00001 	movgt	r0, #1

0c001dd8 <fin>:
		
fin:	sub sp, r11, #40 //epilogo
 c001dd8:	e24bd028 	sub	sp, fp, #40	; 0x28
		ldm sp, {r4-r10,r11, sp, lr}
 c001ddc:	e89d6ff0 	ldm	sp, {r4, r5, r6, r7, r8, r9, sl, fp, sp, lr}
		bx lr
 c001de0:	e12fff1e 	bx	lr

0c001de4 <antirrebotes_ev_boton>:
/*********************************************************************************************
* Funcion 1 del autómata. Transicion causada por ev_boton.
*********************************************************************************************/
void antirrebotes_ev_boton()
{
	estado=RETARDO_PULSAR; //Han pulsado boton, pasamos a estado de espera de retardo inicial
 c001de4:	e59f300c 	ldr	r3, [pc, #12]	; c001df8 <antirrebotes_ev_boton+0x14>
 c001de8:	e3a00001 	mov	r0, #1
	counter=0;
 c001dec:	e3a02000 	mov	r2, #0
/*********************************************************************************************
* Funcion 1 del autómata. Transicion causada por ev_boton.
*********************************************************************************************/
void antirrebotes_ev_boton()
{
	estado=RETARDO_PULSAR; //Han pulsado boton, pasamos a estado de espera de retardo inicial
 c001df0:	e8830005 	stm	r3, {r0, r2}
	counter=0;
}
 c001df4:	e12fff1e 	bx	lr
 c001df8:	0c00cd34 	.word	0x0c00cd34

0c001dfc <antirrebotes_ev_tick>:
/*********************************************************************************************
* Funcion 2 del autómata. Transicion causada por ev_tick. Gestiona la reactivación
* de las interrupciones de los botones.
*********************************************************************************************/
void antirrebotes_ev_tick()
{
 c001dfc:	e1a0c00d 	mov	ip, sp
 c001e00:	e92dd818 	push	{r3, r4, fp, ip, lr, pc}
	if(estado!=BOTON_PREPARADO){
 c001e04:	e59f40bc 	ldr	r4, [pc, #188]	; c001ec8 <antirrebotes_ev_tick+0xcc>
 c001e08:	e5943000 	ldr	r3, [r4]
 c001e0c:	e3530000 	cmp	r3, #0
/*********************************************************************************************
* Funcion 2 del autómata. Transicion causada por ev_tick. Gestiona la reactivación
* de las interrupciones de los botones.
*********************************************************************************************/
void antirrebotes_ev_tick()
{
 c001e10:	e24cb004 	sub	fp, ip, #4
	if(estado!=BOTON_PREPARADO){
 c001e14:	0a00000a 	beq	c001e44 <antirrebotes_ev_tick+0x48>
		counter++;
 c001e18:	e5942004 	ldr	r2, [r4, #4]
		if(estado==RETARDO_PULSAR && counter==TRP){//espera retardo inical
 c001e1c:	e3530001 	cmp	r3, #1
* de las interrupciones de los botones.
*********************************************************************************************/
void antirrebotes_ev_tick()
{
	if(estado!=BOTON_PREPARADO){
		counter++;
 c001e20:	e2822001 	add	r2, r2, #1
 c001e24:	e5842004 	str	r2, [r4, #4]
		if(estado==RETARDO_PULSAR && counter==TRP){//espera retardo inical
 c001e28:	0a000008 	beq	c001e50 <antirrebotes_ev_tick+0x54>
			estado=ESPERANDO_SOLTAR;
		}else if(estado==ESPERANDO_SOLTAR && counter%MS_30){
 c001e2c:	e3530002 	cmp	r3, #2
 c001e30:	0a00000a 	beq	c001e60 <antirrebotes_ev_tick+0x64>
			else{	//OPCIONAL 1:   si mantiene pulsado se lo comunicamos al gestor de eventos
			  	if( (counter>=(MS_333) )&&( (counter-MS_333)%MS_180==0 )){
			  		push_debug(ev_mantener,b_actual);
			 	}
			}
		}else if(estado==RETARDO_SOLTAR && counter==TRD){//espera retardo final
 c001e34:	e3530003 	cmp	r3, #3
 c001e38:	1a000001 	bne	c001e44 <antirrebotes_ev_tick+0x48>
 c001e3c:	e3520002 	cmp	r2, #2
 c001e40:	0a00001c 	beq	c001eb8 <antirrebotes_ev_tick+0xbc>
			estado=BOTON_PREPARADO;
			button_resetear();//activamos interrupciones
		}
	}
}
 c001e44:	e24bd014 	sub	sp, fp, #20
 c001e48:	e89d6818 	ldm	sp, {r3, r4, fp, sp, lr}
 c001e4c:	e12fff1e 	bx	lr
*********************************************************************************************/
void antirrebotes_ev_tick()
{
	if(estado!=BOTON_PREPARADO){
		counter++;
		if(estado==RETARDO_PULSAR && counter==TRP){//espera retardo inical
 c001e50:	e352000c 	cmp	r2, #12
			estado=ESPERANDO_SOLTAR;
 c001e54:	03a03002 	moveq	r3, #2
 c001e58:	05843000 	streq	r3, [r4]
 c001e5c:	eafffff8 	b	c001e44 <antirrebotes_ev_tick+0x48>
		}else if(estado==ESPERANDO_SOLTAR && counter%MS_30){
 c001e60:	e3120001 	tst	r2, #1
 c001e64:	0afffff6 	beq	c001e44 <antirrebotes_ev_tick+0x48>
			enum estado_button b_actual = button_estado();//comprueba estado actual de los botones
 c001e68:	eb000069 	bl	c002014 <button_estado>
			if(b_actual==button_none){//si no esta pulsado ejecutamos transicion de estado
 c001e6c:	e2501000 	subs	r1, r0, #0
				estado=RETARDO_SOLTAR;
 c001e70:	03a03003 	moveq	r3, #3
 c001e74:	05843000 	streq	r3, [r4]
				counter=0;
 c001e78:	05841004 	streq	r1, [r4, #4]
		counter++;
		if(estado==RETARDO_PULSAR && counter==TRP){//espera retardo inical
			estado=ESPERANDO_SOLTAR;
		}else if(estado==ESPERANDO_SOLTAR && counter%MS_30){
			enum estado_button b_actual = button_estado();//comprueba estado actual de los botones
			if(b_actual==button_none){//si no esta pulsado ejecutamos transicion de estado
 c001e7c:	0afffff0 	beq	c001e44 <antirrebotes_ev_tick+0x48>
				estado=RETARDO_SOLTAR;
				counter=0;
			}
			else{	//OPCIONAL 1:   si mantiene pulsado se lo comunicamos al gestor de eventos
			  	if( (counter>=(MS_333) )&&( (counter-MS_333)%MS_180==0 )){
 c001e80:	e5943004 	ldr	r3, [r4, #4]
 c001e84:	e3530014 	cmp	r3, #20
 c001e88:	daffffed 	ble	c001e44 <antirrebotes_ev_tick+0x48>
 c001e8c:	e243c015 	sub	ip, r3, #21
 c001e90:	e59f3034 	ldr	r3, [pc, #52]	; c001ecc <antirrebotes_ev_tick+0xd0>
 c001e94:	e0c3239c 	smull	r2, r3, ip, r3
 c001e98:	e1a02fcc 	asr	r2, ip, #31
 c001e9c:	e062e0c3 	rsb	lr, r2, r3, asr #1
 c001ea0:	e08e008e 	add	r0, lr, lr, lsl #1
 c001ea4:	e15c0100 	cmp	ip, r0, lsl #2
 c001ea8:	1affffe5 	bne	c001e44 <antirrebotes_ev_tick+0x48>
			  		push_debug(ev_mantener,b_actual);
 c001eac:	e3a00003 	mov	r0, #3
 c001eb0:	eb00006b 	bl	c002064 <push_debug>
 c001eb4:	eaffffe2 	b	c001e44 <antirrebotes_ev_tick+0x48>
			 	}
			}
		}else if(estado==RETARDO_SOLTAR && counter==TRD){//espera retardo final
			estado=BOTON_PREPARADO;
 c001eb8:	e3a01000 	mov	r1, #0
 c001ebc:	e5841000 	str	r1, [r4]
			button_resetear();//activamos interrupciones
 c001ec0:	eb000047 	bl	c001fe4 <button_resetear>
 c001ec4:	eaffffde 	b	c001e44 <antirrebotes_ev_tick+0x48>
 c001ec8:	0c00cd34 	.word	0x0c00cd34
 c001ecc:	2aaaaaab 	.word	0x2aaaaaab

0c001ed0 <Eint4567_ISR>:
/*********************************************************************************************
* ISR EINT 6-7. Guarda un evento ev_pulsacion en la cola de depuracion.
* Desactiva las interrupciones de los botones.
*********************************************************************************************/
void Eint4567_ISR()
{
 c001ed0:	e52dc004 	push	{ip}		; (str ip, [sp, #-4]!)
 c001ed4:	e1a0c00d 	mov	ip, sp
 c001ed8:	e92dd80f 	push	{r0, r1, r2, r3, fp, ip, lr, pc}
	#ifdef MEDICION_RETARDOS
	#else
		//desactivar interrupciones
		rINTMSK |= (BIT_EINT4567);
 c001edc:	e3a0361e 	mov	r3, #31457280	; 0x1e00000
 c001ee0:	e593100c 	ldr	r1, [r3, #12]
 c001ee4:	e3812602 	orr	r2, r1, #2097152	; 0x200000
 c001ee8:	e583200c 	str	r2, [r3, #12]
	#endif

	/* Identificar la interrupcion (hay dos pulsadores)*/
	int which_int = rEXTINTPND;	// VALORES: 4-> IZQUIERDO, 8-> DERECHO.
 c001eec:	e59f2070 	ldr	r2, [pc, #112]	; c001f64 <Eint4567_ISR+0x94>
 c001ef0:	e5921054 	ldr	r1, [r2, #84]	; 0x54
	if(rEXTINTPND==4 || rEXTINTPND==8){
 c001ef4:	e5920054 	ldr	r0, [r2, #84]	; 0x54
 c001ef8:	e3500004 	cmp	r0, #4
/*********************************************************************************************
* ISR EINT 6-7. Guarda un evento ev_pulsacion en la cola de depuracion.
* Desactiva las interrupciones de los botones.
*********************************************************************************************/
void Eint4567_ISR()
{
 c001efc:	e24cb004 	sub	fp, ip, #4
		rINTMSK |= (BIT_EINT4567);
	#endif

	/* Identificar la interrupcion (hay dos pulsadores)*/
	int which_int = rEXTINTPND;	// VALORES: 4-> IZQUIERDO, 8-> DERECHO.
	if(rEXTINTPND==4 || rEXTINTPND==8){
 c001f00:	0a000010 	beq	c001f48 <Eint4567_ISR+0x78>
 c001f04:	e592c054 	ldr	ip, [r2, #84]	; 0x54
 c001f08:	e35c0008 	cmp	ip, #8
 c001f0c:	0a00000d 	beq	c001f48 <Eint4567_ISR+0x78>
		push_debug(ev_pulsacion,which_int/4); // enviamos el evento al gestor de eventos
	}else{
		rINTMSK &= ~(BIT_EINT4567);
 c001f10:	e593200c 	ldr	r2, [r3, #12]
 c001f14:	e3c20602 	bic	r0, r2, #2097152	; 0x200000
 c001f18:	e583000c 	str	r0, [r3, #12]
	}


	/* Finalizar ISR */
	rEXTINTPND = 0xf;				// borra los bits en EXTINTPND
 c001f1c:	e59f2040 	ldr	r2, [pc, #64]	; c001f64 <Eint4567_ISR+0x94>
 c001f20:	e3a0000f 	mov	r0, #15
 c001f24:	e5820054 	str	r0, [r2, #84]	; 0x54
	rI_ISPC   |= BIT_EINT4567;		// borra el bit pendiente en INTPND
 c001f28:	e3a0c61e 	mov	ip, #31457280	; 0x1e00000
 c001f2c:	e59c3024 	ldr	r3, [ip, #36]	; 0x24
 c001f30:	e3831602 	orr	r1, r3, #2097152	; 0x200000
 c001f34:	e58c1024 	str	r1, [ip, #36]	; 0x24
}
 c001f38:	e24bd01c 	sub	sp, fp, #28
 c001f3c:	e89d680f 	ldm	sp, {r0, r1, r2, r3, fp, sp, lr}
 c001f40:	e49dc004 	pop	{ip}		; (ldr ip, [sp], #4)
 c001f44:	e25ef004 	subs	pc, lr, #4
	#endif

	/* Identificar la interrupcion (hay dos pulsadores)*/
	int which_int = rEXTINTPND;	// VALORES: 4-> IZQUIERDO, 8-> DERECHO.
	if(rEXTINTPND==4 || rEXTINTPND==8){
		push_debug(ev_pulsacion,which_int/4); // enviamos el evento al gestor de eventos
 c001f48:	e2813003 	add	r3, r1, #3
 c001f4c:	e3510000 	cmp	r1, #0
 c001f50:	b1a01003 	movlt	r1, r3
 c001f54:	e3a00002 	mov	r0, #2
 c001f58:	e1a01051 	asr	r1, r1, r0
 c001f5c:	eb000040 	bl	c002064 <push_debug>
 c001f60:	eaffffed 	b	c001f1c <Eint4567_ISR+0x4c>
 c001f64:	01d20000 	.word	0x01d20000

0c001f68 <button_iniciar>:
* Configura los registros de los botones y los deja listos para usar.
*********************************************************************************************/
void button_iniciar()
{
	/* Configuracion del controlador de interrupciones. Estos registros están definidos en 44b.h */
	rEXTINTPND = 0xf;				// borra los bits en EXTINTPND
 c001f68:	e59f3068 	ldr	r3, [pc, #104]	; c001fd8 <button_iniciar+0x70>
 c001f6c:	e3a0100f 	mov	r1, #15
 c001f70:	e5831054 	str	r1, [r3, #84]	; 0x54
	rI_ISPC   |= BIT_EINT4567;		// borra el bit pendiente en INTPND
 c001f74:	e3a0261e 	mov	r2, #31457280	; 0x1e00000
 c001f78:	e5920024 	ldr	r0, [r2, #36]	; 0x24
 c001f7c:	e380c602 	orr	ip, r0, #2097152	; 0x200000
 c001f80:	e582c024 	str	ip, [r2, #36]	; 0x24
	rINTMSK    &= ~(BIT_EINT4567); 	// habilitamos interrupcion linea eint4567 en vector de mascaras (valor 0)
 c001f84:	e592000c 	ldr	r0, [r2, #12]
 c001f88:	e3c0c602 	bic	ip, r0, #2097152	; 0x200000
 c001f8c:	e582c00c 	str	ip, [r2, #12]

	/* Establece la rutina de servicio para Eint4567 */
	pISR_EINT4567 = (int) Eint4567_ISR;

	/* Configuracion del puerto G */
	rPCONG  |= 0xff00;		// Establece la funcion de los pines (EINT4-7)
 c001f90:	e5930040 	ldr	r0, [r3, #64]	; 0x40
 c001f94:	e380ccff 	orr	ip, r0, #65280	; 0xff00
 c001f98:	e583c040 	str	ip, [r3, #64]	; 0x40
	rPUPG   |= 0xf0;		// Deshabilita el "pull up" de los pines (EINT4-7)
 c001f9c:	e5930048 	ldr	r0, [r3, #72]	; 0x48
 c001fa0:	e380c0f0 	orr	ip, r0, #240	; 0xf0
 c001fa4:	e583c048 	str	ip, [r3, #72]	; 0x48
	rEXTINT |= 0x22220000;	// Lineas de int. como de flanco de bajada (EINT4-7)
 c001fa8:	e5930050 	ldr	r0, [r3, #80]	; 0x50
 c001fac:	e380c422 	orr	ip, r0, #570425344	; 0x22000000
 c001fb0:	e38c0822 	orr	r0, ip, #2228224	; 0x220000
 c001fb4:	e5830050 	str	r0, [r3, #80]	; 0x50

	/* Por precaucion, se vuelven a borrar los bits de INTPND y EXTINTPND */
	rEXTINTPND = 0xf;				// borra los bits en EXTINTPND
 c001fb8:	e5831054 	str	r1, [r3, #84]	; 0x54
	rI_ISPC   |= BIT_EINT4567;		// borra el bit pendiente en INTPND
 c001fbc:	e592c024 	ldr	ip, [r2, #36]	; 0x24
	rEXTINTPND = 0xf;				// borra los bits en EXTINTPND
	rI_ISPC   |= BIT_EINT4567;		// borra el bit pendiente en INTPND
	rINTMSK    &= ~(BIT_EINT4567); 	// habilitamos interrupcion linea eint4567 en vector de mascaras (valor 0)

	/* Establece la rutina de servicio para Eint4567 */
	pISR_EINT4567 = (int) Eint4567_ISR;
 c001fc0:	e59f0014 	ldr	r0, [pc, #20]	; c001fdc <button_iniciar+0x74>
 c001fc4:	e59f1014 	ldr	r1, [pc, #20]	; c001fe0 <button_iniciar+0x78>
	rPUPG   |= 0xf0;		// Deshabilita el "pull up" de los pines (EINT4-7)
	rEXTINT |= 0x22220000;	// Lineas de int. como de flanco de bajada (EINT4-7)

	/* Por precaucion, se vuelven a borrar los bits de INTPND y EXTINTPND */
	rEXTINTPND = 0xf;				// borra los bits en EXTINTPND
	rI_ISPC   |= BIT_EINT4567;		// borra el bit pendiente en INTPND
 c001fc8:	e38c3602 	orr	r3, ip, #2097152	; 0x200000
	rEXTINTPND = 0xf;				// borra los bits en EXTINTPND
	rI_ISPC   |= BIT_EINT4567;		// borra el bit pendiente en INTPND
	rINTMSK    &= ~(BIT_EINT4567); 	// habilitamos interrupcion linea eint4567 en vector de mascaras (valor 0)

	/* Establece la rutina de servicio para Eint4567 */
	pISR_EINT4567 = (int) Eint4567_ISR;
 c001fcc:	e501008b 	str	r0, [r1, #-139]	; 0xffffff75
	rPUPG   |= 0xf0;		// Deshabilita el "pull up" de los pines (EINT4-7)
	rEXTINT |= 0x22220000;	// Lineas de int. como de flanco de bajada (EINT4-7)

	/* Por precaucion, se vuelven a borrar los bits de INTPND y EXTINTPND */
	rEXTINTPND = 0xf;				// borra los bits en EXTINTPND
	rI_ISPC   |= BIT_EINT4567;		// borra el bit pendiente en INTPND
 c001fd0:	e5823024 	str	r3, [r2, #36]	; 0x24
}
 c001fd4:	e12fff1e 	bx	lr
 c001fd8:	01d20000 	.word	0x01d20000
 c001fdc:	0c001ed0 	.word	0x0c001ed0
 c001fe0:	0c7fffff 	.word	0x0c7fffff

0c001fe4 <button_resetear>:

/*********************************************************************************************
* Reactiva las interrupciones de lls botones.
*********************************************************************************************/
void button_resetear(){
	rEXTINTPND = 0xf;				// borra los bits en EXTINTPND
 c001fe4:	e59f3024 	ldr	r3, [pc, #36]	; c002010 <button_resetear+0x2c>
 c001fe8:	e3a0200f 	mov	r2, #15
 c001fec:	e5832054 	str	r2, [r3, #84]	; 0x54
	rI_ISPC   |= BIT_EINT4567;		// borra el bit pendiente en INTPND
 c001ff0:	e3a0361e 	mov	r3, #31457280	; 0x1e00000
 c001ff4:	e593c024 	ldr	ip, [r3, #36]	; 0x24
 c001ff8:	e38c1602 	orr	r1, ip, #2097152	; 0x200000
 c001ffc:	e5831024 	str	r1, [r3, #36]	; 0x24

	rINTMSK &= ~(BIT_EINT4567);		// activar interrupciones
 c002000:	e593000c 	ldr	r0, [r3, #12]
 c002004:	e3c02602 	bic	r2, r0, #2097152	; 0x200000
 c002008:	e583200c 	str	r2, [r3, #12]
}
 c00200c:	e12fff1e 	bx	lr
 c002010:	01d20000 	.word	0x01d20000

0c002014 <button_estado>:

/*********************************************************************************************
* Devuelve el estado actual de los botones.
*********************************************************************************************/
enum estado_button button_estado(){
	int data=rPDATG;
 c002014:	e59f3020 	ldr	r3, [pc, #32]	; c00203c <button_estado+0x28>
 c002018:	e5933044 	ldr	r3, [r3, #68]	; 0x44
	if( (data & 0x80) == 0 ){		// comprobamos BIT 7, si está a 0 está pulsado el derecho
 c00201c:	e3130080 	tst	r3, #128	; 0x80
 c002020:	0a000003 	beq	c002034 <button_estado+0x20>
		return button_dr;
 c002024:	e3130040 	tst	r3, #64	; 0x40
 c002028:	13a00000 	movne	r0, #0
 c00202c:	03a00001 	moveq	r0, #1
 c002030:	e12fff1e 	bx	lr
 c002034:	e3a00002 	mov	r0, #2
	}else if( (data & 0x40) == 0 ){	// comprobamos BIT 6, si está a 0 está pulsado el izquierdo
		return button_iz;
	}else{
		return button_none;
	}
}
 c002038:	e12fff1e 	bx	lr
 c00203c:	01d20000 	.word	0x01d20000

0c002040 <cola_ini>:

/*********************************************************************************************
* Inicializacion de la cola. La deja lista para ser usada.
*********************************************************************************************/
void cola_ini(){
	lista_eventos=direccion;	//asignamos direccion inicial de la cola
 c002040:	e59f3014 	ldr	r3, [pc, #20]	; c00205c <cola_ini+0x1c>
 c002044:	e59f1014 	ldr	r1, [pc, #20]	; c002060 <cola_ini+0x20>
	head=0;
 c002048:	e3a02000 	mov	r2, #0

/*********************************************************************************************
* Inicializacion de la cola. La deja lista para ser usada.
*********************************************************************************************/
void cola_ini(){
	lista_eventos=direccion;	//asignamos direccion inicial de la cola
 c00204c:	e8830006 	stm	r3, {r1, r2}
	head=0;
	tail=0;
 c002050:	e5832008 	str	r2, [r3, #8]
	n=0;
 c002054:	e583200c 	str	r2, [r3, #12]
}
 c002058:	e12fff1e 	bx	lr
 c00205c:	0c00cd3c 	.word	0x0c00cd3c
 c002060:	0c7fe700 	.word	0x0c7fe700

0c002064 <push_debug>:

/*********************************************************************************************
* Guarda un evento en la cola.
*********************************************************************************************/
void push_debug(ID_evento evento, uint32_t auxData){
 c002064:	e1a0c00d 	mov	ip, sp
 c002068:	e92dd830 	push	{r4, r5, fp, ip, lr, pc}
 c00206c:	e24cb004 	sub	fp, ip, #4
 c002070:	e1a05001 	mov	r5, r1
 c002074:	e1a04000 	mov	r4, r0
	unsigned int time = timer2_leer();		 //instante(timer2)
 c002078:	eb001e82 	bl	c009a88 <timer2_leer>
	ID_data |= (evento<<24);				 //escribimos los 8 primeros bits

	elemento_pila nuevo;
	nuevo.ID_evento_auxData=ID_data;
	nuevo.momento_invocacion=time;
	lista_eventos[tail]=nuevo;				 //guardamos en cola
 c00207c:	e59f3040 	ldr	r3, [pc, #64]	; c0020c4 <push_debug+0x60>
 c002080:	e5932008 	ldr	r2, [r3, #8]
 c002084:	e593c000 	ldr	ip, [r3]
* Guarda un evento en la cola.
*********************************************************************************************/
void push_debug(ID_evento evento, uint32_t auxData){
	unsigned int time = timer2_leer();		 //instante(timer2)

	uint32_t ID_data = auxData&(0x00ffffff); //escribimos los 24 ultimos bits
 c002088:	e3c514ff 	bic	r1, r5, #-16777216	; 0xff000000
	ID_data |= (evento<<24);				 //escribimos los 8 primeros bits

	elemento_pila nuevo;
	nuevo.ID_evento_auxData=ID_data;
	nuevo.momento_invocacion=time;
	lista_eventos[tail]=nuevo;				 //guardamos en cola
 c00208c:	e08c5182 	add	r5, ip, r2, lsl #3

	if(tail==MAXEVENTOS){//si hemos escrito en la ultima pos, la siguiente escribirá en la pos 0
 c002090:	e3520c01 	cmp	r2, #256	; 0x100
*********************************************************************************************/
void push_debug(ID_evento evento, uint32_t auxData){
	unsigned int time = timer2_leer();		 //instante(timer2)

	uint32_t ID_data = auxData&(0x00ffffff); //escribimos los 24 ultimos bits
	ID_data |= (evento<<24);				 //escribimos los 8 primeros bits
 c002094:	e1814c04 	orr	r4, r1, r4, lsl #24

	elemento_pila nuevo;
	nuevo.ID_evento_auxData=ID_data;
	nuevo.momento_invocacion=time;
	lista_eventos[tail]=nuevo;				 //guardamos en cola
 c002098:	e5850004 	str	r0, [r5, #4]
	if(tail==MAXEVENTOS){//si hemos escrito en la ultima pos, la siguiente escribirá en la pos 0
		tail=0;
	}else{
		tail++;
	}
	n++;
 c00209c:	e593000c 	ldr	r0, [r3, #12]
	ID_data |= (evento<<24);				 //escribimos los 8 primeros bits

	elemento_pila nuevo;
	nuevo.ID_evento_auxData=ID_data;
	nuevo.momento_invocacion=time;
	lista_eventos[tail]=nuevo;				 //guardamos en cola
 c0020a0:	e78c4182 	str	r4, [ip, r2, lsl #3]

	if(tail==MAXEVENTOS){//si hemos escrito en la ultima pos, la siguiente escribirá en la pos 0
		tail=0;
 c0020a4:	03a02000 	moveq	r2, #0
	}else{
		tail++;
 c0020a8:	12822001 	addne	r2, r2, #1
 c0020ac:	e5832008 	str	r2, [r3, #8]
	}
	n++;
 c0020b0:	e2802001 	add	r2, r0, #1
 c0020b4:	e583200c 	str	r2, [r3, #12]
}
 c0020b8:	e24bd014 	sub	sp, fp, #20
 c0020bc:	e89d6830 	ldm	sp, {r4, r5, fp, sp, lr}
 c0020c0:	e12fff1e 	bx	lr
 c0020c4:	0c00cd3c 	.word	0x0c00cd3c

0c0020c8 <pop_debug>:

/*********************************************************************************************
* Lee un evento de la cola.
*********************************************************************************************/
void pop_debug(ID_evento *evento, uint32_t *auxData, unsigned int *time){
	if(n!=0){
 c0020c8:	e59f3058 	ldr	r3, [pc, #88]	; c002128 <pop_debug+0x60>
 c0020cc:	e593c00c 	ldr	ip, [r3, #12]
 c0020d0:	e35c0000 	cmp	ip, #0
}

/*********************************************************************************************
* Lee un evento de la cola.
*********************************************************************************************/
void pop_debug(ID_evento *evento, uint32_t *auxData, unsigned int *time){
 c0020d4:	e92d00f0 	push	{r4, r5, r6, r7}
	if(n!=0){
 c0020d8:	0a000010 	beq	c002120 <pop_debug+0x58>
		uint32_t get_ID_Data=lista_eventos[head].ID_evento_auxData;//leemos evento
 c0020dc:	e5934004 	ldr	r4, [r3, #4]
 c0020e0:	e5937000 	ldr	r7, [r3]
 c0020e4:	e7975184 	ldr	r5, [r7, r4, lsl #3]
 c0020e8:	e0876184 	add	r6, r7, r4, lsl #3
		*evento=get_ID_Data>>24;			//nos quedamos con los 8 primeros bits
		*auxData=get_ID_Data&(0x00ffffff);	//nos quedamos con los 24 ultimos bits

		*time=lista_eventos[head].momento_invocacion;//leemos instante
 c0020ec:	e5966004 	ldr	r6, [r6, #4]

		if(head==MAXEVENTOS){//si hemos leido en la ultima pos, la siguiente leerá en la pos 0
 c0020f0:	e3540c01 	cmp	r4, #256	; 0x100
* Lee un evento de la cola.
*********************************************************************************************/
void pop_debug(ID_evento *evento, uint32_t *auxData, unsigned int *time){
	if(n!=0){
		uint32_t get_ID_Data=lista_eventos[head].ID_evento_auxData;//leemos evento
		*evento=get_ID_Data>>24;			//nos quedamos con los 8 primeros bits
 c0020f4:	e1a07c25 	lsr	r7, r5, #24
		*auxData=get_ID_Data&(0x00ffffff);	//nos quedamos con los 24 ultimos bits
 c0020f8:	e3c554ff 	bic	r5, r5, #-16777216	; 0xff000000
* Lee un evento de la cola.
*********************************************************************************************/
void pop_debug(ID_evento *evento, uint32_t *auxData, unsigned int *time){
	if(n!=0){
		uint32_t get_ID_Data=lista_eventos[head].ID_evento_auxData;//leemos evento
		*evento=get_ID_Data>>24;			//nos quedamos con los 8 primeros bits
 c0020fc:	e5c07000 	strb	r7, [r0]
		*time=lista_eventos[head].momento_invocacion;//leemos instante

		if(head==MAXEVENTOS){//si hemos leido en la ultima pos, la siguiente leerá en la pos 0
			head=0;
		}else{
			head++;
 c002100:	12844001 	addne	r4, r4, #1
*********************************************************************************************/
void pop_debug(ID_evento *evento, uint32_t *auxData, unsigned int *time){
	if(n!=0){
		uint32_t get_ID_Data=lista_eventos[head].ID_evento_auxData;//leemos evento
		*evento=get_ID_Data>>24;			//nos quedamos con los 8 primeros bits
		*auxData=get_ID_Data&(0x00ffffff);	//nos quedamos con los 24 ultimos bits
 c002104:	e5815000 	str	r5, [r1]
		if(head==MAXEVENTOS){//si hemos leido en la ultima pos, la siguiente leerá en la pos 0
			head=0;
		}else{
			head++;
		}
		n--;
 c002108:	e24cc001 	sub	ip, ip, #1
	if(n!=0){
		uint32_t get_ID_Data=lista_eventos[head].ID_evento_auxData;//leemos evento
		*evento=get_ID_Data>>24;			//nos quedamos con los 8 primeros bits
		*auxData=get_ID_Data&(0x00ffffff);	//nos quedamos con los 24 ultimos bits

		*time=lista_eventos[head].momento_invocacion;//leemos instante
 c00210c:	e5826000 	str	r6, [r2]

		if(head==MAXEVENTOS){//si hemos leido en la ultima pos, la siguiente leerá en la pos 0
			head=0;
 c002110:	03a02000 	moveq	r2, #0
 c002114:	05832004 	streq	r2, [r3, #4]
		}else{
			head++;
 c002118:	15834004 	strne	r4, [r3, #4]
		}
		n--;
 c00211c:	e583c00c 	str	ip, [r3, #12]
	}
}
 c002120:	e8bd00f0 	pop	{r4, r5, r6, r7}
 c002124:	e12fff1e 	bx	lr
 c002128:	0c00cd3c 	.word	0x0c00cd3c

0c00212c <hayEvento>:

/*********************************************************************************************
* Devuelve true si hay eventos en la cola que no han sido leidos.
*********************************************************************************************/
int hayEvento(){
	return n!=0;
 c00212c:	e59f300c 	ldr	r3, [pc, #12]	; c002140 <hayEvento+0x14>
 c002130:	e593000c 	ldr	r0, [r3, #12]
}
 c002134:	e2500000 	subs	r0, r0, #0
 c002138:	13a00001 	movne	r0, #1
 c00213c:	e12fff1e 	bx	lr
 c002140:	0c00cd3c 	.word	0x0c00cd3c

0c002144 <Handler1>:
/*********************************************************************************************
* Rutina de excepcion. Identifica el tipo de excepcion y la direccion donde es causada.
* Muestra por el 8led: 1 si es SWI, 2 si es Data Abort y 3 si es Undefined.
*********************************************************************************************/
void Handler1()
{
 c002144:	e52dc004 	push	{ip}		; (str ip, [sp, #-4]!)
 c002148:	e1a0c00d 	mov	ip, sp
 c00214c:	e92dd83f 	push	{r0, r1, r2, r3, r4, r5, fp, ip, lr, pc}
	int ExcepcionInterna=0;
	int instruccion=0;
	unsigned long cpsr;

	asm("mrs %0, cpsr":"=r"(cpsr):);	// leemos cpsr
 c002150:	e10f4000 	mrs	r4, CPSR
	cpsr=cpsr%32;	// nos quedamos con el valor de los ultimos 5 bits del cpsr (modo)
 c002154:	e204401f 	and	r4, r4, #31

	if(cpsr==19){		// SWI
 c002158:	e3540013 	cmp	r4, #19
/*********************************************************************************************
* Rutina de excepcion. Identifica el tipo de excepcion y la direccion donde es causada.
* Muestra por el 8led: 1 si es SWI, 2 si es Data Abort y 3 si es Undefined.
*********************************************************************************************/
void Handler1()
{
 c00215c:	e24cb004 	sub	fp, ip, #4

	asm("mrs %0, cpsr":"=r"(cpsr):);	// leemos cpsr
	cpsr=cpsr%32;	// nos quedamos con el valor de los ultimos 5 bits del cpsr (modo)

	if(cpsr==19){		// SWI
		ExcepcionInterna=1;
 c002160:	03a04001 	moveq	r4, #1
	unsigned long cpsr;

	asm("mrs %0, cpsr":"=r"(cpsr):);	// leemos cpsr
	cpsr=cpsr%32;	// nos quedamos con el valor de los ultimos 5 bits del cpsr (modo)

	if(cpsr==19){		// SWI
 c002164:	0a000005 	beq	c002180 <Handler1+0x3c>
		ExcepcionInterna=1;
		asm("movs %0, r14":"=r"(instruccion):);
	}
	else if(cpsr==23){	// Data Abort
 c002168:	e3540017 	cmp	r4, #23
		ExcepcionInterna=2;
 c00216c:	03a04002 	moveq	r4, #2

	if(cpsr==19){		// SWI
		ExcepcionInterna=1;
		asm("movs %0, r14":"=r"(instruccion):);
	}
	else if(cpsr==23){	// Data Abort
 c002170:	0a000002 	beq	c002180 <Handler1+0x3c>
		ExcepcionInterna=2;
		asm("movs %0, r14":"=r"(instruccion):);
		instruccion-=8;			//offset direccion en Data Abort
	}
	else if(cpsr==27){	// Undefined
		ExcepcionInterna=3;
 c002174:	e354001b 	cmp	r4, #27
 c002178:	03a04003 	moveq	r4, #3
 c00217c:	13a04000 	movne	r4, #0
		asm("movs %0, r14":"=r"(instruccion):);
	}


	while(1){	//8led parpadea numero de excepcion
		D8Led_symbol(ExcepcionInterna);
 c002180:	e1a00004 	mov	r0, r4
 c002184:	ebfffaf5 	bl	c000d60 <D8Led_symbol>
		Delay(500);
 c002188:	e3a00f7d 	mov	r0, #500	; 0x1f4
 c00218c:	ebfff9c1 	bl	c000898 <Delay>
		D8Led_symbol(16);
 c002190:	e3a00010 	mov	r0, #16
 c002194:	ebfffaf1 	bl	c000d60 <D8Led_symbol>
		Delay(500);
 c002198:	e3a00f7d 	mov	r0, #500	; 0x1f4
 c00219c:	ebfff9bd 	bl	c000898 <Delay>
 c0021a0:	eafffff6 	b	c002180 <Handler1+0x3c>

0c0021a4 <exception_init>:

/*********************************************************************************************
* Inicializacion, asigna la rutina Handler1() a las 3 excepciones.
*********************************************************************************************/
void exception_init(){
	pISR_SWI = (unsigned) Handler1;
 c0021a4:	e59f2010 	ldr	r2, [pc, #16]	; c0021bc <exception_init+0x18>
 c0021a8:	e59f3010 	ldr	r3, [pc, #16]	; c0021c0 <exception_init+0x1c>
 c0021ac:	e50320f7 	str	r2, [r3, #-247]	; 0xffffff09
	pISR_DABORT = (unsigned) Handler1;
 c0021b0:	e50320ef 	str	r2, [r3, #-239]	; 0xffffff11
	pISR_UNDEF = (unsigned) Handler1;
 c0021b4:	e50320fb 	str	r2, [r3, #-251]	; 0xffffff05
}
 c0021b8:	e12fff1e 	bx	lr
 c0021bc:	0c002144 	.word	0x0c002144
 c0021c0:	0c7fffff 	.word	0x0c7fffff

0c0021c4 <reverse>:

/*********************************************************************************************
* Funcion auxiliar que da la vuelta un string
*********************************************************************************************/
 void reverse(char s[])
 {
 c0021c4:	e1a0c00d 	mov	ip, sp
 c0021c8:	e92dd818 	push	{r3, r4, fp, ip, lr, pc}
 c0021cc:	e24cb004 	sub	fp, ip, #4
 c0021d0:	e1a04000 	mov	r4, r0
     int i, j;
     char c;

     for (i = 0, j = strlen(s)-1; i<j; i++, j--) {
 c0021d4:	eb0022ec 	bl	c00ad8c <strlen>
 c0021d8:	e2400001 	sub	r0, r0, #1
 c0021dc:	e3500000 	cmp	r0, #0
 c0021e0:	da000008 	ble	c002208 <reverse+0x44>
 c0021e4:	e3a03000 	mov	r3, #0
         c = s[i];
 c0021e8:	e7d42003 	ldrb	r2, [r4, r3]
         s[i] = s[j];
 c0021ec:	e7d41000 	ldrb	r1, [r4, r0]
 c0021f0:	e7c41003 	strb	r1, [r4, r3]
         s[j] = c;
 c0021f4:	e7c42000 	strb	r2, [r4, r0]
 void reverse(char s[])
 {
     int i, j;
     char c;

     for (i = 0, j = strlen(s)-1; i<j; i++, j--) {
 c0021f8:	e2833001 	add	r3, r3, #1
 c0021fc:	e2400001 	sub	r0, r0, #1
 c002200:	e1530000 	cmp	r3, r0
 c002204:	bafffff7 	blt	c0021e8 <reverse+0x24>
         c = s[i];
         s[i] = s[j];
         s[j] = c;
     }
 }
 c002208:	e24bd014 	sub	sp, fp, #20
 c00220c:	e89d6818 	ldm	sp, {r3, r4, fp, sp, lr}
 c002210:	e12fff1e 	bx	lr

0c002214 <itoa>:
 /*********************************************************************************************
 * Funcion que convierte un entero a cadena de carácteres
 *********************************************************************************************/
void itoa(int n, char s[])
{
 c002214:	e1a0c00d 	mov	ip, sp

    if ((sign = n) < 0)  /* record sign */
        n = -n;          /* make n positive */
    i = 0;
    do {       /* generate digits in reverse order */
        s[i++] = n % 10 + '0';   /* get next digit */
 c002218:	e59f3094 	ldr	r3, [pc, #148]	; c0022b4 <itoa+0xa0>
 }
 /*********************************************************************************************
 * Funcion que convierte un entero a cadena de carácteres
 *********************************************************************************************/
void itoa(int n, char s[])
{
 c00221c:	e92dd830 	push	{r4, r5, fp, ip, lr, pc}
 c002220:	e24cb004 	sub	fp, ip, #4
 c002224:	e1a04001 	mov	r4, r1
 c002228:	e3a0c000 	mov	ip, #0
 void reverse(char s[])
 {
     int i, j;
     char c;

     for (i = 0, j = strlen(s)-1; i<j; i++, j--) {
 c00222c:	e0201fc0 	eor	r1, r0, r0, asr #31
 c002230:	e0411fc0 	sub	r1, r1, r0, asr #31

    if ((sign = n) < 0)  /* record sign */
        n = -n;          /* make n positive */
    i = 0;
    do {       /* generate digits in reverse order */
        s[i++] = n % 10 + '0';   /* get next digit */
 c002234:	e0ce2193 	smull	r2, lr, r3, r1
 c002238:	e1a02fc1 	asr	r2, r1, #31
 c00223c:	e062214e 	rsb	r2, r2, lr, asr #2
 c002240:	e0825102 	add	r5, r2, r2, lsl #2
 c002244:	e0411085 	sub	r1, r1, r5, lsl #1
 c002248:	e281e030 	add	lr, r1, #48	; 0x30
    } while ((n /= 10) > 0);     /* delete it */
 c00224c:	e2521000 	subs	r1, r2, #0

    if ((sign = n) < 0)  /* record sign */
        n = -n;          /* make n positive */
    i = 0;
    do {       /* generate digits in reverse order */
        s[i++] = n % 10 + '0';   /* get next digit */
 c002250:	e7c4e00c 	strb	lr, [r4, ip]
 c002254:	e28cc001 	add	ip, ip, #1
    } while ((n /= 10) > 0);     /* delete it */
 c002258:	cafffff5 	bgt	c002234 <itoa+0x20>
    if (sign < 0)
 c00225c:	e3500000 	cmp	r0, #0
        s[i++] = '-';
 c002260:	b3a0302d 	movlt	r3, #45	; 0x2d
 c002264:	b7c4300c 	strblt	r3, [r4, ip]
    s[i] = '\0';
 c002268:	e3a05000 	mov	r5, #0
    i = 0;
    do {       /* generate digits in reverse order */
        s[i++] = n % 10 + '0';   /* get next digit */
    } while ((n /= 10) > 0);     /* delete it */
    if (sign < 0)
        s[i++] = '-';
 c00226c:	b28cc001 	addlt	ip, ip, #1
    s[i] = '\0';
 c002270:	e7c4500c 	strb	r5, [r4, ip]
 void reverse(char s[])
 {
     int i, j;
     char c;

     for (i = 0, j = strlen(s)-1; i<j; i++, j--) {
 c002274:	e1a00004 	mov	r0, r4
 c002278:	eb0022c3 	bl	c00ad8c <strlen>
 c00227c:	e2400001 	sub	r0, r0, #1
 c002280:	e1500005 	cmp	r0, r5
 c002284:	da000007 	ble	c0022a8 <itoa+0x94>
         c = s[i];
 c002288:	e7d43005 	ldrb	r3, [r4, r5]
         s[i] = s[j];
 c00228c:	e7d4c000 	ldrb	ip, [r4, r0]
 c002290:	e7c4c005 	strb	ip, [r4, r5]
         s[j] = c;
 c002294:	e7c43000 	strb	r3, [r4, r0]
 void reverse(char s[])
 {
     int i, j;
     char c;

     for (i = 0, j = strlen(s)-1; i<j; i++, j--) {
 c002298:	e2855001 	add	r5, r5, #1
 c00229c:	e2400001 	sub	r0, r0, #1
 c0022a0:	e1550000 	cmp	r5, r0
 c0022a4:	bafffff7 	blt	c002288 <itoa+0x74>
    } while ((n /= 10) > 0);     /* delete it */
    if (sign < 0)
        s[i++] = '-';
    s[i] = '\0';
    reverse(s);
}
 c0022a8:	e24bd014 	sub	sp, fp, #20
 c0022ac:	e89d6830 	ldm	sp, {r4, r5, fp, sp, lr}
 c0022b0:	e12fff1e 	bx	lr
 c0022b4:	66666667 	.word	0x66666667

0c0022b8 <jugada_x_pantalla>:

/*********************************************************************************************
* Autómata de juego. Gestiona la interaccion del usuario (utilizando la pantalla y los botones)
* con la interfaz del juego y la partida.
*********************************************************************************************/
void jugada_x_pantalla(ID_evento evento, uint32_t info ){
 c0022b8:	e1a0c00d 	mov	ip, sp
	static int mov_valido=0;
	static int x=0,y=0;
	static int fin=0;
	static int blancas=0,negras=0;
	static int esquina=0;
	if(evento==ev_tactil){
 c0022bc:	e3500004 	cmp	r0, #4

/*********************************************************************************************
* Autómata de juego. Gestiona la interaccion del usuario (utilizando la pantalla y los botones)
* con la interfaz del juego y la partida.
*********************************************************************************************/
void jugada_x_pantalla(ID_evento evento, uint32_t info ){
 c0022c0:	e92dddf0 	push	{r4, r5, r6, r7, r8, sl, fp, ip, lr, pc}
 c0022c4:	e24cb004 	sub	fp, ip, #4
	static int mov_valido=0;
	static int x=0,y=0;
	static int fin=0;
	static int blancas=0,negras=0;
	static int esquina=0;
	if(evento==ev_tactil){
 c0022c8:	0a000052 	beq	c002418 <jugada_x_pantalla+0x160>
 c0022cc:	e59f42b4 	ldr	r4, [pc, #692]	; c002588 <jugada_x_pantalla+0x2d0>
 c0022d0:	e8940104 	ldm	r4, {r2, r8}
			{CASILLA_VACIA,CASILLA_VACIA,CASILLA_VACIA,CASILLA_VACIA,CASILLA_VACIA,CASILLA_VACIA,CASILLA_VACIA,CASILLA_VACIA},
			{CASILLA_VACIA,CASILLA_VACIA,CASILLA_VACIA,CASILLA_VACIA,CASILLA_VACIA,CASILLA_VACIA,CASILLA_VACIA,CASILLA_VACIA},
			{CASILLA_VACIA,CASILLA_VACIA,CASILLA_VACIA,CASILLA_VACIA,CASILLA_VACIA,CASILLA_VACIA,CASILLA_VACIA,CASILLA_VACIA}
	};
//-----------------------------------------------------------------------------------------------------
	if( (estado==INICIAL) & (evento==ev_tactil) & (220<x) & (x<=319) & (170<=y) & (y<=239) ){
 c0022d4:	e59f52b0 	ldr	r5, [pc, #688]	; c00258c <jugada_x_pantalla+0x2d4>
 c0022d8:	e2403004 	sub	r3, r0, #4
 c0022dc:	e273a000 	rsbs	sl, r3, #0
 c0022e0:	e595c000 	ldr	ip, [r5]
 c0022e4:	e0aaa003 	adc	sl, sl, r3
 c0022e8:	e35c0000 	cmp	ip, #0
 c0022ec:	13a03000 	movne	r3, #0
 c0022f0:	020a3001 	andeq	r3, sl, #1
 c0022f4:	e35200dc 	cmp	r2, #220	; 0xdc
 c0022f8:	d3a06000 	movle	r6, #0
 c0022fc:	c3a06001 	movgt	r6, #1
 c002300:	e3520d05 	cmp	r2, #320	; 0x140
 c002304:	a3a06000 	movge	r6, #0
 c002308:	e0066003 	and	r6, r6, r3
 c00230c:	e35800a9 	cmp	r8, #169	; 0xa9
 c002310:	d3a06000 	movle	r6, #0
 c002314:	c2066001 	andgt	r6, r6, #1
 c002318:	e35800ef 	cmp	r8, #239	; 0xef
 c00231c:	c3a06000 	movgt	r6, #0
 c002320:	d2066001 	andle	r6, r6, #1
 c002324:	e3560000 	cmp	r6, #0
 c002328:	1a000042 	bne	c002438 <jugada_x_pantalla+0x180>
		LCD_pantalla(PANTALLA_CALIBRADO);	// pantalla a imprimir
		esquina=0;
		LCD_esquina(esquina);				// esquina a imprimir
		LCD_Hay_cambios();					// CAMBIOS_LCD (indica a dma que hay que iniciar transmision)
//-----------------------------------------------------------------------------------------------------
	}else if( (estado==INICIAL) & (evento==ev_tactil)  ){
 c00232c:	e3530000 	cmp	r3, #0
 c002330:	1a00004c 	bne	c002468 <jugada_x_pantalla+0x1b0>
		LCD_pantalla(PANTALLA_JUEGO);		// pantalla a imprimir
		LCD_tablero(tablero);				// tablero a imprimir
		LCD_movimiento(fila,columna);		// ficha gris a imprimir
		LCD_Hay_cambios();					// CAMBIOS_LCD
//-----------------------------------------------------------------------------------------------------
	}else if( (estado==JUEGO) & ((evento==ev_pulsacion) | (evento==ev_mantener)) ){
 c002334:	e24c3001 	sub	r3, ip, #1
 c002338:	e2737000 	rsbs	r7, r3, #0
 c00233c:	e2400002 	sub	r0, r0, #2
 c002340:	e0a77003 	adc	r7, r7, r3
 c002344:	e3500001 	cmp	r0, #1
 c002348:	935c0001 	cmpls	ip, #1
 c00234c:	1a00000f 	bne	c002390 <jugada_x_pantalla+0xd8>
		if(info==button_dr){				// JUEGO
 c002350:	e3510002 	cmp	r1, #2
			columna=(columna+1)%DIM;
 c002354:	05d41091 	ldrbeq	r1, [r4, #145]	; 0x91
		}else{
			fila=(fila+1)%DIM;
 c002358:	15d40090 	ldrbne	r0, [r4, #144]	; 0x90
		LCD_movimiento(fila,columna);		// ficha gris a imprimir
		LCD_Hay_cambios();					// CAMBIOS_LCD
//-----------------------------------------------------------------------------------------------------
	}else if( (estado==JUEGO) & ((evento==ev_pulsacion) | (evento==ev_mantener)) ){
		if(info==button_dr){				// JUEGO
			columna=(columna+1)%DIM;
 c00235c:	02811001 	addeq	r1, r1, #1
		}else{
			fila=(fila+1)%DIM;
 c002360:	12800001 	addne	r0, r0, #1
		LCD_movimiento(fila,columna);		// ficha gris a imprimir
		LCD_Hay_cambios();					// CAMBIOS_LCD
//-----------------------------------------------------------------------------------------------------
	}else if( (estado==JUEGO) & ((evento==ev_pulsacion) | (evento==ev_mantener)) ){
		if(info==button_dr){				// JUEGO
			columna=(columna+1)%DIM;
 c002364:	02011007 	andeq	r1, r1, #7
		}else{
			fila=(fila+1)%DIM;
 c002368:	12000007 	andne	r0, r0, #7
		LCD_movimiento(fila,columna);		// ficha gris a imprimir
		LCD_Hay_cambios();					// CAMBIOS_LCD
//-----------------------------------------------------------------------------------------------------
	}else if( (estado==JUEGO) & ((evento==ev_pulsacion) | (evento==ev_mantener)) ){
		if(info==button_dr){				// JUEGO
			columna=(columna+1)%DIM;
 c00236c:	05c41091 	strbeq	r1, [r4, #145]	; 0x91
 c002370:	05d40090 	ldrbeq	r0, [r4, #144]	; 0x90
		}else{
			fila=(fila+1)%DIM;
 c002374:	15c40090 	strbne	r0, [r4, #144]	; 0x90
 c002378:	15d41091 	ldrbne	r1, [r4, #145]	; 0x91
		init_table(tablero,candidatas);		// inicializar partida
		fila=0;
		columna=0;
		LCD_pantalla(PANTALLA_JUEGO);		// pantalla a imprimir
		LCD_tablero(tablero);				// tablero a imprimir
		LCD_movimiento(fila,columna);		// ficha gris a imprimir
 c00237c:	eb0011e3 	bl	c006b10 <LCD_movimiento>
		LCD_Hay_cambios();					// CAMBIOS_LCD
 c002380:	eb0013fb 	bl	c007374 <LCD_Hay_cambios>
	}else if( (estado==FINAL) & (evento==ev_tactil) & (y<=119) ){
		estado=INICIAL;						// FINAL -> INICIAL
		LCD_pantalla(PANTALLA_INICIO);		// pantalla a imprimir
		LCD_Hay_cambios();					// CAMBIOS_LCD
	}
}
 c002384:	e24bd024 	sub	sp, fp, #36	; 0x24
 c002388:	e89d6df0 	ldm	sp, {r4, r5, r6, r7, r8, sl, fp, sp, lr}
 c00238c:	e12fff1e 	bx	lr
			fila=(fila+1)%DIM;
		}
		LCD_movimiento(fila,columna);		// ficha gris a imprimir
		LCD_Hay_cambios();					// CAMBIOS_LCD
//-----------------------------------------------------------------------------------------------------
	}else if( (estado==JUEGO) & (evento==ev_tactil) & (110<=x) ){
 c002390:	e00a7007 	and	r7, sl, r7
 c002394:	e352006d 	cmp	r2, #109	; 0x6d
 c002398:	d3a03000 	movle	r3, #0
 c00239c:	c2073001 	andgt	r3, r7, #1
 c0023a0:	e3530000 	cmp	r3, #0
 c0023a4:	1a00003d 	bne	c0024a0 <jugada_x_pantalla+0x1e8>
			LCD_fichas(blancas,negras);		// resultado a imprimir
			LCD_pantalla(PANTALLA_FINAL);	// pantalla a imprimir
		}
		LCD_Hay_cambios();					// CAMBIOS_LCD
//-----------------------------------------------------------------------------------------------------
	}else if( (estado==JUEGO) & (evento==ev_tactil) & (x<=109) ){
 c0023a8:	e352006d 	cmp	r2, #109	; 0x6d
 c0023ac:	c3a07000 	movgt	r7, #0
 c0023b0:	d2077001 	andle	r7, r7, #1
 c0023b4:	e3570000 	cmp	r7, #0
 c0023b8:	1a000060 	bne	c002540 <jugada_x_pantalla+0x288>
		estado=INICIAL;						// JUEGO -> INICIAL
		LCD_pantalla(PANTALLA_INICIO);		// pantalla a imprimir
		LCD_Hay_cambios();					// CAMBIOS_LCD
//-----------------------------------------------------------------------------------------------------
	}else if( (estado==CALIBRADO) & (evento==ev_tactil) ){
 c0023bc:	e35c0003 	cmp	ip, #3
 c0023c0:	13a06000 	movne	r6, #0
 c0023c4:	020a6001 	andeq	r6, sl, #1
 c0023c8:	e3560000 	cmp	r6, #0
 c0023cc:	1a00004e 	bne	c00250c <jugada_x_pantalla+0x254>
			estado=INICIAL;					// CALIBRADO -> INICIAL
			LCD_pantalla(PANTALLA_INICIO);	// pantalla a imprimir
		}
		LCD_Hay_cambios();					// CAMBIOS_LCD
//-----------------------------------------------------------------------------------------------------
	}else if( (estado==FINAL) & (evento==ev_tactil) & (120<=y) ){
 c0023d0:	e35c0002 	cmp	ip, #2
 c0023d4:	13a0c000 	movne	ip, #0
 c0023d8:	020ac001 	andeq	ip, sl, #1
 c0023dc:	e3580077 	cmp	r8, #119	; 0x77
 c0023e0:	d3a03000 	movle	r3, #0
 c0023e4:	c20c3001 	andgt	r3, ip, #1
 c0023e8:	e3530000 	cmp	r3, #0
 c0023ec:	1a00001d 	bne	c002468 <jugada_x_pantalla+0x1b0>
		LCD_pantalla(PANTALLA_JUEGO);		// pantalla a imprimir
		LCD_tablero(tablero);				// tablero a imprimir
		LCD_movimiento(fila,columna);		// ficha gris a imprimir
		LCD_Hay_cambios();					// CAMBIOS_LCD
//-----------------------------------------------------------------------------------------------------
	}else if( (estado==FINAL) & (evento==ev_tactil) & (y<=119) ){
 c0023f0:	e3580077 	cmp	r8, #119	; 0x77
 c0023f4:	c3a0c000 	movgt	ip, #0
 c0023f8:	d20cc001 	andle	ip, ip, #1
 c0023fc:	e35c0000 	cmp	ip, #0
 c002400:	0affffdf 	beq	c002384 <jugada_x_pantalla+0xcc>
		estado=INICIAL;						// FINAL -> INICIAL
		LCD_pantalla(PANTALLA_INICIO);		// pantalla a imprimir
 c002404:	e1a00003 	mov	r0, r3
		LCD_tablero(tablero);				// tablero a imprimir
		LCD_movimiento(fila,columna);		// ficha gris a imprimir
		LCD_Hay_cambios();					// CAMBIOS_LCD
//-----------------------------------------------------------------------------------------------------
	}else if( (estado==FINAL) & (evento==ev_tactil) & (y<=119) ){
		estado=INICIAL;						// FINAL -> INICIAL
 c002408:	e5853000 	str	r3, [r5]
		LCD_pantalla(PANTALLA_INICIO);		// pantalla a imprimir
 c00240c:	eb0011b9 	bl	c006af8 <LCD_pantalla>
		LCD_Hay_cambios();					// CAMBIOS_LCD
 c002410:	eb0013d7 	bl	c007374 <LCD_Hay_cambios>
 c002414:	eaffffda 	b	c002384 <jugada_x_pantalla+0xcc>
	static int fin=0;
	static int blancas=0,negras=0;
	static int esquina=0;
	if(evento==ev_tactil){
		x=info&0x00000fff;		// leemos coordenadas de la pulsacion en el tp
		y=((info&0x00fff000)>>12);
 c002418:	e59f3170 	ldr	r3, [pc, #368]	; c002590 <jugada_x_pantalla+0x2d8>
	static int x=0,y=0;
	static int fin=0;
	static int blancas=0,negras=0;
	static int esquina=0;
	if(evento==ev_tactil){
		x=info&0x00000fff;		// leemos coordenadas de la pulsacion en el tp
 c00241c:	e59f4164 	ldr	r4, [pc, #356]	; c002588 <jugada_x_pantalla+0x2d0>
 c002420:	e1a02a01 	lsl	r2, r1, #20
		y=((info&0x00fff000)>>12);
 c002424:	e0018003 	and	r8, r1, r3
	static int x=0,y=0;
	static int fin=0;
	static int blancas=0,negras=0;
	static int esquina=0;
	if(evento==ev_tactil){
		x=info&0x00000fff;		// leemos coordenadas de la pulsacion en el tp
 c002428:	e1a02a22 	lsr	r2, r2, #20
		y=((info&0x00fff000)>>12);
 c00242c:	e1a08628 	lsr	r8, r8, #12
	static int x=0,y=0;
	static int fin=0;
	static int blancas=0,negras=0;
	static int esquina=0;
	if(evento==ev_tactil){
		x=info&0x00000fff;		// leemos coordenadas de la pulsacion en el tp
 c002430:	e8840104 	stm	r4, {r2, r8}
 c002434:	eaffffa6 	b	c0022d4 <jugada_x_pantalla+0x1c>
			{CASILLA_VACIA,CASILLA_VACIA,CASILLA_VACIA,CASILLA_VACIA,CASILLA_VACIA,CASILLA_VACIA,CASILLA_VACIA,CASILLA_VACIA},
			{CASILLA_VACIA,CASILLA_VACIA,CASILLA_VACIA,CASILLA_VACIA,CASILLA_VACIA,CASILLA_VACIA,CASILLA_VACIA,CASILLA_VACIA}
	};
//-----------------------------------------------------------------------------------------------------
	if( (estado==INICIAL) & (evento==ev_tactil) & (220<x) & (x<=319) & (170<=y) & (y<=239) ){
		estado=CALIBRADO;					// INICIAL -> CALIBRADO
 c002438:	e3a06003 	mov	r6, #3
		touchpad_setCalibrar(4);			// tp_ISR calcula nuevos maximos en proximas 4 pulsaciones
 c00243c:	e3a00004 	mov	r0, #4
			{CASILLA_VACIA,CASILLA_VACIA,CASILLA_VACIA,CASILLA_VACIA,CASILLA_VACIA,CASILLA_VACIA,CASILLA_VACIA,CASILLA_VACIA},
			{CASILLA_VACIA,CASILLA_VACIA,CASILLA_VACIA,CASILLA_VACIA,CASILLA_VACIA,CASILLA_VACIA,CASILLA_VACIA,CASILLA_VACIA}
	};
//-----------------------------------------------------------------------------------------------------
	if( (estado==INICIAL) & (evento==ev_tactil) & (220<x) & (x<=319) & (170<=y) & (y<=239) ){
		estado=CALIBRADO;					// INICIAL -> CALIBRADO
 c002440:	e5856000 	str	r6, [r5]
		touchpad_setCalibrar(4);			// tp_ISR calcula nuevos maximos en proximas 4 pulsaciones
 c002444:	eb001ed9 	bl	c009fb0 <touchpad_setCalibrar>
		LCD_pantalla(PANTALLA_CALIBRADO);	// pantalla a imprimir
 c002448:	e1a00006 	mov	r0, r6
 c00244c:	eb0011a9 	bl	c006af8 <LCD_pantalla>
		esquina=0;
 c002450:	e3a01000 	mov	r1, #0
		LCD_esquina(esquina);				// esquina a imprimir
 c002454:	e1a00001 	mov	r0, r1
//-----------------------------------------------------------------------------------------------------
	if( (estado==INICIAL) & (evento==ev_tactil) & (220<x) & (x<=319) & (170<=y) & (y<=239) ){
		estado=CALIBRADO;					// INICIAL -> CALIBRADO
		touchpad_setCalibrar(4);			// tp_ISR calcula nuevos maximos en proximas 4 pulsaciones
		LCD_pantalla(PANTALLA_CALIBRADO);	// pantalla a imprimir
		esquina=0;
 c002458:	e5841008 	str	r1, [r4, #8]
		LCD_esquina(esquina);				// esquina a imprimir
 c00245c:	eb0013b6 	bl	c00733c <LCD_esquina>
		LCD_Hay_cambios();					// CAMBIOS_LCD (indica a dma que hay que iniciar transmision)
 c002460:	eb0013c3 	bl	c007374 <LCD_Hay_cambios>
 c002464:	eaffffc6 	b	c002384 <jugada_x_pantalla+0xcc>
		}
		LCD_Hay_cambios();					// CAMBIOS_LCD
//-----------------------------------------------------------------------------------------------------
	}else if( (estado==FINAL) & (evento==ev_tactil) & (120<=y) ){
		estado=JUEGO;						// FINAL -> JUEGO
		init_table(tablero,candidatas);		// inicializar partida
 c002468:	e59f0124 	ldr	r0, [pc, #292]	; c002594 <jugada_x_pantalla+0x2dc>
			LCD_pantalla(PANTALLA_INICIO);	// pantalla a imprimir
		}
		LCD_Hay_cambios();					// CAMBIOS_LCD
//-----------------------------------------------------------------------------------------------------
	}else if( (estado==FINAL) & (evento==ev_tactil) & (120<=y) ){
		estado=JUEGO;						// FINAL -> JUEGO
 c00246c:	e3a07001 	mov	r7, #1
		init_table(tablero,candidatas);		// inicializar partida
 c002470:	e2801040 	add	r1, r0, #64	; 0x40
			LCD_pantalla(PANTALLA_INICIO);	// pantalla a imprimir
		}
		LCD_Hay_cambios();					// CAMBIOS_LCD
//-----------------------------------------------------------------------------------------------------
	}else if( (estado==FINAL) & (evento==ev_tactil) & (120<=y) ){
		estado=JUEGO;						// FINAL -> JUEGO
 c002474:	e5857000 	str	r7, [r5]
		init_table(tablero,candidatas);		// inicializar partida
 c002478:	eb00160c 	bl	c007cb0 <init_table>
		fila=0;
		columna=0;
		LCD_pantalla(PANTALLA_JUEGO);		// pantalla a imprimir
 c00247c:	e1a00007 	mov	r0, r7
		LCD_Hay_cambios();					// CAMBIOS_LCD
//-----------------------------------------------------------------------------------------------------
	}else if( (estado==FINAL) & (evento==ev_tactil) & (120<=y) ){
		estado=JUEGO;						// FINAL -> JUEGO
		init_table(tablero,candidatas);		// inicializar partida
		fila=0;
 c002480:	e5c46090 	strb	r6, [r4, #144]	; 0x90
		columna=0;
 c002484:	e5c46091 	strb	r6, [r4, #145]	; 0x91
		LCD_pantalla(PANTALLA_JUEGO);		// pantalla a imprimir
 c002488:	eb00119a 	bl	c006af8 <LCD_pantalla>
		LCD_tablero(tablero);				// tablero a imprimir
 c00248c:	e59f0100 	ldr	r0, [pc, #256]	; c002594 <jugada_x_pantalla+0x2dc>
 c002490:	eb0011a3 	bl	c006b24 <LCD_tablero>
		LCD_movimiento(fila,columna);		// ficha gris a imprimir
 c002494:	e5d40090 	ldrb	r0, [r4, #144]	; 0x90
 c002498:	e5d41091 	ldrb	r1, [r4, #145]	; 0x91
 c00249c:	eaffffb6 	b	c00237c <jugada_x_pantalla+0xc4>
		LCD_movimiento(fila,columna);		// ficha gris a imprimir
		LCD_Hay_cambios();					// CAMBIOS_LCD
//-----------------------------------------------------------------------------------------------------
	}else if( (estado==JUEGO) & (evento==ev_tactil) & (110<=x) ){
											// JUEGO
		mov_valido=movimiento_valido(tablero, fila, columna);
 c0024a0:	e59f60e0 	ldr	r6, [pc, #224]	; c002588 <jugada_x_pantalla+0x2d0>
 c0024a4:	e5d42091 	ldrb	r2, [r4, #145]	; 0x91
 c0024a8:	e5d41090 	ldrb	r1, [r4, #144]	; 0x90
 c0024ac:	e2860010 	add	r0, r6, #16
 c0024b0:	eb001935 	bl	c00898c <movimiento_valido>
		fin=0;								// Comprobamos si el movimiento es válido
		if(mov_valido==1){					// Si es válido, ejecutamos movimiento y movimiento máquina.
 c0024b4:	e3500001 	cmp	r0, #1
			fin=reversi_procesar(tablero,candidatas,fila,columna);
		}else{								// Si no es valido, solo ejecuta movimiento la máquina.
			fin=reversi_procesar(tablero,candidatas,9,9);
 c0024b8:	13a02009 	movne	r2, #9
	}else if( (estado==JUEGO) & (evento==ev_tactil) & (110<=x) ){
											// JUEGO
		mov_valido=movimiento_valido(tablero, fila, columna);
		fin=0;								// Comprobamos si el movimiento es válido
		if(mov_valido==1){					// Si es válido, ejecutamos movimiento y movimiento máquina.
			fin=reversi_procesar(tablero,candidatas,fila,columna);
 c0024bc:	05d63091 	ldrbeq	r3, [r6, #145]	; 0x91
		}else{								// Si no es valido, solo ejecuta movimiento la máquina.
			fin=reversi_procesar(tablero,candidatas,9,9);
 c0024c0:	11a03002 	movne	r3, r2
	}else if( (estado==JUEGO) & (evento==ev_tactil) & (110<=x) ){
											// JUEGO
		mov_valido=movimiento_valido(tablero, fila, columna);
		fin=0;								// Comprobamos si el movimiento es válido
		if(mov_valido==1){					// Si es válido, ejecutamos movimiento y movimiento máquina.
			fin=reversi_procesar(tablero,candidatas,fila,columna);
 c0024c4:	02860010 	addeq	r0, r6, #16
 c0024c8:	02861050 	addeq	r1, r6, #80	; 0x50
 c0024cc:	05d62090 	ldrbeq	r2, [r6, #144]	; 0x90
		}else{								// Si no es valido, solo ejecuta movimiento la máquina.
			fin=reversi_procesar(tablero,candidatas,9,9);
 c0024d0:	12860010 	addne	r0, r6, #16
 c0024d4:	12861050 	addne	r1, r6, #80	; 0x50
 c0024d8:	eb00194e 	bl	c008a18 <reversi_procesar>
		}
		if(fin==0){
 c0024dc:	e3500000 	cmp	r0, #0
		mov_valido=movimiento_valido(tablero, fila, columna);
		fin=0;								// Comprobamos si el movimiento es válido
		if(mov_valido==1){					// Si es válido, ejecutamos movimiento y movimiento máquina.
			fin=reversi_procesar(tablero,candidatas,fila,columna);
		}else{								// Si no es valido, solo ejecuta movimiento la máquina.
			fin=reversi_procesar(tablero,candidatas,9,9);
 c0024e0:	e1a03000 	mov	r3, r0
		}
		if(fin==0){
 c0024e4:	1a00001a 	bne	c002554 <jugada_x_pantalla+0x29c>
			fila=0;
			columna=0;
			LCD_tablero(tablero);			// tablero a imprimir
 c0024e8:	e59f00a4 	ldr	r0, [pc, #164]	; c002594 <jugada_x_pantalla+0x2dc>
			fin=reversi_procesar(tablero,candidatas,fila,columna);
		}else{								// Si no es valido, solo ejecuta movimiento la máquina.
			fin=reversi_procesar(tablero,candidatas,9,9);
		}
		if(fin==0){
			fila=0;
 c0024ec:	e5c43090 	strb	r3, [r4, #144]	; 0x90
			columna=0;
 c0024f0:	e5c43091 	strb	r3, [r4, #145]	; 0x91
			LCD_tablero(tablero);			// tablero a imprimir
 c0024f4:	eb00118a 	bl	c006b24 <LCD_tablero>
			LCD_movimiento(fila,columna);	// ficha gris a imprimir
 c0024f8:	e5d40090 	ldrb	r0, [r4, #144]	; 0x90
 c0024fc:	e5d41091 	ldrb	r1, [r4, #145]	; 0x91
 c002500:	eb001182 	bl	c006b10 <LCD_movimiento>
		LCD_Hay_cambios();					// CAMBIOS_LCD
//-----------------------------------------------------------------------------------------------------
	}else if( (estado==FINAL) & (evento==ev_tactil) & (y<=119) ){
		estado=INICIAL;						// FINAL -> INICIAL
		LCD_pantalla(PANTALLA_INICIO);		// pantalla a imprimir
		LCD_Hay_cambios();					// CAMBIOS_LCD
 c002504:	eb00139a 	bl	c007374 <LCD_Hay_cambios>
 c002508:	eaffff9d 	b	c002384 <jugada_x_pantalla+0xcc>
		estado=INICIAL;						// JUEGO -> INICIAL
		LCD_pantalla(PANTALLA_INICIO);		// pantalla a imprimir
		LCD_Hay_cambios();					// CAMBIOS_LCD
//-----------------------------------------------------------------------------------------------------
	}else if( (estado==CALIBRADO) & (evento==ev_tactil) ){
		esquina++;							// CALIBRADO
 c00250c:	e594e008 	ldr	lr, [r4, #8]
 c002510:	e28ec001 	add	ip, lr, #1
		LCD_esquina(esquina);				// esquina a imprimir
 c002514:	e1a0000c 	mov	r0, ip
		estado=INICIAL;						// JUEGO -> INICIAL
		LCD_pantalla(PANTALLA_INICIO);		// pantalla a imprimir
		LCD_Hay_cambios();					// CAMBIOS_LCD
//-----------------------------------------------------------------------------------------------------
	}else if( (estado==CALIBRADO) & (evento==ev_tactil) ){
		esquina++;							// CALIBRADO
 c002518:	e584c008 	str	ip, [r4, #8]
		LCD_esquina(esquina);				// esquina a imprimir
 c00251c:	eb001386 	bl	c00733c <LCD_esquina>
		if(esquina==4){
 c002520:	e5940008 	ldr	r0, [r4, #8]
 c002524:	e3500004 	cmp	r0, #4
 c002528:	1affffb8 	bne	c002410 <jugada_x_pantalla+0x158>
			estado=INICIAL;					// CALIBRADO -> INICIAL
			LCD_pantalla(PANTALLA_INICIO);	// pantalla a imprimir
 c00252c:	e1a00007 	mov	r0, r7
//-----------------------------------------------------------------------------------------------------
	}else if( (estado==CALIBRADO) & (evento==ev_tactil) ){
		esquina++;							// CALIBRADO
		LCD_esquina(esquina);				// esquina a imprimir
		if(esquina==4){
			estado=INICIAL;					// CALIBRADO -> INICIAL
 c002530:	e5857000 	str	r7, [r5]
			LCD_pantalla(PANTALLA_INICIO);	// pantalla a imprimir
 c002534:	eb00116f 	bl	c006af8 <LCD_pantalla>
		LCD_Hay_cambios();					// CAMBIOS_LCD
//-----------------------------------------------------------------------------------------------------
	}else if( (estado==FINAL) & (evento==ev_tactil) & (y<=119) ){
		estado=INICIAL;						// FINAL -> INICIAL
		LCD_pantalla(PANTALLA_INICIO);		// pantalla a imprimir
		LCD_Hay_cambios();					// CAMBIOS_LCD
 c002538:	eb00138d 	bl	c007374 <LCD_Hay_cambios>
 c00253c:	eaffff90 	b	c002384 <jugada_x_pantalla+0xcc>
		}
		LCD_Hay_cambios();					// CAMBIOS_LCD
//-----------------------------------------------------------------------------------------------------
	}else if( (estado==JUEGO) & (evento==ev_tactil) & (x<=109) ){
		estado=INICIAL;						// JUEGO -> INICIAL
		LCD_pantalla(PANTALLA_INICIO);		// pantalla a imprimir
 c002540:	e1a00003 	mov	r0, r3
			LCD_pantalla(PANTALLA_FINAL);	// pantalla a imprimir
		}
		LCD_Hay_cambios();					// CAMBIOS_LCD
//-----------------------------------------------------------------------------------------------------
	}else if( (estado==JUEGO) & (evento==ev_tactil) & (x<=109) ){
		estado=INICIAL;						// JUEGO -> INICIAL
 c002544:	e5853000 	str	r3, [r5]
		LCD_pantalla(PANTALLA_INICIO);		// pantalla a imprimir
 c002548:	eb00116a 	bl	c006af8 <LCD_pantalla>
		LCD_Hay_cambios();					// CAMBIOS_LCD
 c00254c:	eb001388 	bl	c007374 <LCD_Hay_cambios>
 c002550:	eaffff8b 	b	c002384 <jugada_x_pantalla+0xcc>
			columna=0;
			LCD_tablero(tablero);			// tablero a imprimir
			LCD_movimiento(fila,columna);	// ficha gris a imprimir
		}else{
			estado=FINAL;					// JUEGO -> FINAL
			contar(tablero,&blancas,&negras);
 c002554:	e59f0038 	ldr	r0, [pc, #56]	; c002594 <jugada_x_pantalla+0x2dc>
			fila=0;
			columna=0;
			LCD_tablero(tablero);			// tablero a imprimir
			LCD_movimiento(fila,columna);	// ficha gris a imprimir
		}else{
			estado=FINAL;					// JUEGO -> FINAL
 c002558:	e3a06002 	mov	r6, #2
			contar(tablero,&blancas,&negras);
 c00255c:	e2802088 	add	r2, r0, #136	; 0x88
 c002560:	e2801084 	add	r1, r0, #132	; 0x84
			fila=0;
			columna=0;
			LCD_tablero(tablero);			// tablero a imprimir
			LCD_movimiento(fila,columna);	// ficha gris a imprimir
		}else{
			estado=FINAL;					// JUEGO -> FINAL
 c002564:	e5856000 	str	r6, [r5]
			contar(tablero,&blancas,&negras);
 c002568:	eb001843 	bl	c00867c <contar>
			LCD_fichas(blancas,negras);		// resultado a imprimir
 c00256c:	e2840094 	add	r0, r4, #148	; 0x94
 c002570:	e8900003 	ldm	r0, {r0, r1}
 c002574:	eb001374 	bl	c00734c <LCD_fichas>
			LCD_pantalla(PANTALLA_FINAL);	// pantalla a imprimir
 c002578:	e1a00006 	mov	r0, r6
 c00257c:	eb00115d 	bl	c006af8 <LCD_pantalla>
		LCD_Hay_cambios();					// CAMBIOS_LCD
//-----------------------------------------------------------------------------------------------------
	}else if( (estado==FINAL) & (evento==ev_tactil) & (y<=119) ){
		estado=INICIAL;						// FINAL -> INICIAL
		LCD_pantalla(PANTALLA_INICIO);		// pantalla a imprimir
		LCD_Hay_cambios();					// CAMBIOS_LCD
 c002580:	eb00137b 	bl	c007374 <LCD_Hay_cambios>
 c002584:	eaffff7e 	b	c002384 <jugada_x_pantalla+0xcc>
 c002588:	0c00cd50 	.word	0x0c00cd50
 c00258c:	0c00ae44 	.word	0x0c00ae44
 c002590:	00fff000 	.word	0x00fff000
 c002594:	0c00cd60 	.word	0x0c00cd60

0c002598 <Latido_ev_new_tick>:
/*--- codigo de funciones ---*/

/*
 * Cuenta el tiempo y decide si enciende/apaga el led
 */
void Latido_ev_new_tick(){
 c002598:	e1a0c00d 	mov	ip, sp
 c00259c:	e92dd818 	push	{r3, r4, fp, ip, lr, pc}
	static int ev_new_tick=0;
	ev_new_tick++;
 c0025a0:	e59f403c 	ldr	r4, [pc, #60]	; c0025e4 <Latido_ev_new_tick+0x4c>
 c0025a4:	e5943000 	ldr	r3, [r4]
 c0025a8:	e2833001 	add	r3, r3, #1
	if(ev_new_tick==8){			// primeros 8 ticks encendido
 c0025ac:	e3530008 	cmp	r3, #8
/*--- codigo de funciones ---*/

/*
 * Cuenta el tiempo y decide si enciende/apaga el led
 */
void Latido_ev_new_tick(){
 c0025b0:	e24cb004 	sub	fp, ip, #4
	static int ev_new_tick=0;
	ev_new_tick++;
 c0025b4:	e5843000 	str	r3, [r4]
	if(ev_new_tick==8){			// primeros 8 ticks encendido
 c0025b8:	0a000007 	beq	c0025dc <Latido_ev_new_tick+0x44>
		led1_off();
	}else if(ev_new_tick>=15){	// ultimos 7 ticks apagado
 c0025bc:	e353000e 	cmp	r3, #14
 c0025c0:	da000002 	ble	c0025d0 <Latido_ev_new_tick+0x38>
		led1_on();
 c0025c4:	eb000b6a 	bl	c005374 <led1_on>
		ev_new_tick=0;
 c0025c8:	e3a00000 	mov	r0, #0
 c0025cc:	e5840000 	str	r0, [r4]
	}
}
 c0025d0:	e24bd014 	sub	sp, fp, #20
 c0025d4:	e89d6818 	ldm	sp, {r3, r4, fp, sp, lr}
 c0025d8:	e12fff1e 	bx	lr
 */
void Latido_ev_new_tick(){
	static int ev_new_tick=0;
	ev_new_tick++;
	if(ev_new_tick==8){			// primeros 8 ticks encendido
		led1_off();
 c0025dc:	eb000b77 	bl	c0053c0 <led1_off>
 c0025e0:	eafffffa 	b	c0025d0 <Latido_ev_new_tick+0x38>
 c0025e4:	0c00cdf0 	.word	0x0c00cdf0

0c0025e8 <Zdma0Done>:
* modify:
* comment:		
*********************************************************************************************/
//volatile static INT8U ucZdma0Done=1;	//When DMA is finish,ucZdma0Done is cleared to Zero
void Zdma0Done(void)
{
 c0025e8:	e52dc004 	push	{ip}		; (str ip, [sp, #-4]!)
 c0025ec:	e1a0c00d 	mov	ip, sp
 c0025f0:	e92dd80f 	push	{r0, r1, r2, r3, fp, ip, lr, pc}
	rI_ISPC=BIT_ZDMA0;	    //clear pending
 c0025f4:	e3a02702 	mov	r2, #524288	; 0x80000
 c0025f8:	e3a0361e 	mov	r3, #31457280	; 0x1e00000
* modify:
* comment:		
*********************************************************************************************/
//volatile static INT8U ucZdma0Done=1;	//When DMA is finish,ucZdma0Done is cleared to Zero
void Zdma0Done(void)
{
 c0025fc:	e24cb004 	sub	fp, ip, #4
	rI_ISPC=BIT_ZDMA0;	    //clear pending
	//ucZdma0Done=0;
	push_debug(ev_dma,0);	// comunicamos al programa principal que ha finalizado
 c002600:	e3a00005 	mov	r0, #5
 c002604:	e3a01000 	mov	r1, #0
* comment:		
*********************************************************************************************/
//volatile static INT8U ucZdma0Done=1;	//When DMA is finish,ucZdma0Done is cleared to Zero
void Zdma0Done(void)
{
	rI_ISPC=BIT_ZDMA0;	    //clear pending
 c002608:	e5832024 	str	r2, [r3, #36]	; 0x24
	//ucZdma0Done=0;
	push_debug(ev_dma,0);	// comunicamos al programa principal que ha finalizado
 c00260c:	ebfffe94 	bl	c002064 <push_debug>
}
 c002610:	e24bd01c 	sub	sp, fp, #28
 c002614:	e89d680f 	ldm	sp, {r0, r1, r2, r3, fp, sp, lr}
 c002618:	e49dc004 	pop	{ip}		; (ldr ip, [sp], #4)
 c00261c:	e25ef004 	subs	pc, lr, #4

0c002620 <Lcd_Init>:
extern INT8U g_auc_Ascii6x8[];

/*--- codigo de la funcion ---*/
void Lcd_Init(void)
{       
	rDITHMODE=0x1223a;
 c002620:	e59f20ac 	ldr	r2, [pc, #172]	; c0026d4 <Lcd_Init+0xb4>
	rDP1_2 =0x5a5a;      
 c002624:	e59f00ac 	ldr	r0, [pc, #172]	; c0026d8 <Lcd_Init+0xb8>
	rDP4_7 =0x366cd9b;
 c002628:	e59f30ac 	ldr	r3, [pc, #172]	; c0026dc <Lcd_Init+0xbc>
	rDP3_5 =0xda5a7;
 c00262c:	e59f10ac 	ldr	r1, [pc, #172]	; c0026e0 <Lcd_Init+0xc0>
extern INT8U g_auc_Ascii6x8[];

/*--- codigo de la funcion ---*/
void Lcd_Init(void)
{       
	rDITHMODE=0x1223a;
 c002630:	e3a0c61f 	mov	ip, #32505856	; 0x1f00000
 c002634:	e58c2044 	str	r2, [ip, #68]	; 0x44
	rDP1_2 =0x5a5a;      
 c002638:	e58c0020 	str	r0, [ip, #32]
	rDP4_7 =0x366cd9b;
 c00263c:	e58c3024 	str	r3, [ip, #36]	; 0x24
	rDP3_5 =0xda5a7;
	rDP2_3 =0xad7;
 c002640:	e59f009c 	ldr	r0, [pc, #156]	; c0026e4 <Lcd_Init+0xc4>
void Lcd_Init(void)
{       
	rDITHMODE=0x1223a;
	rDP1_2 =0x5a5a;      
	rDP4_7 =0x366cd9b;
	rDP3_5 =0xda5a7;
 c002644:	e58c1028 	str	r1, [ip, #40]	; 0x28
	rDP2_3 =0xad7;
	rDP5_7 =0xfeda5b7;
 c002648:	e59f3098 	ldr	r3, [pc, #152]	; c0026e8 <Lcd_Init+0xc8>
	rDP3_4 =0xebd7;
 c00264c:	e59f1098 	ldr	r1, [pc, #152]	; c0026ec <Lcd_Init+0xcc>
{       
	rDITHMODE=0x1223a;
	rDP1_2 =0x5a5a;      
	rDP4_7 =0x366cd9b;
	rDP3_5 =0xda5a7;
	rDP2_3 =0xad7;
 c002650:	e58c002c 	str	r0, [ip, #44]	; 0x2c
	rDP5_7 =0xfeda5b7;
 c002654:	e58c3030 	str	r3, [ip, #48]	; 0x30
	rDP3_4 =0xebd7;
	rDP4_5 =0xebfd7;
 c002658:	e59f0090 	ldr	r0, [pc, #144]	; c0026f0 <Lcd_Init+0xd0>
	rDP1_2 =0x5a5a;      
	rDP4_7 =0x366cd9b;
	rDP3_5 =0xda5a7;
	rDP2_3 =0xad7;
	rDP5_7 =0xfeda5b7;
	rDP3_4 =0xebd7;
 c00265c:	e58c1034 	str	r1, [ip, #52]	; 0x34
	rDP4_5 =0xebfd7;
	rDP6_7 =0x7efdfbf;
 c002660:	e59f308c 	ldr	r3, [pc, #140]	; c0026f4 <Lcd_Init+0xd4>

	rLCDCON1=(0)|(1<<5)|(MVAL_USED<<7)|(0x0<<8)|(0x0<<10)|(CLKVAL_GREY16<<12);
 c002664:	e59f108c 	ldr	r1, [pc, #140]	; c0026f8 <Lcd_Init+0xd8>
	rDP4_7 =0x366cd9b;
	rDP3_5 =0xda5a7;
	rDP2_3 =0xad7;
	rDP5_7 =0xfeda5b7;
	rDP3_4 =0xebd7;
	rDP4_5 =0xebfd7;
 c002668:	e58c0038 	str	r0, [ip, #56]	; 0x38
	rDP6_7 =0x7efdfbf;
 c00266c:	e58c303c 	str	r3, [ip, #60]	; 0x3c

	rLCDCON1=(0)|(1<<5)|(MVAL_USED<<7)|(0x0<<8)|(0x0<<10)|(CLKVAL_GREY16<<12);
	rLCDCON2=(LINEVAL)|(HOZVAL<<10)|(10<<21); 
 c002670:	e59f0084 	ldr	r0, [pc, #132]	; c0026fc <Lcd_Init+0xdc>
	rDP5_7 =0xfeda5b7;
	rDP3_4 =0xebd7;
	rDP4_5 =0xebfd7;
	rDP6_7 =0x7efdfbf;

	rLCDCON1=(0)|(1<<5)|(MVAL_USED<<7)|(0x0<<8)|(0x0<<10)|(CLKVAL_GREY16<<12);
 c002674:	e58c1000 	str	r1, [ip]
	rLCDCON2=(LINEVAL)|(HOZVAL<<10)|(10<<21); 
	rLCDSADDR1= (0x2<<27) | ( ((LCD_ACTIVE_BUFFER>>22)<<21 ) | M5D(LCD_ACTIVE_BUFFER>>1));
 c002678:	e59f3080 	ldr	r3, [pc, #128]	; c002700 <Lcd_Init+0xe0>
 	rLCDSADDR2= M5D(((LCD_ACTIVE_BUFFER+(SCR_XSIZE*LCD_YSIZE/2))>>1)) | (MVAL<<21);
 c00267c:	e59f1080 	ldr	r1, [pc, #128]	; c002704 <Lcd_Init+0xe4>
	rDP3_4 =0xebd7;
	rDP4_5 =0xebfd7;
	rDP6_7 =0x7efdfbf;

	rLCDCON1=(0)|(1<<5)|(MVAL_USED<<7)|(0x0<<8)|(0x0<<10)|(CLKVAL_GREY16<<12);
	rLCDCON2=(LINEVAL)|(HOZVAL<<10)|(10<<21); 
 c002680:	e58c0004 	str	r0, [ip, #4]
	rLCDSADDR1= (0x2<<27) | ( ((LCD_ACTIVE_BUFFER>>22)<<21 ) | M5D(LCD_ACTIVE_BUFFER>>1));
 c002684:	e58c3008 	str	r3, [ip, #8]
 	rLCDSADDR2= M5D(((LCD_ACTIVE_BUFFER+(SCR_XSIZE*LCD_YSIZE/2))>>1)) | (MVAL<<21);
 c002688:	e58c100c 	str	r1, [ip, #12]
	rLCDSADDR3= (LCD_XSIZE/4) | ( ((SCR_XSIZE-LCD_XSIZE)/4)<<9 );
	// enable,4B_SNGL_SCAN,WDLY=8clk,WLH=8clk,
	rLCDCON1=(1)|(1<<5)|(MVAL_USED<<7)|(0x3<<8)|(0x3<<10)|(CLKVAL_GREY16<<12);
 c00268c:	e59f3074 	ldr	r3, [pc, #116]	; c002708 <Lcd_Init+0xe8>
	rBLUELUT=0xfa40;
 c002690:	e59f1074 	ldr	r1, [pc, #116]	; c00270c <Lcd_Init+0xec>

	rLCDCON1=(0)|(1<<5)|(MVAL_USED<<7)|(0x0<<8)|(0x0<<10)|(CLKVAL_GREY16<<12);
	rLCDCON2=(LINEVAL)|(HOZVAL<<10)|(10<<21); 
	rLCDSADDR1= (0x2<<27) | ( ((LCD_ACTIVE_BUFFER>>22)<<21 ) | M5D(LCD_ACTIVE_BUFFER>>1));
 	rLCDSADDR2= M5D(((LCD_ACTIVE_BUFFER+(SCR_XSIZE*LCD_YSIZE/2))>>1)) | (MVAL<<21);
	rLCDSADDR3= (LCD_XSIZE/4) | ( ((SCR_XSIZE-LCD_XSIZE)/4)<<9 );
 c002694:	e3a00050 	mov	r0, #80	; 0x50
 c002698:	e58c0010 	str	r0, [ip, #16]
	// enable,4B_SNGL_SCAN,WDLY=8clk,WLH=8clk,
	rLCDCON1=(1)|(1<<5)|(MVAL_USED<<7)|(0x3<<8)|(0x3<<10)|(CLKVAL_GREY16<<12);
	rBLUELUT=0xfa40;
	//Enable LCD Logic and EL back-light.
	rPDATE=rPDATE&0x0e;
 c00269c:	e59f206c 	ldr	r2, [pc, #108]	; c002710 <Lcd_Init+0xf0>
	rLCDCON2=(LINEVAL)|(HOZVAL<<10)|(10<<21); 
	rLCDSADDR1= (0x2<<27) | ( ((LCD_ACTIVE_BUFFER>>22)<<21 ) | M5D(LCD_ACTIVE_BUFFER>>1));
 	rLCDSADDR2= M5D(((LCD_ACTIVE_BUFFER+(SCR_XSIZE*LCD_YSIZE/2))>>1)) | (MVAL<<21);
	rLCDSADDR3= (LCD_XSIZE/4) | ( ((SCR_XSIZE-LCD_XSIZE)/4)<<9 );
	// enable,4B_SNGL_SCAN,WDLY=8clk,WLH=8clk,
	rLCDCON1=(1)|(1<<5)|(MVAL_USED<<7)|(0x3<<8)|(0x3<<10)|(CLKVAL_GREY16<<12);
 c0026a0:	e58c3000 	str	r3, [ip]
	rBLUELUT=0xfa40;
 c0026a4:	e58c101c 	str	r1, [ip, #28]
	//Enable LCD Logic and EL back-light.
	rPDATE=rPDATE&0x0e;
 c0026a8:	e592002c 	ldr	r0, [r2, #44]	; 0x2c
 c0026ac:	e200300e 	and	r3, r0, #14
 c0026b0:	e582302c 	str	r3, [r2, #44]	; 0x2c
	
	//DMA ISR
	rINTMSK &= ~(BIT_ZDMA0);
 c0026b4:	e3a0161e 	mov	r1, #31457280	; 0x1e00000
 c0026b8:	e591c00c 	ldr	ip, [r1, #12]
    pISR_ZDMA0=(int)Zdma0Done;
 c0026bc:	e59f2050 	ldr	r2, [pc, #80]	; c002714 <Lcd_Init+0xf4>
 c0026c0:	e59f3050 	ldr	r3, [pc, #80]	; c002718 <Lcd_Init+0xf8>
	rBLUELUT=0xfa40;
	//Enable LCD Logic and EL back-light.
	rPDATE=rPDATE&0x0e;
	
	//DMA ISR
	rINTMSK &= ~(BIT_ZDMA0);
 c0026c4:	e3cc0702 	bic	r0, ip, #524288	; 0x80000
 c0026c8:	e581000c 	str	r0, [r1, #12]
    pISR_ZDMA0=(int)Zdma0Done;
 c0026cc:	e5032093 	str	r2, [r3, #-147]	; 0xffffff6d
}
 c0026d0:	e12fff1e 	bx	lr
 c0026d4:	0001223a 	.word	0x0001223a
 c0026d8:	00005a5a 	.word	0x00005a5a
 c0026dc:	0366cd9b 	.word	0x0366cd9b
 c0026e0:	000da5a7 	.word	0x000da5a7
 c0026e4:	00000ad7 	.word	0x00000ad7
 c0026e8:	0feda5b7 	.word	0x0feda5b7
 c0026ec:	0000ebd7 	.word	0x0000ebd7
 c0026f0:	000ebfd7 	.word	0x000ebfd7
 c0026f4:	07efdfbf 	.word	0x07efdfbf
 c0026f8:	0000c020 	.word	0x0000c020
 c0026fc:	01413cef 	.word	0x01413cef
 c002700:	16180000 	.word	0x16180000
 c002704:	01b84b00 	.word	0x01b84b00
 c002708:	0000cf21 	.word	0x0000cf21
 c00270c:	0000fa40 	.word	0x0000fa40
 c002710:	01d20000 	.word	0x01d20000
 c002714:	0c0025e8 	.word	0x0c0025e8
 c002718:	0c7fffff 	.word	0x0c7fffff

0c00271c <Lcd_Active_Clr>:
void Lcd_Active_Clr(void)
{
	INT32U i;
	INT32U *pDisp = (INT32U *)LCD_ACTIVE_BUFFER;
	
	for( i = 0; i < (SCR_XSIZE*SCR_YSIZE/2/4); i++ )
 c00271c:	e59f0028 	ldr	r0, [pc, #40]	; c00274c <Lcd_Active_Clr+0x30>
* comment:		
*********************************************************************************************/
void Lcd_Active_Clr(void)
{
	INT32U i;
	INT32U *pDisp = (INT32U *)LCD_ACTIVE_BUFFER;
 c002720:	e3a036c3 	mov	r3, #204472320	; 0xc300000
	
	for( i = 0; i < (SCR_XSIZE*SCR_YSIZE/2/4); i++ )
	{
		*pDisp++ = WHITE;
 c002724:	e3a02000 	mov	r2, #0
 c002728:	e1a01003 	mov	r1, r3
 c00272c:	e4812004 	str	r2, [r1], #4
 c002730:	e5832004 	str	r2, [r3, #4]
 c002734:	e5812004 	str	r2, [r1, #4]
 c002738:	e583200c 	str	r2, [r3, #12]
 c00273c:	e2833010 	add	r3, r3, #16
void Lcd_Active_Clr(void)
{
	INT32U i;
	INT32U *pDisp = (INT32U *)LCD_ACTIVE_BUFFER;
	
	for( i = 0; i < (SCR_XSIZE*SCR_YSIZE/2/4); i++ )
 c002740:	e1530000 	cmp	r3, r0
 c002744:	1afffff7 	bne	c002728 <Lcd_Active_Clr+0xc>
	{
		*pDisp++ = WHITE;
	}
}
 c002748:	e12fff1e 	bx	lr
 c00274c:	0c309600 	.word	0x0c309600

0c002750 <LCD_GetPixel>:
*********************************************************************************************/
INT8U LCD_GetPixel(INT16U usX, INT16U usY)
{
	INT8U ucColor;

	ucColor = *((INT8U*)(LCD_VIRTUAL_BUFFER + usY*SCR_XSIZE/2 + usX/8*4 + 3 - (usX%8)/2));
 c002750:	e0813101 	add	r3, r1, r1, lsl #2
 c002754:	e1a02183 	lsl	r2, r3, #3
 c002758:	e1a0c0a0 	lsr	ip, r0, #1
 c00275c:	e08211a0 	add	r1, r2, r0, lsr #3
 c002760:	e20c3003 	and	r3, ip, #3
 c002764:	e28127c3 	add	r2, r1, #51118080	; 0x30c0000
 c002768:	e263c003 	rsb	ip, r3, #3
 c00276c:	e2821d96 	add	r1, r2, #9600	; 0x2580
	ucColor = (ucColor >> ((1-(usX%2))*4)) & 0x0f;
 c002770:	e3100001 	tst	r0, #1
 c002774:	e7dc2101 	ldrb	r2, [ip, r1, lsl #2]
 c002778:	03a03004 	moveq	r3, #4
 c00277c:	13a03000 	movne	r3, #0
 c002780:	e1a00352 	asr	r0, r2, r3
	return ucColor;
}
 c002784:	e200000f 	and	r0, r0, #15
 c002788:	e12fff1e 	bx	lr

0c00278c <Lcd_Clr>:
* comment:		
*********************************************************************************************/
void Lcd_Clr(void)
{
	INT32U i;
	INT32U *pDisp = (INT32U *)LCD_VIRTUAL_BUFFER;
 c00278c:	e59f3028 	ldr	r3, [pc, #40]	; c0027bc <Lcd_Clr+0x30>
	
	for( i = 0; i < (SCR_XSIZE*SCR_YSIZE/2/4); i++ )
 c002790:	e59f0028 	ldr	r0, [pc, #40]	; c0027c0 <Lcd_Clr+0x34>
	{
		*pDisp++ = WHITE;
 c002794:	e3a02000 	mov	r2, #0
 c002798:	e1a01003 	mov	r1, r3
 c00279c:	e4812004 	str	r2, [r1], #4
 c0027a0:	e5832004 	str	r2, [r3, #4]
 c0027a4:	e5812004 	str	r2, [r1, #4]
 c0027a8:	e583200c 	str	r2, [r3, #12]
 c0027ac:	e2833010 	add	r3, r3, #16
void Lcd_Clr(void)
{
	INT32U i;
	INT32U *pDisp = (INT32U *)LCD_VIRTUAL_BUFFER;
	
	for( i = 0; i < (SCR_XSIZE*SCR_YSIZE/2/4); i++ )
 c0027b0:	e1530000 	cmp	r3, r0
 c0027b4:	1afffff7 	bne	c002798 <Lcd_Clr+0xc>
	{
		*pDisp++ = WHITE;
	}
}
 c0027b8:	e12fff1e 	bx	lr
 c0027bc:	0c309600 	.word	0x0c309600
 c0027c0:	0c312c00 	.word	0x0c312c00

0c0027c4 <LcdClrRect>:
* ret:		none
* modify:
* comment:	also as clear screen function 
*********************************************************************************************/
void LcdClrRect(INT16 usLeft, INT16 usTop, INT16 usRight, INT16 usBottom, INT8U ucColor)
{
 c0027c4:	e92d07f0 	push	{r4, r5, r6, r7, r8, r9, sl}
 c0027c8:	e24dd044 	sub	sp, sp, #68	; 0x44
 c0027cc:	e5ddc060 	ldrb	ip, [sp, #96]	; 0x60
	INT16 i,k,l,m;
	
	INT32U ulColor = (ucColor << 28) | (ucColor << 24) | (ucColor << 20) | (ucColor << 16) | 
 c0027d0:	e1a04c0c 	lsl	r4, ip, #24
 c0027d4:	e1849e0c 	orr	r9, r4, ip, lsl #28
 c0027d8:	e189400c 	orr	r4, r9, ip
 c0027dc:	e1844a0c 	orr	r4, r4, ip, lsl #20
 c0027e0:	e184980c 	orr	r9, r4, ip, lsl #16
* ret:		none
* modify:
* comment:	also as clear screen function 
*********************************************************************************************/
void LcdClrRect(INT16 usLeft, INT16 usTop, INT16 usRight, INT16 usBottom, INT8U ucColor)
{
 c0027e4:	e58d0020 	str	r0, [sp, #32]
	INT16 i,k,l,m;
	
	INT32U ulColor = (ucColor << 28) | (ucColor << 24) | (ucColor << 20) | (ucColor << 16) | 
				     (ucColor << 12) | (ucColor << 8) | (ucColor << 4) | ucColor;
 c0027e8:	e189960c 	orr	r9, r9, ip, lsl #12

	i = k = l = m = 0;	
	if( (usRight-usLeft) <= 8 )
 c0027ec:	e0600002 	rsb	r0, r0, r2
void LcdClrRect(INT16 usLeft, INT16 usTop, INT16 usRight, INT16 usBottom, INT8U ucColor)
{
	INT16 i,k,l,m;
	
	INT32U ulColor = (ucColor << 28) | (ucColor << 24) | (ucColor << 20) | (ucColor << 16) | 
				     (ucColor << 12) | (ucColor << 8) | (ucColor << 4) | ucColor;
 c0027f0:	e189940c 	orr	r9, r9, ip, lsl #8

	i = k = l = m = 0;	
	if( (usRight-usLeft) <= 8 )
 c0027f4:	e3500008 	cmp	r0, #8
* ret:		none
* modify:
* comment:	also as clear screen function 
*********************************************************************************************/
void LcdClrRect(INT16 usLeft, INT16 usTop, INT16 usRight, INT16 usBottom, INT8U ucColor)
{
 c0027f8:	e58d3018 	str	r3, [sp, #24]
	INT16 i,k,l,m;
	
	INT32U ulColor = (ucColor << 28) | (ucColor << 24) | (ucColor << 20) | (ucColor << 16) | 
				     (ucColor << 12) | (ucColor << 8) | (ucColor << 4) | ucColor;
 c0027fc:	e189920c 	orr	r9, r9, ip, lsl #4

	i = k = l = m = 0;	
	if( (usRight-usLeft) <= 8 )
 c002800:	ca00007d 	bgt	c0029fc <LcdClrRect+0x238>
	{
		for( i=usTop; i<=usBottom; i++)
 c002804:	e1510003 	cmp	r1, r3
 c002808:	ca000078 	bgt	c0029f0 <LcdClrRect+0x22c>
 c00280c:	e59d3020 	ldr	r3, [sp, #32]
*			ucColor -- appointed color value
* ret:		none
* modify:
* comment:	also as clear screen function 
*********************************************************************************************/
void LcdClrRect(INT16 usLeft, INT16 usTop, INT16 usRight, INT16 usBottom, INT8U ucColor)
 c002810:	e0818101 	add	r8, r1, r1, lsl #2
 c002814:	e1a06188 	lsl	r6, r8, #3
 c002818:	e28657c3 	add	r5, r6, #51118080	; 0x30c0000
 c00281c:	e1a07803 	lsl	r7, r3, #16
 c002820:	e58d1014 	str	r1, [sp, #20]
 c002824:	e58d701c 	str	r7, [sp, #28]
 c002828:	e2855d96 	add	r5, r5, #9600	; 0x2580
 c00282c:	e1a07847 	asr	r7, r7, #16
	{
		for( i=usTop; i<=usBottom; i++)
		{
			for( m=usLeft; m<=usRight; m++)
			{
				(LCD_PutPixel(m, i, ucColor));
 c002830:	e3a0620f 	mov	r6, #-268435456	; 0xf0000000
 c002834:	e1a09003 	mov	r9, r3
	i = k = l = m = 0;	
	if( (usRight-usLeft) <= 8 )
	{
		for( i=usTop; i<=usBottom; i++)
		{
			for( m=usLeft; m<=usRight; m++)
 c002838:	e1520009 	cmp	r2, r9
 c00283c:	ba000062 	blt	c0029cc <LcdClrRect+0x208>
			{
				(LCD_PutPixel(m, i, ucColor));
 c002840:	e59da01c 	ldr	sl, [sp, #28]
 c002844:	e3570000 	cmp	r7, #0
 c002848:	e1a01fca 	asr	r1, sl, #31
 c00284c:	e1a08ea1 	lsr	r8, r1, #29
 c002850:	e2873007 	add	r3, r7, #7
 c002854:	a1a03007 	movge	r3, r7
 c002858:	e0870008 	add	r0, r7, r8
 c00285c:	e08541c3 	add	r4, r5, r3, asr #3
 c002860:	e1a04104 	lsl	r4, r4, #2
 c002864:	e200a007 	and	sl, r0, #7
 c002868:	e068000a 	rsb	r0, r8, sl
 c00286c:	e5941000 	ldr	r1, [r4]
 c002870:	e1a03100 	lsl	r3, r0, #2
 c002874:	e1c1a336 	bic	sl, r1, r6, lsr r3
 c002878:	e2608007 	rsb	r8, r0, #7
 c00287c:	e1a03108 	lsl	r3, r8, #2
 c002880:	e18a831c 	orr	r8, sl, ip, lsl r3
	i = k = l = m = 0;	
	if( (usRight-usLeft) <= 8 )
	{
		for( i=usTop; i<=usBottom; i++)
		{
			for( m=usLeft; m<=usRight; m++)
 c002884:	e2890001 	add	r0, r9, #1
 c002888:	e1a01800 	lsl	r1, r0, #16
 c00288c:	e1a00821 	lsr	r0, r1, #16
 c002890:	e1a01800 	lsl	r1, r0, #16
 c002894:	e1a03841 	asr	r3, r1, #16
 c002898:	e069a002 	rsb	sl, r9, r2
 c00289c:	e1520003 	cmp	r2, r3
 c0028a0:	e20aa001 	and	sl, sl, #1
			{
				(LCD_PutPixel(m, i, ucColor));
 c0028a4:	e5848000 	str	r8, [r4]
	i = k = l = m = 0;	
	if( (usRight-usLeft) <= 8 )
	{
		for( i=usTop; i<=usBottom; i++)
		{
			for( m=usLeft; m<=usRight; m++)
 c0028a8:	ba000047 	blt	c0029cc <LcdClrRect+0x208>
 c0028ac:	e35a0000 	cmp	sl, #0
 c0028b0:	0a000017 	beq	c002914 <LcdClrRect+0x150>
			{
				(LCD_PutPixel(m, i, ucColor));
 c0028b4:	e3530000 	cmp	r3, #0
 c0028b8:	e1a01fc1 	asr	r1, r1, #31
 c0028bc:	e2834007 	add	r4, r3, #7
 c0028c0:	e1a01ea1 	lsr	r1, r1, #29
 c0028c4:	a1a04003 	movge	r4, r3
 c0028c8:	e0838001 	add	r8, r3, r1
 c0028cc:	e08541c4 	add	r4, r5, r4, asr #3
 c0028d0:	e1a04104 	lsl	r4, r4, #2
 c0028d4:	e2083007 	and	r3, r8, #7
 c0028d8:	e0613003 	rsb	r3, r1, r3
 c0028dc:	e5941000 	ldr	r1, [r4]
 c0028e0:	e1a08103 	lsl	r8, r3, #2
 c0028e4:	e1c11836 	bic	r1, r1, r6, lsr r8
 c0028e8:	e2633007 	rsb	r3, r3, #7
 c0028ec:	e1a08103 	lsl	r8, r3, #2
 c0028f0:	e181881c 	orr	r8, r1, ip, lsl r8
	i = k = l = m = 0;	
	if( (usRight-usLeft) <= 8 )
	{
		for( i=usTop; i<=usBottom; i++)
		{
			for( m=usLeft; m<=usRight; m++)
 c0028f4:	e2800001 	add	r0, r0, #1
 c0028f8:	e1a03800 	lsl	r3, r0, #16
 c0028fc:	e1a00823 	lsr	r0, r3, #16
 c002900:	e1a01800 	lsl	r1, r0, #16
 c002904:	e1a03841 	asr	r3, r1, #16
 c002908:	e1520003 	cmp	r2, r3
			{
				(LCD_PutPixel(m, i, ucColor));
 c00290c:	e5848000 	str	r8, [r4]
	i = k = l = m = 0;	
	if( (usRight-usLeft) <= 8 )
	{
		for( i=usTop; i<=usBottom; i++)
		{
			for( m=usLeft; m<=usRight; m++)
 c002910:	ba00002d 	blt	c0029cc <LcdClrRect+0x208>
			{
				(LCD_PutPixel(m, i, ucColor));
 c002914:	e3530000 	cmp	r3, #0
 c002918:	e1a01fc1 	asr	r1, r1, #31
 c00291c:	e283a007 	add	sl, r3, #7
 c002920:	e1a01ea1 	lsr	r1, r1, #29
 c002924:	a1a0a003 	movge	sl, r3
 c002928:	e0838001 	add	r8, r3, r1
 c00292c:	e08541ca 	add	r4, r5, sl, asr #3
 c002930:	e1a04104 	lsl	r4, r4, #2
 c002934:	e2083007 	and	r3, r8, #7
 c002938:	e0613003 	rsb	r3, r1, r3
 c00293c:	e5948000 	ldr	r8, [r4]
 c002940:	e1a0a103 	lsl	sl, r3, #2
 c002944:	e1c88a36 	bic	r8, r8, r6, lsr sl
 c002948:	e2631007 	rsb	r1, r3, #7
 c00294c:	e1a0a101 	lsl	sl, r1, #2
 c002950:	e188aa1c 	orr	sl, r8, ip, lsl sl
	i = k = l = m = 0;	
	if( (usRight-usLeft) <= 8 )
	{
		for( i=usTop; i<=usBottom; i++)
		{
			for( m=usLeft; m<=usRight; m++)
 c002954:	e2803001 	add	r3, r0, #1
 c002958:	e1a01803 	lsl	r1, r3, #16
 c00295c:	e1a01821 	lsr	r1, r1, #16
 c002960:	e1a00801 	lsl	r0, r1, #16
 c002964:	e1a03840 	asr	r3, r0, #16
			{
				(LCD_PutPixel(m, i, ucColor));
 c002968:	e3530000 	cmp	r3, #0
 c00296c:	e1a00fc0 	asr	r0, r0, #31
 c002970:	e2838007 	add	r8, r3, #7
 c002974:	e1a00ea0 	lsr	r0, r0, #29
 c002978:	a1a08003 	movge	r8, r3
 c00297c:	e584a000 	str	sl, [r4]
 c002980:	e08581c8 	add	r8, r5, r8, asr #3
 c002984:	e0834000 	add	r4, r3, r0
 c002988:	e2043007 	and	r3, r4, #7
 c00298c:	e1a08108 	lsl	r8, r8, #2
 c002990:	e0600003 	rsb	r0, r0, r3
 c002994:	e5983000 	ldr	r3, [r8]
 c002998:	e1a04100 	lsl	r4, r0, #2
 c00299c:	e1c33436 	bic	r3, r3, r6, lsr r4
 c0029a0:	e2600007 	rsb	r0, r0, #7
 c0029a4:	e1a04100 	lsl	r4, r0, #2
 c0029a8:	e183441c 	orr	r4, r3, ip, lsl r4
	i = k = l = m = 0;	
	if( (usRight-usLeft) <= 8 )
	{
		for( i=usTop; i<=usBottom; i++)
		{
			for( m=usLeft; m<=usRight; m++)
 c0029ac:	e2813001 	add	r3, r1, #1
 c0029b0:	e1a00803 	lsl	r0, r3, #16
 c0029b4:	e1a00820 	lsr	r0, r0, #16
 c0029b8:	e1a01800 	lsl	r1, r0, #16
 c0029bc:	e1a03841 	asr	r3, r1, #16
 c0029c0:	e1520003 	cmp	r2, r3
			{
				(LCD_PutPixel(m, i, ucColor));
 c0029c4:	e5884000 	str	r4, [r8]
	i = k = l = m = 0;	
	if( (usRight-usLeft) <= 8 )
	{
		for( i=usTop; i<=usBottom; i++)
		{
			for( m=usLeft; m<=usRight; m++)
 c0029c8:	aaffffd1 	bge	c002914 <LcdClrRect+0x150>
				     (ucColor << 12) | (ucColor << 8) | (ucColor << 4) | ucColor;

	i = k = l = m = 0;	
	if( (usRight-usLeft) <= 8 )
	{
		for( i=usTop; i<=usBottom; i++)
 c0029cc:	e59d4014 	ldr	r4, [sp, #20]
 c0029d0:	e2848001 	add	r8, r4, #1
 c0029d4:	e1a03808 	lsl	r3, r8, #16
 c0029d8:	e59d8018 	ldr	r8, [sp, #24]
 c0029dc:	e1a00823 	lsr	r0, r3, #16
 c0029e0:	e1580843 	cmp	r8, r3, asr #16
 c0029e4:	e2855028 	add	r5, r5, #40	; 0x28
 c0029e8:	e58d0014 	str	r0, [sp, #20]
 c0029ec:	aaffff91 	bge	c002838 <LcdClrRect+0x74>
		for( m=l; m<=usRight; m++ )
		{
			(LCD_PutPixel(m, i, ucColor));
		}
	}
}
 c0029f0:	e28dd044 	add	sp, sp, #68	; 0x44
 c0029f4:	e8bd07f0 	pop	{r4, r5, r6, r7, r8, r9, sl}
 c0029f8:	e12fff1e 	bx	lr
		}	
		return;
	}

	/* check borderline */
	if( 0 == (usLeft%8) )
 c0029fc:	e59d3020 	ldr	r3, [sp, #32]
 c002a00:	e3130007 	tst	r3, #7
 c002a04:	058d3034 	streq	r3, [sp, #52]	; 0x34
 c002a08:	1a00015c 	bne	c002f80 <LcdClrRect+0x7bc>
		k=usLeft;
	else
	{
		k=(usLeft/8)*8+8;
	}
	if( 0 == (usRight%8) )
 c002a0c:	e3120007 	tst	r2, #7
 c002a10:	058d2028 	streq	r2, [sp, #40]	; 0x28
 c002a14:	1a00014f 	bne	c002f58 <LcdClrRect+0x794>
	else
	{
		l=(usRight/8)*8;
	}

	for( i=usTop; i<=usBottom; i++ )
 c002a18:	e59d8018 	ldr	r8, [sp, #24]
 c002a1c:	e1510008 	cmp	r1, r8
 c002a20:	cafffff2 	bgt	c0029f0 <LcdClrRect+0x22c>
*			ucColor -- appointed color value
* ret:		none
* modify:
* comment:	also as clear screen function 
*********************************************************************************************/
void LcdClrRect(INT16 usLeft, INT16 usTop, INT16 usRight, INT16 usBottom, INT8U ucColor)
 c002a24:	e0614008 	rsb	r4, r1, r8
 c002a28:	e59d8034 	ldr	r8, [sp, #52]	; 0x34
 c002a2c:	e1a0a804 	lsl	sl, r4, #16
 c002a30:	e081082a 	add	r0, r1, sl, lsr #16
 c002a34:	e59d7028 	ldr	r7, [sp, #40]	; 0x28
 c002a38:	e1a0a808 	lsl	sl, r8, #16
 c002a3c:	e59d8020 	ldr	r8, [sp, #32]
 c002a40:	e0816101 	add	r6, r1, r1, lsl #2
 c002a44:	e0801100 	add	r1, r0, r0, lsl #2
 c002a48:	e59f0564 	ldr	r0, [pc, #1380]	; c002fb4 <LcdClrRect+0x7f0>
 c002a4c:	e1a03186 	lsl	r3, r6, #3
 c002a50:	e1a04286 	lsl	r4, r6, #5
 c002a54:	e1a01181 	lsl	r1, r1, #3
 c002a58:	e1a06807 	lsl	r6, r7, #16
 c002a5c:	e1a07808 	lsl	r7, r8, #16
 c002a60:	e59d8028 	ldr	r8, [sp, #40]	; 0x28
 c002a64:	e0811000 	add	r1, r1, r0
 c002a68:	e1a06846 	asr	r6, r6, #16
 c002a6c:	e1a0a84a 	asr	sl, sl, #16
 c002a70:	e58d1030 	str	r1, [sp, #48]	; 0x30
 c002a74:	e1a01808 	lsl	r1, r8, #16
 c002a78:	e1a00847 	asr	r0, r7, #16
 c002a7c:	e28337c3 	add	r3, r3, #51118080	; 0x30c0000
 c002a80:	e28446c3 	add	r4, r4, #204472320	; 0xc300000
 c002a84:	e58d6018 	str	r6, [sp, #24]
 c002a88:	e58d7038 	str	r7, [sp, #56]	; 0x38
 c002a8c:	e58da02c 	str	sl, [sp, #44]	; 0x2c
 c002a90:	e58d103c 	str	r1, [sp, #60]	; 0x3c
 c002a94:	e58d6024 	str	r6, [sp, #36]	; 0x24
 c002a98:	e58d2014 	str	r2, [sp, #20]
 c002a9c:	e58d001c 	str	r0, [sp, #28]
 c002aa0:	e2833d96 	add	r3, r3, #9600	; 0x2580
 c002aa4:	e2844c96 	add	r4, r4, #38400	; 0x9600

	for( i=usTop; i<=usBottom; i++ )
	{
		for( m=usLeft; m<=(k-1); m++ )
		{
			(LCD_PutPixel(m, i, ucColor));
 c002aa8:	e3a0020f 	mov	r0, #-268435456	; 0xf0000000
		l=(usRight/8)*8;
	}

	for( i=usTop; i<=usBottom; i++ )
	{
		for( m=usLeft; m<=(k-1); m++ )
 c002aac:	e59d8020 	ldr	r8, [sp, #32]
 c002ab0:	e15a0008 	cmp	sl, r8
 c002ab4:	da000066 	ble	c002c54 <LcdClrRect+0x490>
		{
			(LCD_PutPixel(m, i, ucColor));
 c002ab8:	e59d701c 	ldr	r7, [sp, #28]
 c002abc:	e59d2038 	ldr	r2, [sp, #56]	; 0x38
 c002ac0:	e59d501c 	ldr	r5, [sp, #28]
 c002ac4:	e3570000 	cmp	r7, #0
 c002ac8:	e1a01fc2 	asr	r1, r2, #31
 c002acc:	e2856007 	add	r6, r5, #7
 c002ad0:	e1a01ea1 	lsr	r1, r1, #29
 c002ad4:	a1a06007 	movge	r6, r7
 c002ad8:	e0872001 	add	r2, r7, r1
 c002adc:	e08351c6 	add	r5, r3, r6, asr #3
 c002ae0:	e1a05105 	lsl	r5, r5, #2
 c002ae4:	e2026007 	and	r6, r2, #7
 c002ae8:	e0612006 	rsb	r2, r1, r6
 c002aec:	e5951000 	ldr	r1, [r5]
 c002af0:	e1a07102 	lsl	r7, r2, #2
 c002af4:	e1c16730 	bic	r6, r1, r0, lsr r7
 c002af8:	e2622007 	rsb	r2, r2, #7
 c002afc:	e1a07102 	lsl	r7, r2, #2
 c002b00:	e186771c 	orr	r7, r6, ip, lsl r7
		l=(usRight/8)*8;
	}

	for( i=usTop; i<=usBottom; i++ )
	{
		for( m=usLeft; m<=(k-1); m++ )
 c002b04:	e2888001 	add	r8, r8, #1
 c002b08:	e1a01808 	lsl	r1, r8, #16
 c002b0c:	e59d2020 	ldr	r2, [sp, #32]
 c002b10:	e1a01821 	lsr	r1, r1, #16
 c002b14:	e1a08801 	lsl	r8, r1, #16
 c002b18:	e1e06002 	mvn	r6, r2
 c002b1c:	e1a02848 	asr	r2, r8, #16
 c002b20:	e086600a 	add	r6, r6, sl
 c002b24:	e152000a 	cmp	r2, sl
 c002b28:	e2066001 	and	r6, r6, #1
		{
			(LCD_PutPixel(m, i, ucColor));
 c002b2c:	e5857000 	str	r7, [r5]
		l=(usRight/8)*8;
	}

	for( i=usTop; i<=usBottom; i++ )
	{
		for( m=usLeft; m<=(k-1); m++ )
 c002b30:	0a000047 	beq	c002c54 <LcdClrRect+0x490>
 c002b34:	e3560000 	cmp	r6, #0
 c002b38:	0a000017 	beq	c002b9c <LcdClrRect+0x3d8>
		{
			(LCD_PutPixel(m, i, ucColor));
 c002b3c:	e3520000 	cmp	r2, #0
 c002b40:	e1a07fc8 	asr	r7, r8, #31
 c002b44:	e2826007 	add	r6, r2, #7
 c002b48:	e1a07ea7 	lsr	r7, r7, #29
 c002b4c:	a1a06002 	movge	r6, r2
 c002b50:	e08351c6 	add	r5, r3, r6, asr #3
 c002b54:	e0822007 	add	r2, r2, r7
 c002b58:	e1a05105 	lsl	r5, r5, #2
 c002b5c:	e2028007 	and	r8, r2, #7
 c002b60:	e0678008 	rsb	r8, r7, r8
 c002b64:	e5952000 	ldr	r2, [r5]
 c002b68:	e1a06108 	lsl	r6, r8, #2
 c002b6c:	e1c22630 	bic	r2, r2, r0, lsr r6
 c002b70:	e2687007 	rsb	r7, r8, #7
 c002b74:	e1a06107 	lsl	r6, r7, #2
 c002b78:	e182661c 	orr	r6, r2, ip, lsl r6
		l=(usRight/8)*8;
	}

	for( i=usTop; i<=usBottom; i++ )
	{
		for( m=usLeft; m<=(k-1); m++ )
 c002b7c:	e2818001 	add	r8, r1, #1
 c002b80:	e1a07808 	lsl	r7, r8, #16
 c002b84:	e1a01827 	lsr	r1, r7, #16
 c002b88:	e1a08801 	lsl	r8, r1, #16
 c002b8c:	e1a02848 	asr	r2, r8, #16
 c002b90:	e152000a 	cmp	r2, sl
		{
			(LCD_PutPixel(m, i, ucColor));
 c002b94:	e5856000 	str	r6, [r5]
		l=(usRight/8)*8;
	}

	for( i=usTop; i<=usBottom; i++ )
	{
		for( m=usLeft; m<=(k-1); m++ )
 c002b98:	0a00002d 	beq	c002c54 <LcdClrRect+0x490>
		{
			(LCD_PutPixel(m, i, ucColor));
 c002b9c:	e3520000 	cmp	r2, #0
 c002ba0:	e1a08fc8 	asr	r8, r8, #31
 c002ba4:	e1a05ea8 	lsr	r5, r8, #29
 c002ba8:	e2826007 	add	r6, r2, #7
 c002bac:	a1a06002 	movge	r6, r2
 c002bb0:	e0827005 	add	r7, r2, r5
 c002bb4:	e08361c6 	add	r6, r3, r6, asr #3
 c002bb8:	e1a06106 	lsl	r6, r6, #2
 c002bbc:	e2072007 	and	r2, r7, #7
 c002bc0:	e0652002 	rsb	r2, r5, r2
 c002bc4:	e5967000 	ldr	r7, [r6]
 c002bc8:	e1a08102 	lsl	r8, r2, #2
 c002bcc:	e1c77830 	bic	r7, r7, r0, lsr r8
 c002bd0:	e2625007 	rsb	r5, r2, #7
 c002bd4:	e1a08105 	lsl	r8, r5, #2
 c002bd8:	e187881c 	orr	r8, r7, ip, lsl r8
		l=(usRight/8)*8;
	}

	for( i=usTop; i<=usBottom; i++ )
	{
		for( m=usLeft; m<=(k-1); m++ )
 c002bdc:	e2812001 	add	r2, r1, #1
 c002be0:	e1a01802 	lsl	r1, r2, #16
 c002be4:	e1a01821 	lsr	r1, r1, #16
 c002be8:	e1a05801 	lsl	r5, r1, #16
 c002bec:	e1a02845 	asr	r2, r5, #16
		{
			(LCD_PutPixel(m, i, ucColor));
 c002bf0:	e3520000 	cmp	r2, #0
 c002bf4:	e1a05fc5 	asr	r5, r5, #31
 c002bf8:	e2827007 	add	r7, r2, #7
 c002bfc:	e1a05ea5 	lsr	r5, r5, #29
 c002c00:	a1a07002 	movge	r7, r2
 c002c04:	e5868000 	str	r8, [r6]
 c002c08:	e0822005 	add	r2, r2, r5
 c002c0c:	e08371c7 	add	r7, r3, r7, asr #3
 c002c10:	e1a07107 	lsl	r7, r7, #2
 c002c14:	e2026007 	and	r6, r2, #7
 c002c18:	e0652006 	rsb	r2, r5, r6
 c002c1c:	e5975000 	ldr	r5, [r7]
 c002c20:	e1a08102 	lsl	r8, r2, #2
 c002c24:	e1c58830 	bic	r8, r5, r0, lsr r8
 c002c28:	e2626007 	rsb	r6, r2, #7
 c002c2c:	e1a05106 	lsl	r5, r6, #2
 c002c30:	e188551c 	orr	r5, r8, ip, lsl r5
		l=(usRight/8)*8;
	}

	for( i=usTop; i<=usBottom; i++ )
	{
		for( m=usLeft; m<=(k-1); m++ )
 c002c34:	e2811001 	add	r1, r1, #1
 c002c38:	e1a02801 	lsl	r2, r1, #16
 c002c3c:	e1a01822 	lsr	r1, r2, #16
 c002c40:	e1a08801 	lsl	r8, r1, #16
 c002c44:	e1a02848 	asr	r2, r8, #16
 c002c48:	e152000a 	cmp	r2, sl
		{
			(LCD_PutPixel(m, i, ucColor));
 c002c4c:	e5875000 	str	r5, [r7]
		l=(usRight/8)*8;
	}

	for( i=usTop; i<=usBottom; i++ )
	{
		for( m=usLeft; m<=(k-1); m++ )
 c002c50:	1affffd1 	bne	c002b9c <LcdClrRect+0x3d8>
		{
			(LCD_PutPixel(m, i, ucColor));
		}
		for( m=k; m<l; m+=8 )
 c002c54:	e59d2018 	ldr	r2, [sp, #24]
 c002c58:	e15a0002 	cmp	sl, r2
 c002c5c:	aa000048 	bge	c002d84 <LcdClrRect+0x5c0>
 c002c60:	e59d1034 	ldr	r1, [sp, #52]	; 0x34
 c002c64:	e2815008 	add	r5, r1, #8
*			ucColor -- appointed color value
* ret:		none
* modify:
* comment:	also as clear screen function 
*********************************************************************************************/
void LcdClrRect(INT16 usLeft, INT16 usTop, INT16 usRight, INT16 usBottom, INT8U ucColor)
 c002c68:	e1a01805 	lsl	r1, r5, #16
 c002c6c:	e1a08002 	mov	r8, r2
		{
			(LCD_PutPixel(m, i, ucColor));
		}
		for( m=k; m<l; m+=8 )
		{
			(*(INT32U*)(LCD_VIRTUAL_BUFFER + i * SCR_XSIZE / 2 + m / 2)) = ulColor;
 c002c70:	e59d602c 	ldr	r6, [sp, #44]	; 0x2c
 c002c74:	e0652002 	rsb	r2, r5, r2
 c002c78:	e2827007 	add	r7, r2, #7
	{
		for( m=usLeft; m<=(k-1); m++ )
		{
			(LCD_PutPixel(m, i, ucColor));
		}
		for( m=k; m<l; m+=8 )
 c002c7c:	e1a02841 	asr	r2, r1, #16
 c002c80:	e1a051a7 	lsr	r5, r7, #3
 c002c84:	e1580002 	cmp	r8, r2
		{
			(*(INT32U*)(LCD_VIRTUAL_BUFFER + i * SCR_XSIZE / 2 + m / 2)) = ulColor;
 c002c88:	e0867fa6 	add	r7, r6, r6, lsr #31
 c002c8c:	e2055003 	and	r5, r5, #3
 c002c90:	e78490c7 	str	r9, [r4, r7, asr #1]
	{
		for( m=usLeft; m<=(k-1); m++ )
		{
			(LCD_PutPixel(m, i, ucColor));
		}
		for( m=k; m<l; m+=8 )
 c002c94:	e1a01821 	lsr	r1, r1, #16
 c002c98:	da000039 	ble	c002d84 <LcdClrRect+0x5c0>
 c002c9c:	e3550000 	cmp	r5, #0
 c002ca0:	0a00001e 	beq	c002d20 <LcdClrRect+0x55c>
 c002ca4:	e3550001 	cmp	r5, #1
 c002ca8:	0a000011 	beq	c002cf4 <LcdClrRect+0x530>
 c002cac:	e3550002 	cmp	r5, #2
 c002cb0:	0a000007 	beq	c002cd4 <LcdClrRect+0x510>
		{
			(*(INT32U*)(LCD_VIRTUAL_BUFFER + i * SCR_XSIZE / 2 + m / 2)) = ulColor;
 c002cb4:	e0827fa2 	add	r7, r2, r2, lsr #31
 c002cb8:	e1a060c7 	asr	r6, r7, #1
*			ucColor -- appointed color value
* ret:		none
* modify:
* comment:	also as clear screen function 
*********************************************************************************************/
void LcdClrRect(INT16 usLeft, INT16 usTop, INT16 usRight, INT16 usBottom, INT8U ucColor)
 c002cbc:	e2811008 	add	r1, r1, #8
		{
			(LCD_PutPixel(m, i, ucColor));
		}
		for( m=k; m<l; m+=8 )
		{
			(*(INT32U*)(LCD_VIRTUAL_BUFFER + i * SCR_XSIZE / 2 + m / 2)) = ulColor;
 c002cc0:	e1a05806 	lsl	r5, r6, #16
*			ucColor -- appointed color value
* ret:		none
* modify:
* comment:	also as clear screen function 
*********************************************************************************************/
void LcdClrRect(INT16 usLeft, INT16 usTop, INT16 usRight, INT16 usBottom, INT8U ucColor)
 c002cc4:	e1a02801 	lsl	r2, r1, #16
		{
			(LCD_PutPixel(m, i, ucColor));
		}
		for( m=k; m<l; m+=8 )
		{
			(*(INT32U*)(LCD_VIRTUAL_BUFFER + i * SCR_XSIZE / 2 + m / 2)) = ulColor;
 c002cc8:	e7849845 	str	r9, [r4, r5, asr #16]
	{
		for( m=usLeft; m<=(k-1); m++ )
		{
			(LCD_PutPixel(m, i, ucColor));
		}
		for( m=k; m<l; m+=8 )
 c002ccc:	e1a01822 	lsr	r1, r2, #16
 c002cd0:	e1a02842 	asr	r2, r2, #16
		{
			(*(INT32U*)(LCD_VIRTUAL_BUFFER + i * SCR_XSIZE / 2 + m / 2)) = ulColor;
 c002cd4:	e0826fa2 	add	r6, r2, r2, lsr #31
*			ucColor -- appointed color value
* ret:		none
* modify:
* comment:	also as clear screen function 
*********************************************************************************************/
void LcdClrRect(INT16 usLeft, INT16 usTop, INT16 usRight, INT16 usBottom, INT8U ucColor)
 c002cd8:	e2811008 	add	r1, r1, #8
		{
			(LCD_PutPixel(m, i, ucColor));
		}
		for( m=k; m<l; m+=8 )
		{
			(*(INT32U*)(LCD_VIRTUAL_BUFFER + i * SCR_XSIZE / 2 + m / 2)) = ulColor;
 c002cdc:	e1a050c6 	asr	r5, r6, #1
 c002ce0:	e1a02805 	lsl	r2, r5, #16
*			ucColor -- appointed color value
* ret:		none
* modify:
* comment:	also as clear screen function 
*********************************************************************************************/
void LcdClrRect(INT16 usLeft, INT16 usTop, INT16 usRight, INT16 usBottom, INT8U ucColor)
 c002ce4:	e1a08801 	lsl	r8, r1, #16
		{
			(LCD_PutPixel(m, i, ucColor));
		}
		for( m=k; m<l; m+=8 )
		{
			(*(INT32U*)(LCD_VIRTUAL_BUFFER + i * SCR_XSIZE / 2 + m / 2)) = ulColor;
 c002ce8:	e7849842 	str	r9, [r4, r2, asr #16]
	{
		for( m=usLeft; m<=(k-1); m++ )
		{
			(LCD_PutPixel(m, i, ucColor));
		}
		for( m=k; m<l; m+=8 )
 c002cec:	e1a01828 	lsr	r1, r8, #16
 c002cf0:	e1a02848 	asr	r2, r8, #16
		{
			(*(INT32U*)(LCD_VIRTUAL_BUFFER + i * SCR_XSIZE / 2 + m / 2)) = ulColor;
 c002cf4:	e0822fa2 	add	r2, r2, r2, lsr #31
 c002cf8:	e1a080c2 	asr	r8, r2, #1
*			ucColor -- appointed color value
* ret:		none
* modify:
* comment:	also as clear screen function 
*********************************************************************************************/
void LcdClrRect(INT16 usLeft, INT16 usTop, INT16 usRight, INT16 usBottom, INT8U ucColor)
 c002cfc:	e2811008 	add	r1, r1, #8
 c002d00:	e1a07801 	lsl	r7, r1, #16
		{
			(LCD_PutPixel(m, i, ucColor));
		}
		for( m=k; m<l; m+=8 )
		{
			(*(INT32U*)(LCD_VIRTUAL_BUFFER + i * SCR_XSIZE / 2 + m / 2)) = ulColor;
 c002d04:	e1a05808 	lsl	r5, r8, #16
	{
		for( m=usLeft; m<=(k-1); m++ )
		{
			(LCD_PutPixel(m, i, ucColor));
		}
		for( m=k; m<l; m+=8 )
 c002d08:	e59d8018 	ldr	r8, [sp, #24]
 c002d0c:	e1a02847 	asr	r2, r7, #16
 c002d10:	e1580002 	cmp	r8, r2
		{
			(*(INT32U*)(LCD_VIRTUAL_BUFFER + i * SCR_XSIZE / 2 + m / 2)) = ulColor;
 c002d14:	e7849845 	str	r9, [r4, r5, asr #16]
	{
		for( m=usLeft; m<=(k-1); m++ )
		{
			(LCD_PutPixel(m, i, ucColor));
		}
		for( m=k; m<l; m+=8 )
 c002d18:	e1a01827 	lsr	r1, r7, #16
 c002d1c:	da000018 	ble	c002d84 <LcdClrRect+0x5c0>
 c002d20:	e58d3004 	str	r3, [sp, #4]
 c002d24:	e59d3018 	ldr	r3, [sp, #24]
 c002d28:	e1a0800c 	mov	r8, ip
*			ucColor -- appointed color value
* ret:		none
* modify:
* comment:	also as clear screen function 
*********************************************************************************************/
void LcdClrRect(INT16 usLeft, INT16 usTop, INT16 usRight, INT16 usBottom, INT8U ucColor)
 c002d2c:	e2811008 	add	r1, r1, #8
 c002d30:	e1a06801 	lsl	r6, r1, #16
 c002d34:	e2861706 	add	r1, r6, #1572864	; 0x180000
 c002d38:	e2865702 	add	r5, r6, #524288	; 0x80000
 c002d3c:	e286c601 	add	ip, r6, #1048576	; 0x100000
		{
			(LCD_PutPixel(m, i, ucColor));
		}
		for( m=k; m<l; m+=8 )
		{
			(*(INT32U*)(LCD_VIRTUAL_BUFFER + i * SCR_XSIZE / 2 + m / 2)) = ulColor;
 c002d40:	e0827fa2 	add	r7, r2, r2, lsr #31
	{
		for( m=usLeft; m<=(k-1); m++ )
		{
			(LCD_PutPixel(m, i, ucColor));
		}
		for( m=k; m<l; m+=8 )
 c002d44:	e1a06846 	asr	r6, r6, #16
 c002d48:	e1a02841 	asr	r2, r1, #16
 c002d4c:	e1a05845 	asr	r5, r5, #16
 c002d50:	e1a0c84c 	asr	ip, ip, #16
		{
			(*(INT32U*)(LCD_VIRTUAL_BUFFER + i * SCR_XSIZE / 2 + m / 2)) = ulColor;
 c002d54:	e0866fa6 	add	r6, r6, r6, lsr #31
 c002d58:	e0855fa5 	add	r5, r5, r5, lsr #31
 c002d5c:	e08ccfac 	add	ip, ip, ip, lsr #31
	{
		for( m=usLeft; m<=(k-1); m++ )
		{
			(LCD_PutPixel(m, i, ucColor));
		}
		for( m=k; m<l; m+=8 )
 c002d60:	e1530002 	cmp	r3, r2
		{
			(*(INT32U*)(LCD_VIRTUAL_BUFFER + i * SCR_XSIZE / 2 + m / 2)) = ulColor;
 c002d64:	e78490c7 	str	r9, [r4, r7, asr #1]
	{
		for( m=usLeft; m<=(k-1); m++ )
		{
			(LCD_PutPixel(m, i, ucColor));
		}
		for( m=k; m<l; m+=8 )
 c002d68:	e1a01821 	lsr	r1, r1, #16
		{
			(*(INT32U*)(LCD_VIRTUAL_BUFFER + i * SCR_XSIZE / 2 + m / 2)) = ulColor;
 c002d6c:	e78490c6 	str	r9, [r4, r6, asr #1]
 c002d70:	e78490c5 	str	r9, [r4, r5, asr #1]
 c002d74:	e78490cc 	str	r9, [r4, ip, asr #1]
	{
		for( m=usLeft; m<=(k-1); m++ )
		{
			(LCD_PutPixel(m, i, ucColor));
		}
		for( m=k; m<l; m+=8 )
 c002d78:	caffffeb 	bgt	c002d2c <LcdClrRect+0x568>
 c002d7c:	e59d3004 	ldr	r3, [sp, #4]
 c002d80:	e1a0c008 	mov	ip, r8
		{
			(*(INT32U*)(LCD_VIRTUAL_BUFFER + i * SCR_XSIZE / 2 + m / 2)) = ulColor;
		}
		for( m=l; m<=usRight; m++ )
 c002d84:	e28d2014 	add	r2, sp, #20
 c002d88:	e8920044 	ldm	r2, {r2, r6}
 c002d8c:	e1560002 	cmp	r6, r2
 c002d90:	ca00006a 	bgt	c002f40 <LcdClrRect+0x77c>
		{
			(LCD_PutPixel(m, i, ucColor));
 c002d94:	e59d6024 	ldr	r6, [sp, #36]	; 0x24
 c002d98:	e59d103c 	ldr	r1, [sp, #60]	; 0x3c
 c002d9c:	e3560000 	cmp	r6, #0
 c002da0:	e1a02fc1 	asr	r2, r1, #31
 c002da4:	e2867007 	add	r7, r6, #7
 c002da8:	e1a01ea2 	lsr	r1, r2, #29
 c002dac:	a1a07006 	movge	r7, r6
 c002db0:	e0868001 	add	r8, r6, r1
 c002db4:	e08351c7 	add	r5, r3, r7, asr #3
 c002db8:	e1a05105 	lsl	r5, r5, #2
 c002dbc:	e2087007 	and	r7, r8, #7
 c002dc0:	e0612007 	rsb	r2, r1, r7
 c002dc4:	e5951000 	ldr	r1, [r5]
 c002dc8:	e1a06102 	lsl	r6, r2, #2
 c002dcc:	e1c16630 	bic	r6, r1, r0, lsr r6
 c002dd0:	e2628007 	rsb	r8, r2, #7
 c002dd4:	e1a07108 	lsl	r7, r8, #2
 c002dd8:	e186271c 	orr	r2, r6, ip, lsl r7
		}
		for( m=k; m<l; m+=8 )
		{
			(*(INT32U*)(LCD_VIRTUAL_BUFFER + i * SCR_XSIZE / 2 + m / 2)) = ulColor;
		}
		for( m=l; m<=usRight; m++ )
 c002ddc:	e59d6028 	ldr	r6, [sp, #40]	; 0x28
 c002de0:	e2861001 	add	r1, r6, #1
 c002de4:	e1a08801 	lsl	r8, r1, #16
 c002de8:	e59d7014 	ldr	r7, [sp, #20]
 c002dec:	e1a01828 	lsr	r1, r8, #16
 c002df0:	e0667007 	rsb	r7, r6, r7
 c002df4:	e1a08801 	lsl	r8, r1, #16
 c002df8:	e59d6014 	ldr	r6, [sp, #20]
		{
			(LCD_PutPixel(m, i, ucColor));
 c002dfc:	e5852000 	str	r2, [r5]
		}
		for( m=k; m<l; m+=8 )
		{
			(*(INT32U*)(LCD_VIRTUAL_BUFFER + i * SCR_XSIZE / 2 + m / 2)) = ulColor;
		}
		for( m=l; m<=usRight; m++ )
 c002e00:	e1a02848 	asr	r2, r8, #16
 c002e04:	e1560002 	cmp	r6, r2
 c002e08:	e1cd70b8 	strh	r7, [sp, #8]
 c002e0c:	e2076001 	and	r6, r7, #1
 c002e10:	ba00004a 	blt	c002f40 <LcdClrRect+0x77c>
 c002e14:	e3560000 	cmp	r6, #0
 c002e18:	0a000019 	beq	c002e84 <LcdClrRect+0x6c0>
		{
			(LCD_PutPixel(m, i, ucColor));
 c002e1c:	e3520000 	cmp	r2, #0
 c002e20:	e2827007 	add	r7, r2, #7
 c002e24:	e1a08fc8 	asr	r8, r8, #31
 c002e28:	a1a07002 	movge	r7, r2
 c002e2c:	e1a06687 	lsl	r6, r7, #13
 c002e30:	e1a08ea8 	lsr	r8, r8, #29
 c002e34:	e0827008 	add	r7, r2, r8
 c002e38:	e0835846 	add	r5, r3, r6, asr #16
 c002e3c:	e2072007 	and	r2, r7, #7
 c002e40:	e1a05105 	lsl	r5, r5, #2
 c002e44:	e0688002 	rsb	r8, r8, r2
 c002e48:	e5957000 	ldr	r7, [r5]
 c002e4c:	e1a06108 	lsl	r6, r8, #2
 c002e50:	e1c77630 	bic	r7, r7, r0, lsr r6
 c002e54:	e2682007 	rsb	r2, r8, #7
 c002e58:	e1a06102 	lsl	r6, r2, #2
 c002e5c:	e187661c 	orr	r6, r7, ip, lsl r6
		}
		for( m=k; m<l; m+=8 )
		{
			(*(INT32U*)(LCD_VIRTUAL_BUFFER + i * SCR_XSIZE / 2 + m / 2)) = ulColor;
		}
		for( m=l; m<=usRight; m++ )
 c002e60:	e2818001 	add	r8, r1, #1
 c002e64:	e1a02808 	lsl	r2, r8, #16
 c002e68:	e1a01822 	lsr	r1, r2, #16
 c002e6c:	e59d7014 	ldr	r7, [sp, #20]
 c002e70:	e1a08801 	lsl	r8, r1, #16
 c002e74:	e1a02848 	asr	r2, r8, #16
 c002e78:	e1570002 	cmp	r7, r2
		{
			(LCD_PutPixel(m, i, ucColor));
 c002e7c:	e5856000 	str	r6, [r5]
		}
		for( m=k; m<l; m+=8 )
		{
			(*(INT32U*)(LCD_VIRTUAL_BUFFER + i * SCR_XSIZE / 2 + m / 2)) = ulColor;
		}
		for( m=l; m<=usRight; m++ )
 c002e80:	ba00002e 	blt	c002f40 <LcdClrRect+0x77c>
		{
			(LCD_PutPixel(m, i, ucColor));
 c002e84:	e3520000 	cmp	r2, #0
 c002e88:	e1a08fc8 	asr	r8, r8, #31
 c002e8c:	e1a05ea8 	lsr	r5, r8, #29
 c002e90:	e2826007 	add	r6, r2, #7
 c002e94:	a1a06002 	movge	r6, r2
 c002e98:	e0827005 	add	r7, r2, r5
 c002e9c:	e08361c6 	add	r6, r3, r6, asr #3
 c002ea0:	e1a06106 	lsl	r6, r6, #2
 c002ea4:	e2072007 	and	r2, r7, #7
 c002ea8:	e0652002 	rsb	r2, r5, r2
 c002eac:	e5967000 	ldr	r7, [r6]
 c002eb0:	e1a08102 	lsl	r8, r2, #2
 c002eb4:	e1c77830 	bic	r7, r7, r0, lsr r8
 c002eb8:	e2625007 	rsb	r5, r2, #7
 c002ebc:	e1a08105 	lsl	r8, r5, #2
 c002ec0:	e187881c 	orr	r8, r7, ip, lsl r8
		}
		for( m=k; m<l; m+=8 )
		{
			(*(INT32U*)(LCD_VIRTUAL_BUFFER + i * SCR_XSIZE / 2 + m / 2)) = ulColor;
		}
		for( m=l; m<=usRight; m++ )
 c002ec4:	e2812001 	add	r2, r1, #1
 c002ec8:	e1a01802 	lsl	r1, r2, #16
 c002ecc:	e1a01821 	lsr	r1, r1, #16
 c002ed0:	e1a05801 	lsl	r5, r1, #16
 c002ed4:	e1a02845 	asr	r2, r5, #16
		{
			(LCD_PutPixel(m, i, ucColor));
 c002ed8:	e3520000 	cmp	r2, #0
 c002edc:	e1a05fc5 	asr	r5, r5, #31
 c002ee0:	e2827007 	add	r7, r2, #7
 c002ee4:	e1a05ea5 	lsr	r5, r5, #29
 c002ee8:	a1a07002 	movge	r7, r2
 c002eec:	e5868000 	str	r8, [r6]
 c002ef0:	e0822005 	add	r2, r2, r5
 c002ef4:	e08371c7 	add	r7, r3, r7, asr #3
 c002ef8:	e1a07107 	lsl	r7, r7, #2
 c002efc:	e2028007 	and	r8, r2, #7
 c002f00:	e0652008 	rsb	r2, r5, r8
 c002f04:	e5975000 	ldr	r5, [r7]
 c002f08:	e1a06102 	lsl	r6, r2, #2
 c002f0c:	e1c58630 	bic	r8, r5, r0, lsr r6
 c002f10:	e2622007 	rsb	r2, r2, #7
 c002f14:	e1a05102 	lsl	r5, r2, #2
 c002f18:	e188551c 	orr	r5, r8, ip, lsl r5
		}
		for( m=k; m<l; m+=8 )
		{
			(*(INT32U*)(LCD_VIRTUAL_BUFFER + i * SCR_XSIZE / 2 + m / 2)) = ulColor;
		}
		for( m=l; m<=usRight; m++ )
 c002f1c:	e2816001 	add	r6, r1, #1
 c002f20:	e1a08806 	lsl	r8, r6, #16
 c002f24:	e1a01828 	lsr	r1, r8, #16
 c002f28:	e59d6014 	ldr	r6, [sp, #20]
 c002f2c:	e1a08801 	lsl	r8, r1, #16
 c002f30:	e1a02848 	asr	r2, r8, #16
 c002f34:	e1560002 	cmp	r6, r2
		{
			(LCD_PutPixel(m, i, ucColor));
 c002f38:	e5875000 	str	r5, [r7]
		}
		for( m=k; m<l; m+=8 )
		{
			(*(INT32U*)(LCD_VIRTUAL_BUFFER + i * SCR_XSIZE / 2 + m / 2)) = ulColor;
		}
		for( m=l; m<=usRight; m++ )
 c002f3c:	aaffffd0 	bge	c002e84 <LcdClrRect+0x6c0>
	else
	{
		l=(usRight/8)*8;
	}

	for( i=usTop; i<=usBottom; i++ )
 c002f40:	e59d7030 	ldr	r7, [sp, #48]	; 0x30
		}
		for( m=k; m<l; m+=8 )
		{
			(*(INT32U*)(LCD_VIRTUAL_BUFFER + i * SCR_XSIZE / 2 + m / 2)) = ulColor;
		}
		for( m=l; m<=usRight; m++ )
 c002f44:	e2833028 	add	r3, r3, #40	; 0x28
	else
	{
		l=(usRight/8)*8;
	}

	for( i=usTop; i<=usBottom; i++ )
 c002f48:	e1530007 	cmp	r3, r7
		}
		for( m=k; m<l; m+=8 )
		{
			(*(INT32U*)(LCD_VIRTUAL_BUFFER + i * SCR_XSIZE / 2 + m / 2)) = ulColor;
		}
		for( m=l; m<=usRight; m++ )
 c002f4c:	e28440a0 	add	r4, r4, #160	; 0xa0
	else
	{
		l=(usRight/8)*8;
	}

	for( i=usTop; i<=usBottom; i++ )
 c002f50:	1afffed5 	bne	c002aac <LcdClrRect+0x2e8>
 c002f54:	eafffea5 	b	c0029f0 <LcdClrRect+0x22c>
	}
	if( 0 == (usRight%8) )
		l= usRight;
	else
	{
		l=(usRight/8)*8;
 c002f58:	e3520000 	cmp	r2, #0
 c002f5c:	e59f7054 	ldr	r7, [pc, #84]	; c002fb8 <LcdClrRect+0x7f4>
	}

	for( i=usTop; i<=usBottom; i++ )
 c002f60:	e59d8018 	ldr	r8, [sp, #24]
	}
	if( 0 == (usRight%8) )
		l= usRight;
	else
	{
		l=(usRight/8)*8;
 c002f64:	e2823007 	add	r3, r2, #7
 c002f68:	a1a03002 	movge	r3, r2
 c002f6c:	e0037007 	and	r7, r3, r7
	}

	for( i=usTop; i<=usBottom; i++ )
 c002f70:	e1510008 	cmp	r1, r8
	}
	if( 0 == (usRight%8) )
		l= usRight;
	else
	{
		l=(usRight/8)*8;
 c002f74:	e58d7028 	str	r7, [sp, #40]	; 0x28
	}

	for( i=usTop; i<=usBottom; i++ )
 c002f78:	dafffea9 	ble	c002a24 <LcdClrRect+0x260>
 c002f7c:	eafffe9b 	b	c0029f0 <LcdClrRect+0x22c>
	/* check borderline */
	if( 0 == (usLeft%8) )
		k=usLeft;
	else
	{
		k=(usLeft/8)*8+8;
 c002f80:	e3530000 	cmp	r3, #0
 c002f84:	e2830007 	add	r0, r3, #7
 c002f88:	a1a00003 	movge	r0, r3
 c002f8c:	e1a081c0 	asr	r8, r0, #3
 c002f90:	e1a04003 	mov	r4, r3
 c002f94:	e2883001 	add	r3, r8, #1
 c002f98:	e1a00983 	lsl	r0, r3, #19
 c002f9c:	e1a08820 	lsr	r8, r0, #16
	}
	if( 0 == (usRight%8) )
 c002fa0:	e3120007 	tst	r2, #7
	/* check borderline */
	if( 0 == (usLeft%8) )
		k=usLeft;
	else
	{
		k=(usLeft/8)*8+8;
 c002fa4:	e58d8034 	str	r8, [sp, #52]	; 0x34
	}
	if( 0 == (usRight%8) )
 c002fa8:	058d2028 	streq	r2, [sp, #40]	; 0x28
 c002fac:	0afffe99 	beq	c002a18 <LcdClrRect+0x254>
 c002fb0:	eaffffe8 	b	c002f58 <LcdClrRect+0x794>
 c002fb4:	030c25a8 	.word	0x030c25a8
 c002fb8:	0000fff8 	.word	0x0000fff8

0c002fbc <Lcd_Draw_Box>:
* ret:		none
* modify:
* comment:		
*********************************************************************************************/
void Lcd_Draw_Box(INT16 usLeft, INT16 usTop, INT16 usRight, INT16 usBottom, INT8U ucColor)
{
 c002fbc:	e92d07f0 	push	{r4, r5, r6, r7, r8, r9, sl}
*********************************************************************************************/
void Lcd_Draw_HLine(INT16 usX0, INT16 usX1, INT16 usY0, INT8U ucColor, INT16U usWidth)
{
	INT16 usLen;

    if( usX1 < usX0 )
 c002fc0:	e1500002 	cmp	r0, r2
* ret:		none
* modify:
* comment:		
*********************************************************************************************/
void Lcd_Draw_Box(INT16 usLeft, INT16 usTop, INT16 usRight, INT16 usBottom, INT8U ucColor)
{
 c002fc4:	e24dd01c 	sub	sp, sp, #28
 c002fc8:	e58d0010 	str	r0, [sp, #16]
 c002fcc:	e58d2014 	str	r2, [sp, #20]
 c002fd0:	e5ddc038 	ldrb	ip, [sp, #56]	; 0x38
*********************************************************************************************/
void Lcd_Draw_HLine(INT16 usX0, INT16 usX1, INT16 usY0, INT8U ucColor, INT16U usWidth)
{
	INT16 usLen;

    if( usX1 < usX0 )
 c002fd4:	da0001be 	ble	c0036d4 <Lcd_Draw_Box+0x718>
 c002fd8:	e1a05000 	mov	r5, r0
    {
        GUISWAP (usX1, usX0);
 c002fdc:	e0220000 	eor	r0, r2, r0
 c002fe0:	e1a0a800 	lsl	sl, r0, #16
 c002fe4:	e1a0082a 	lsr	r0, sl, #16
 c002fe8:	e0254000 	eor	r4, r5, r0
 c002fec:	e1a02804 	lsl	r2, r4, #16
 c002ff0:	e1a02842 	asr	r2, r2, #16
 c002ff4:	e0220000 	eor	r0, r2, r0
 c002ff8:	e1a0a800 	lsl	sl, r0, #16
 c002ffc:	e1a0a84a 	asr	sl, sl, #16
    }

    while( (usWidth--) > 0 )
    {
        usLen = usX1 - usX0 + 1;
 c003000:	e28a4001 	add	r4, sl, #1
 c003004:	e062a004 	rsb	sl, r2, r4
 c003008:	e1a0580a 	lsl	r5, sl, #16
 c00300c:	e1a0a825 	lsr	sl, r5, #16
        while( (usLen--) > 0 )
 c003010:	e1a0480a 	lsl	r4, sl, #16
 c003014:	e3540000 	cmp	r4, #0
 c003018:	da000062 	ble	c0031a8 <Lcd_Draw_Box+0x1ec>
 c00301c:	e24a8001 	sub	r8, sl, #1
*			ucColor -- appointed color value
* ret:		none
* modify:
* comment:		
*********************************************************************************************/
void Lcd_Draw_Box(INT16 usLeft, INT16 usTop, INT16 usRight, INT16 usBottom, INT8U ucColor)
 c003020:	e1a09808 	lsl	r9, r8, #16
 c003024:	e1a00849 	asr	r0, r9, #16
    }

    while( (usWidth--) > 0 )
    {
        usLen = usX1 - usX0 + 1;
        while( (usLen--) > 0 )
 c003028:	e0817101 	add	r7, r1, r1, lsl #2
*			ucColor -- appointed color value
* ret:		none
* modify:
* comment:		
*********************************************************************************************/
void Lcd_Draw_Box(INT16 usLeft, INT16 usTop, INT16 usRight, INT16 usBottom, INT8U ucColor)
 c00302c:	e58d0004 	str	r0, [sp, #4]
    }

    while( (usWidth--) > 0 )
    {
        usLen = usX1 - usX0 + 1;
        while( (usLen--) > 0 )
 c003030:	e1a05187 	lsl	r5, r7, #3
*			ucColor -- appointed color value
* ret:		none
* modify:
* comment:		
*********************************************************************************************/
void Lcd_Draw_Box(INT16 usLeft, INT16 usTop, INT16 usRight, INT16 usBottom, INT8U ucColor)
 c003034:	e0820000 	add	r0, r2, r0
    }

    while( (usWidth--) > 0 )
    {
        usLen = usX1 - usX0 + 1;
        while( (usLen--) > 0 )
 c003038:	e28567c3 	add	r6, r5, #51118080	; 0x30c0000
        {
        	(LCD_PutPixel(usX0 + usLen, usY0, ucColor));
 c00303c:	e3500000 	cmp	r0, #0
 c003040:	e1a04fc0 	asr	r4, r0, #31
 c003044:	e2808007 	add	r8, r0, #7
 c003048:	e1a04ea4 	lsr	r4, r4, #29
 c00304c:	a1a08000 	movge	r8, r0
    }

    while( (usWidth--) > 0 )
    {
        usLen = usX1 - usX0 + 1;
        while( (usLen--) > 0 )
 c003050:	e2866d96 	add	r6, r6, #9600	; 0x2580
        {
        	(LCD_PutPixel(usX0 + usLen, usY0, ucColor));
 c003054:	e0809004 	add	r9, r0, r4
 c003058:	e08671c8 	add	r7, r6, r8, asr #3
 c00305c:	e2095007 	and	r5, r9, #7
 c003060:	e1a07107 	lsl	r7, r7, #2
 c003064:	e0644005 	rsb	r4, r4, r5
 c003068:	e5979000 	ldr	r9, [r7]
 c00306c:	e1a08104 	lsl	r8, r4, #2
 c003070:	e3a0520f 	mov	r5, #-268435456	; 0xf0000000
 c003074:	e1c99835 	bic	r9, r9, r5, lsr r8
 c003078:	e2644007 	rsb	r4, r4, #7
 c00307c:	e1a08104 	lsl	r8, r4, #2
 c003080:	e189881c 	orr	r8, r9, ip, lsl r8
*			ucColor -- appointed color value
* ret:		none
* modify:
* comment:		
*********************************************************************************************/
void Lcd_Draw_Box(INT16 usLeft, INT16 usTop, INT16 usRight, INT16 usBottom, INT8U ucColor)
 c003084:	e24aa001 	sub	sl, sl, #1
 c003088:	e2422001 	sub	r2, r2, #1
 c00308c:	e1a0480a 	lsl	r4, sl, #16
 c003090:	e042a824 	sub	sl, r2, r4, lsr #16
 c003094:	e59d2004 	ldr	r2, [sp, #4]
 c003098:	e08aa002 	add	sl, sl, r2
 c00309c:	e060400a 	rsb	r4, r0, sl
    while( (usWidth--) > 0 )
    {
        usLen = usX1 - usX0 + 1;
        while( (usLen--) > 0 )
        {
        	(LCD_PutPixel(usX0 + usLen, usY0, ucColor));
 c0030a0:	e2402001 	sub	r2, r0, #1
 c0030a4:	e1e04004 	mvn	r4, r4
    }

    while( (usWidth--) > 0 )
    {
        usLen = usX1 - usX0 + 1;
        while( (usLen--) > 0 )
 c0030a8:	e152000a 	cmp	r2, sl
        {
        	(LCD_PutPixel(usX0 + usLen, usY0, ucColor));
 c0030ac:	e58d900c 	str	r9, [sp, #12]
 c0030b0:	e2044001 	and	r4, r4, #1
 c0030b4:	e5878000 	str	r8, [r7]
    }

    while( (usWidth--) > 0 )
    {
        usLen = usX1 - usX0 + 1;
        while( (usLen--) > 0 )
 c0030b8:	0a00003a 	beq	c0031a8 <Lcd_Draw_Box+0x1ec>
 c0030bc:	e3540000 	cmp	r4, #0
 c0030c0:	0a000013 	beq	c003114 <Lcd_Draw_Box+0x158>
        {
        	(LCD_PutPixel(usX0 + usLen, usY0, ucColor));
 c0030c4:	e3520000 	cmp	r2, #0
 c0030c8:	e1a08fc2 	asr	r8, r2, #31
 c0030cc:	e1a07ea8 	lsr	r7, r8, #29
 c0030d0:	a1a00002 	movge	r0, r2
 c0030d4:	b2800006 	addlt	r0, r0, #6
 c0030d8:	e0824007 	add	r4, r2, r7
 c0030dc:	e08601c0 	add	r0, r6, r0, asr #3
 c0030e0:	e1a00100 	lsl	r0, r0, #2
 c0030e4:	e2048007 	and	r8, r4, #7
 c0030e8:	e0674008 	rsb	r4, r7, r8
 c0030ec:	e5907000 	ldr	r7, [r0]
 c0030f0:	e1a08104 	lsl	r8, r4, #2
 c0030f4:	e1c77835 	bic	r7, r7, r5, lsr r8
 c0030f8:	e2644007 	rsb	r4, r4, #7
 c0030fc:	e1a04104 	lsl	r4, r4, #2
 c003100:	e187741c 	orr	r7, r7, ip, lsl r4
 c003104:	e2422001 	sub	r2, r2, #1
    }

    while( (usWidth--) > 0 )
    {
        usLen = usX1 - usX0 + 1;
        while( (usLen--) > 0 )
 c003108:	e152000a 	cmp	r2, sl
        {
        	(LCD_PutPixel(usX0 + usLen, usY0, ucColor));
 c00310c:	e5807000 	str	r7, [r0]
    }

    while( (usWidth--) > 0 )
    {
        usLen = usX1 - usX0 + 1;
        while( (usLen--) > 0 )
 c003110:	0a000024 	beq	c0031a8 <Lcd_Draw_Box+0x1ec>
        {
        	(LCD_PutPixel(usX0 + usLen, usY0, ucColor));
 c003114:	e1a07fc2 	asr	r7, r2, #31
 c003118:	e3520000 	cmp	r2, #0
 c00311c:	e2820007 	add	r0, r2, #7
 c003120:	e1a08ea7 	lsr	r8, r7, #29
 c003124:	a1a00002 	movge	r0, r2
 c003128:	e0829008 	add	r9, r2, r8
 c00312c:	e08641c0 	add	r4, r6, r0, asr #3
 c003130:	e1a04104 	lsl	r4, r4, #2
 c003134:	e2097007 	and	r7, r9, #7
 c003138:	e0688007 	rsb	r8, r8, r7
 c00313c:	e5949000 	ldr	r9, [r4]
 c003140:	e1a00108 	lsl	r0, r8, #2
 c003144:	e1c99035 	bic	r9, r9, r5, lsr r0
 c003148:	e2687007 	rsb	r7, r8, #7
 c00314c:	e1a00107 	lsl	r0, r7, #2
 c003150:	e189701c 	orr	r7, r9, ip, lsl r0
 c003154:	e2520001 	subs	r0, r2, #1
 c003158:	e1a08fc0 	asr	r8, r0, #31
 c00315c:	42822006 	addmi	r2, r2, #6
 c003160:	51a02000 	movpl	r2, r0
 c003164:	e1a08ea8 	lsr	r8, r8, #29
 c003168:	e5847000 	str	r7, [r4]
 c00316c:	e0807008 	add	r7, r0, r8
 c003170:	e08641c2 	add	r4, r6, r2, asr #3
 c003174:	e1a04104 	lsl	r4, r4, #2
 c003178:	e2072007 	and	r2, r7, #7
 c00317c:	e0688002 	rsb	r8, r8, r2
 c003180:	e5942000 	ldr	r2, [r4]
 c003184:	e1a07108 	lsl	r7, r8, #2
 c003188:	e1c22735 	bic	r2, r2, r5, lsr r7
 c00318c:	e2688007 	rsb	r8, r8, #7
 c003190:	e1a07108 	lsl	r7, r8, #2
 c003194:	e182771c 	orr	r7, r2, ip, lsl r7
 c003198:	e2402001 	sub	r2, r0, #1
    }

    while( (usWidth--) > 0 )
    {
        usLen = usX1 - usX0 + 1;
        while( (usLen--) > 0 )
 c00319c:	e152000a 	cmp	r2, sl
        {
        	(LCD_PutPixel(usX0 + usLen, usY0, ucColor));
 c0031a0:	e5847000 	str	r7, [r4]
    }

    while( (usWidth--) > 0 )
    {
        usLen = usX1 - usX0 + 1;
        while( (usLen--) > 0 )
 c0031a4:	1affffda 	bne	c003114 <Lcd_Draw_Box+0x158>
*********************************************************************************************/
void Lcd_Draw_HLine(INT16 usX0, INT16 usX1, INT16 usY0, INT8U ucColor, INT16U usWidth)
{
	INT16 usLen;

    if( usX1 < usX0 )
 c0031a8:	e28d4010 	add	r4, sp, #16
 c0031ac:	e8940030 	ldm	r4, {r4, r5}
 c0031b0:	e1540005 	cmp	r4, r5
 c0031b4:	d1a00005 	movle	r0, r5
 c0031b8:	d1a02004 	movle	r2, r4
 c0031bc:	da000008 	ble	c0031e4 <Lcd_Draw_Box+0x228>
    {
        GUISWAP (usX1, usX0);
 c0031c0:	e0255004 	eor	r5, r5, r4
 c0031c4:	e1a0a805 	lsl	sl, r5, #16
 c0031c8:	e1a0082a 	lsr	r0, sl, #16
 c0031cc:	e0244000 	eor	r4, r4, r0
 c0031d0:	e1a02804 	lsl	r2, r4, #16
 c0031d4:	e1a02842 	asr	r2, r2, #16
 c0031d8:	e0225000 	eor	r5, r2, r0
 c0031dc:	e1a0a805 	lsl	sl, r5, #16
 c0031e0:	e1a0084a 	asr	r0, sl, #16
    }

    while( (usWidth--) > 0 )
    {
        usLen = usX1 - usX0 + 1;
 c0031e4:	e2800001 	add	r0, r0, #1
 c0031e8:	e062a000 	rsb	sl, r2, r0
 c0031ec:	e1a0480a 	lsl	r4, sl, #16
 c0031f0:	e1a0a824 	lsr	sl, r4, #16
        while( (usLen--) > 0 )
 c0031f4:	e1a0480a 	lsl	r4, sl, #16
 c0031f8:	e3540000 	cmp	r4, #0
 c0031fc:	da000062 	ble	c00338c <Lcd_Draw_Box+0x3d0>
 c003200:	e24a8001 	sub	r8, sl, #1
*			ucColor -- appointed color value
* ret:		none
* modify:
* comment:		
*********************************************************************************************/
void Lcd_Draw_Box(INT16 usLeft, INT16 usTop, INT16 usRight, INT16 usBottom, INT8U ucColor)
 c003204:	e1a09808 	lsl	r9, r8, #16
 c003208:	e1a00849 	asr	r0, r9, #16
    }

    while( (usWidth--) > 0 )
    {
        usLen = usX1 - usX0 + 1;
        while( (usLen--) > 0 )
 c00320c:	e0837103 	add	r7, r3, r3, lsl #2
*			ucColor -- appointed color value
* ret:		none
* modify:
* comment:		
*********************************************************************************************/
void Lcd_Draw_Box(INT16 usLeft, INT16 usTop, INT16 usRight, INT16 usBottom, INT8U ucColor)
 c003210:	e58d0004 	str	r0, [sp, #4]
    }

    while( (usWidth--) > 0 )
    {
        usLen = usX1 - usX0 + 1;
        while( (usLen--) > 0 )
 c003214:	e1a05187 	lsl	r5, r7, #3
*			ucColor -- appointed color value
* ret:		none
* modify:
* comment:		
*********************************************************************************************/
void Lcd_Draw_Box(INT16 usLeft, INT16 usTop, INT16 usRight, INT16 usBottom, INT8U ucColor)
 c003218:	e0800002 	add	r0, r0, r2
    }

    while( (usWidth--) > 0 )
    {
        usLen = usX1 - usX0 + 1;
        while( (usLen--) > 0 )
 c00321c:	e28567c3 	add	r6, r5, #51118080	; 0x30c0000
        {
        	(LCD_PutPixel(usX0 + usLen, usY0, ucColor));
 c003220:	e3500000 	cmp	r0, #0
 c003224:	e1a04fc0 	asr	r4, r0, #31
 c003228:	e2808007 	add	r8, r0, #7
 c00322c:	e1a04ea4 	lsr	r4, r4, #29
 c003230:	a1a08000 	movge	r8, r0
    }

    while( (usWidth--) > 0 )
    {
        usLen = usX1 - usX0 + 1;
        while( (usLen--) > 0 )
 c003234:	e2866d96 	add	r6, r6, #9600	; 0x2580
        {
        	(LCD_PutPixel(usX0 + usLen, usY0, ucColor));
 c003238:	e0809004 	add	r9, r0, r4
 c00323c:	e08671c8 	add	r7, r6, r8, asr #3
 c003240:	e2095007 	and	r5, r9, #7
 c003244:	e1a07107 	lsl	r7, r7, #2
 c003248:	e0644005 	rsb	r4, r4, r5
 c00324c:	e5979000 	ldr	r9, [r7]
 c003250:	e1a08104 	lsl	r8, r4, #2
 c003254:	e3a0520f 	mov	r5, #-268435456	; 0xf0000000
 c003258:	e1c99835 	bic	r9, r9, r5, lsr r8
 c00325c:	e2644007 	rsb	r4, r4, #7
 c003260:	e1a08104 	lsl	r8, r4, #2
 c003264:	e189881c 	orr	r8, r9, ip, lsl r8
*			ucColor -- appointed color value
* ret:		none
* modify:
* comment:		
*********************************************************************************************/
void Lcd_Draw_Box(INT16 usLeft, INT16 usTop, INT16 usRight, INT16 usBottom, INT8U ucColor)
 c003268:	e24a4001 	sub	r4, sl, #1
 c00326c:	e59da004 	ldr	sl, [sp, #4]
 c003270:	e2422001 	sub	r2, r2, #1
 c003274:	e082200a 	add	r2, r2, sl
 c003278:	e1a0a804 	lsl	sl, r4, #16
 c00327c:	e042a82a 	sub	sl, r2, sl, lsr #16
 c003280:	e060400a 	rsb	r4, r0, sl
    while( (usWidth--) > 0 )
    {
        usLen = usX1 - usX0 + 1;
        while( (usLen--) > 0 )
        {
        	(LCD_PutPixel(usX0 + usLen, usY0, ucColor));
 c003284:	e2402001 	sub	r2, r0, #1
 c003288:	e1e04004 	mvn	r4, r4
    }

    while( (usWidth--) > 0 )
    {
        usLen = usX1 - usX0 + 1;
        while( (usLen--) > 0 )
 c00328c:	e152000a 	cmp	r2, sl
        {
        	(LCD_PutPixel(usX0 + usLen, usY0, ucColor));
 c003290:	e58d900c 	str	r9, [sp, #12]
 c003294:	e2044001 	and	r4, r4, #1
 c003298:	e5878000 	str	r8, [r7]
    }

    while( (usWidth--) > 0 )
    {
        usLen = usX1 - usX0 + 1;
        while( (usLen--) > 0 )
 c00329c:	0a00003a 	beq	c00338c <Lcd_Draw_Box+0x3d0>
 c0032a0:	e3540000 	cmp	r4, #0
 c0032a4:	0a000013 	beq	c0032f8 <Lcd_Draw_Box+0x33c>
        {
        	(LCD_PutPixel(usX0 + usLen, usY0, ucColor));
 c0032a8:	e3520000 	cmp	r2, #0
 c0032ac:	e1a08fc2 	asr	r8, r2, #31
 c0032b0:	e1a07ea8 	lsr	r7, r8, #29
 c0032b4:	a1a00002 	movge	r0, r2
 c0032b8:	b2800006 	addlt	r0, r0, #6
 c0032bc:	e0824007 	add	r4, r2, r7
 c0032c0:	e08601c0 	add	r0, r6, r0, asr #3
 c0032c4:	e1a00100 	lsl	r0, r0, #2
 c0032c8:	e2048007 	and	r8, r4, #7
 c0032cc:	e0674008 	rsb	r4, r7, r8
 c0032d0:	e5907000 	ldr	r7, [r0]
 c0032d4:	e1a08104 	lsl	r8, r4, #2
 c0032d8:	e1c77835 	bic	r7, r7, r5, lsr r8
 c0032dc:	e2644007 	rsb	r4, r4, #7
 c0032e0:	e1a04104 	lsl	r4, r4, #2
 c0032e4:	e187741c 	orr	r7, r7, ip, lsl r4
 c0032e8:	e2422001 	sub	r2, r2, #1
    }

    while( (usWidth--) > 0 )
    {
        usLen = usX1 - usX0 + 1;
        while( (usLen--) > 0 )
 c0032ec:	e152000a 	cmp	r2, sl
        {
        	(LCD_PutPixel(usX0 + usLen, usY0, ucColor));
 c0032f0:	e5807000 	str	r7, [r0]
    }

    while( (usWidth--) > 0 )
    {
        usLen = usX1 - usX0 + 1;
        while( (usLen--) > 0 )
 c0032f4:	0a000024 	beq	c00338c <Lcd_Draw_Box+0x3d0>
        {
        	(LCD_PutPixel(usX0 + usLen, usY0, ucColor));
 c0032f8:	e1a07fc2 	asr	r7, r2, #31
 c0032fc:	e3520000 	cmp	r2, #0
 c003300:	e2820007 	add	r0, r2, #7
 c003304:	e1a08ea7 	lsr	r8, r7, #29
 c003308:	a1a00002 	movge	r0, r2
 c00330c:	e0829008 	add	r9, r2, r8
 c003310:	e08641c0 	add	r4, r6, r0, asr #3
 c003314:	e1a04104 	lsl	r4, r4, #2
 c003318:	e2097007 	and	r7, r9, #7
 c00331c:	e0688007 	rsb	r8, r8, r7
 c003320:	e5949000 	ldr	r9, [r4]
 c003324:	e1a00108 	lsl	r0, r8, #2
 c003328:	e1c99035 	bic	r9, r9, r5, lsr r0
 c00332c:	e2687007 	rsb	r7, r8, #7
 c003330:	e1a00107 	lsl	r0, r7, #2
 c003334:	e189701c 	orr	r7, r9, ip, lsl r0
 c003338:	e2520001 	subs	r0, r2, #1
 c00333c:	e1a08fc0 	asr	r8, r0, #31
 c003340:	42822006 	addmi	r2, r2, #6
 c003344:	51a02000 	movpl	r2, r0
 c003348:	e1a08ea8 	lsr	r8, r8, #29
 c00334c:	e5847000 	str	r7, [r4]
 c003350:	e0807008 	add	r7, r0, r8
 c003354:	e08641c2 	add	r4, r6, r2, asr #3
 c003358:	e1a04104 	lsl	r4, r4, #2
 c00335c:	e2072007 	and	r2, r7, #7
 c003360:	e0688002 	rsb	r8, r8, r2
 c003364:	e5942000 	ldr	r2, [r4]
 c003368:	e1a07108 	lsl	r7, r8, #2
 c00336c:	e1c22735 	bic	r2, r2, r5, lsr r7
 c003370:	e2688007 	rsb	r8, r8, #7
 c003374:	e1a07108 	lsl	r7, r8, #2
 c003378:	e182771c 	orr	r7, r2, ip, lsl r7
 c00337c:	e2402001 	sub	r2, r0, #1
    }

    while( (usWidth--) > 0 )
    {
        usLen = usX1 - usX0 + 1;
        while( (usLen--) > 0 )
 c003380:	e152000a 	cmp	r2, sl
        {
        	(LCD_PutPixel(usX0 + usLen, usY0, ucColor));
 c003384:	e5847000 	str	r7, [r4]
    }

    while( (usWidth--) > 0 )
    {
        usLen = usX1 - usX0 + 1;
        while( (usLen--) > 0 )
 c003388:	1affffda 	bne	c0032f8 <Lcd_Draw_Box+0x33c>
*********************************************************************************************/
void Lcd_Draw_VLine (INT16 usY0, INT16 usY1, INT16 usX0, INT8U ucColor, INT16U usWidth)
{
	INT16 usLen;

    if( usY1 < usY0 )
 c00338c:	e1510003 	cmp	r1, r3
 c003390:	d1a00003 	movle	r0, r3
 c003394:	d1a02001 	movle	r2, r1
 c003398:	da000008 	ble	c0033c0 <Lcd_Draw_Box+0x404>
    {
        GUISWAP (usY1, usY0);
 c00339c:	e0232001 	eor	r2, r3, r1
 c0033a0:	e1a05802 	lsl	r5, r2, #16
 c0033a4:	e1a05825 	lsr	r5, r5, #16
 c0033a8:	e0210005 	eor	r0, r1, r5
 c0033ac:	e1a02800 	lsl	r2, r0, #16
 c0033b0:	e1a02842 	asr	r2, r2, #16
 c0033b4:	e0220005 	eor	r0, r2, r5
 c0033b8:	e1a05800 	lsl	r5, r0, #16
 c0033bc:	e1a00845 	asr	r0, r5, #16
    }

    while( (usWidth--) > 0 )
    {
        usLen = usY1 - usY0 + 1;
 c0033c0:	e2805001 	add	r5, r0, #1
 c0033c4:	e0620005 	rsb	r0, r2, r5
 c0033c8:	e1a05800 	lsl	r5, r0, #16
 c0033cc:	e1a05825 	lsr	r5, r5, #16
        while( (usLen--) > 0 )
 c0033d0:	e1a00805 	lsl	r0, r5, #16
 c0033d4:	e3500000 	cmp	r0, #0
 c0033d8:	da000054 	ble	c003530 <Lcd_Draw_Box+0x574>
 c0033dc:	e59d6010 	ldr	r6, [sp, #16]
 c0033e0:	e1a04fc6 	asr	r4, r6, #31
 c0033e4:	e1a09ea4 	lsr	r9, r4, #29
 c0033e8:	e0860009 	add	r0, r6, r9
 c0033ec:	e2007007 	and	r7, r0, #7
 c0033f0:	e0698007 	rsb	r8, r9, r7
 c0033f4:	e2686007 	rsb	r6, r8, #7
 c0033f8:	e1a04108 	lsl	r4, r8, #2
 c0033fc:	e3a0a20f 	mov	sl, #-268435456	; 0xf0000000
 c003400:	e1e0443a 	mvn	r4, sl, lsr r4
 c003404:	e1a00106 	lsl	r0, r6, #2
 c003408:	e1a0001c 	lsl	r0, ip, r0
 c00340c:	e59d7010 	ldr	r7, [sp, #16]
 c003410:	e2459001 	sub	r9, r5, #1
 c003414:	e3570000 	cmp	r7, #0
 c003418:	e2878007 	add	r8, r7, #7
*			ucColor -- appointed color value
* ret:		none
* modify:
* comment:		
*********************************************************************************************/
void Lcd_Draw_Box(INT16 usLeft, INT16 usTop, INT16 usRight, INT16 usBottom, INT8U ucColor)
 c00341c:	e1a0a809 	lsl	sl, r9, #16
    }

    while( (usWidth--) > 0 )
    {
        usLen = usY1 - usY0 + 1;
        while( (usLen--) > 0 )
 c003420:	a1a08007 	movge	r8, r7
*			ucColor -- appointed color value
* ret:		none
* modify:
* comment:		
*********************************************************************************************/
void Lcd_Draw_Box(INT16 usLeft, INT16 usTop, INT16 usRight, INT16 usBottom, INT8U ucColor)
 c003424:	e082284a 	add	r2, r2, sl, asr #16
    }

    while( (usWidth--) > 0 )
    {
        usLen = usY1 - usY0 + 1;
        while( (usLen--) > 0 )
 c003428:	e1a081c8 	asr	r8, r8, #3
*			ucColor -- appointed color value
* ret:		none
* modify:
* comment:		
*********************************************************************************************/
void Lcd_Draw_Box(INT16 usLeft, INT16 usTop, INT16 usRight, INT16 usBottom, INT8U ucColor)
 c00342c:	e0826102 	add	r6, r2, r2, lsl #2
 c003430:	e28897c3 	add	r9, r8, #51118080	; 0x30c0000
 c003434:	e1a06186 	lsl	r6, r6, #3
 c003438:	e2897d96 	add	r7, r9, #9600	; 0x2580
 c00343c:	e245a001 	sub	sl, r5, #1
 c003440:	e1a0980a 	lsl	r9, sl, #16
 c003444:	e0865007 	add	r5, r6, r7
 c003448:	e59f2290 	ldr	r2, [pc, #656]	; c0036e0 <Lcd_Draw_Box+0x724>
 c00344c:	e1a05105 	lsl	r5, r5, #2
 c003450:	e1a07829 	lsr	r7, r9, #16
 c003454:	e088a002 	add	sl, r8, r2
    while( (usWidth--) > 0 )
    {
        usLen = usY1 - usY0 + 1;
        while( (usLen--) > 0 )
        {
        	(LCD_PutPixel(usX0, usY0 + usLen, ucColor));
 c003458:	e5959000 	ldr	r9, [r5]
*			ucColor -- appointed color value
* ret:		none
* modify:
* comment:		
*********************************************************************************************/
void Lcd_Draw_Box(INT16 usLeft, INT16 usTop, INT16 usRight, INT16 usBottom, INT8U ucColor)
 c00345c:	e0877107 	add	r7, r7, r7, lsl #2
 c003460:	e04a2187 	sub	r2, sl, r7, lsl #3
 c003464:	e082a006 	add	sl, r2, r6
    while( (usWidth--) > 0 )
    {
        usLen = usY1 - usY0 + 1;
        while( (usLen--) > 0 )
        {
        	(LCD_PutPixel(usX0, usY0 + usLen, ucColor));
 c003468:	e0047009 	and	r7, r4, r9
*			ucColor -- appointed color value
* ret:		none
* modify:
* comment:		
*********************************************************************************************/
void Lcd_Draw_Box(INT16 usLeft, INT16 usTop, INT16 usRight, INT16 usBottom, INT8U ucColor)
 c00346c:	e1a0a10a 	lsl	sl, sl, #2
    while( (usWidth--) > 0 )
    {
        usLen = usY1 - usY0 + 1;
        while( (usLen--) > 0 )
        {
        	(LCD_PutPixel(usX0, usY0 + usLen, ucColor));
 c003470:	e1a02005 	mov	r2, r5
 c003474:	e1807007 	orr	r7, r0, r7
 c003478:	e06a6005 	rsb	r6, sl, r5
 c00347c:	e40270a0 	str	r7, [r2], #-160	; 0xffffff60
 c003480:	e24660a0 	sub	r6, r6, #160	; 0xa0
 c003484:	e1a062a6 	lsr	r6, r6, #5
    }

    while( (usWidth--) > 0 )
    {
        usLen = usY1 - usY0 + 1;
        while( (usLen--) > 0 )
 c003488:	e152000a 	cmp	r2, sl
 c00348c:	e2066003 	and	r6, r6, #3
 c003490:	0a000026 	beq	c003530 <Lcd_Draw_Box+0x574>
 c003494:	e3560000 	cmp	r6, #0
 c003498:	0a000011 	beq	c0034e4 <Lcd_Draw_Box+0x528>
 c00349c:	e3560001 	cmp	r6, #1
 c0034a0:	0a000009 	beq	c0034cc <Lcd_Draw_Box+0x510>
 c0034a4:	e3560002 	cmp	r6, #2
        {
        	(LCD_PutPixel(usX0, usY0 + usLen, ucColor));
 c0034a8:	15926000 	ldrne	r6, [r2]
 c0034ac:	10046006 	andne	r6, r4, r6
 c0034b0:	11806006 	orrne	r6, r0, r6
 c0034b4:	15826000 	strne	r6, [r2]
 c0034b8:	12452d05 	subne	r2, r5, #320	; 0x140
 c0034bc:	e5925000 	ldr	r5, [r2]
 c0034c0:	e0045005 	and	r5, r4, r5
 c0034c4:	e1805005 	orr	r5, r0, r5
 c0034c8:	e40250a0 	str	r5, [r2], #-160	; 0xffffff60
 c0034cc:	e5925000 	ldr	r5, [r2]
 c0034d0:	e0045005 	and	r5, r4, r5
 c0034d4:	e1805005 	orr	r5, r0, r5
 c0034d8:	e40250a0 	str	r5, [r2], #-160	; 0xffffff60
    }

    while( (usWidth--) > 0 )
    {
        usLen = usY1 - usY0 + 1;
        while( (usLen--) > 0 )
 c0034dc:	e152000a 	cmp	r2, sl
 c0034e0:	0a000012 	beq	c003530 <Lcd_Draw_Box+0x574>
        {
        	(LCD_PutPixel(usX0, usY0 + usLen, ucColor));
 c0034e4:	e5928000 	ldr	r8, [r2]
 c0034e8:	e51270a0 	ldr	r7, [r2, #-160]	; 0xffffff60
 c0034ec:	e5126140 	ldr	r6, [r2, #-320]	; 0xfffffec0
 c0034f0:	e51251e0 	ldr	r5, [r2, #-480]	; 0xfffffe20
 c0034f4:	e0048008 	and	r8, r4, r8
 c0034f8:	e0047007 	and	r7, r4, r7
 c0034fc:	e0046006 	and	r6, r4, r6
 c003500:	e0045005 	and	r5, r4, r5
 c003504:	e1808008 	orr	r8, r0, r8
 c003508:	e1807007 	orr	r7, r0, r7
 c00350c:	e1806006 	orr	r6, r0, r6
 c003510:	e1805005 	orr	r5, r0, r5
 c003514:	e5828000 	str	r8, [r2]
 c003518:	e50270a0 	str	r7, [r2, #-160]	; 0xffffff60
 c00351c:	e5026140 	str	r6, [r2, #-320]	; 0xfffffec0
 c003520:	e50251e0 	str	r5, [r2, #-480]	; 0xfffffe20
 c003524:	e2422d0a 	sub	r2, r2, #640	; 0x280
    }

    while( (usWidth--) > 0 )
    {
        usLen = usY1 - usY0 + 1;
        while( (usLen--) > 0 )
 c003528:	e152000a 	cmp	r2, sl
 c00352c:	1affffec 	bne	c0034e4 <Lcd_Draw_Box+0x528>
*********************************************************************************************/
void Lcd_Draw_VLine (INT16 usY0, INT16 usY1, INT16 usX0, INT8U ucColor, INT16U usWidth)
{
	INT16 usLen;

    if( usY1 < usY0 )
 c003530:	e1510003 	cmp	r1, r3
 c003534:	da000008 	ble	c00355c <Lcd_Draw_Box+0x5a0>
    {
        GUISWAP (usY1, usY0);
 c003538:	e0230001 	eor	r0, r3, r1
 c00353c:	e1a02800 	lsl	r2, r0, #16
 c003540:	e1a00822 	lsr	r0, r2, #16
 c003544:	e0213000 	eor	r3, r1, r0
 c003548:	e1a01803 	lsl	r1, r3, #16
 c00354c:	e1a01841 	asr	r1, r1, #16
 c003550:	e0212000 	eor	r2, r1, r0
 c003554:	e1a03802 	lsl	r3, r2, #16
 c003558:	e1a03843 	asr	r3, r3, #16
    }

    while( (usWidth--) > 0 )
    {
        usLen = usY1 - usY0 + 1;
 c00355c:	e2832001 	add	r2, r3, #1
 c003560:	e0610002 	rsb	r0, r1, r2
 c003564:	e1a03800 	lsl	r3, r0, #16
 c003568:	e1a03823 	lsr	r3, r3, #16
        while( (usLen--) > 0 )
 c00356c:	e1a02803 	lsl	r2, r3, #16
 c003570:	e3520000 	cmp	r2, #0
 c003574:	da000053 	ble	c0036c8 <Lcd_Draw_Box+0x70c>
 c003578:	e59d8014 	ldr	r8, [sp, #20]
 c00357c:	e1a05fc8 	asr	r5, r8, #31
 c003580:	e1a06ea5 	lsr	r6, r5, #29
 c003584:	e0882006 	add	r2, r8, r6
 c003588:	e2024007 	and	r4, r2, #7
 c00358c:	e0660004 	rsb	r0, r6, r4
 c003590:	e2606007 	rsb	r6, r0, #7
 c003594:	e1a02100 	lsl	r2, r0, #2
 c003598:	e3a0520f 	mov	r5, #-268435456	; 0xf0000000
 c00359c:	e1a04106 	lsl	r4, r6, #2
 c0035a0:	e1e02235 	mvn	r2, r5, lsr r2
 c0035a4:	e1a0c41c 	lsl	ip, ip, r4
 c0035a8:	e2430001 	sub	r0, r3, #1
 c0035ac:	e3580000 	cmp	r8, #0
*			ucColor -- appointed color value
* ret:		none
* modify:
* comment:		
*********************************************************************************************/
void Lcd_Draw_Box(INT16 usLeft, INT16 usTop, INT16 usRight, INT16 usBottom, INT8U ucColor)
 c0035b0:	e1a06800 	lsl	r6, r0, #16
    }

    while( (usWidth--) > 0 )
    {
        usLen = usY1 - usY0 + 1;
        while( (usLen--) > 0 )
 c0035b4:	e2885007 	add	r5, r8, #7
 c0035b8:	a1a05008 	movge	r5, r8
*			ucColor -- appointed color value
* ret:		none
* modify:
* comment:		
*********************************************************************************************/
void Lcd_Draw_Box(INT16 usLeft, INT16 usTop, INT16 usRight, INT16 usBottom, INT8U ucColor)
 c0035bc:	e0814846 	add	r4, r1, r6, asr #16
    }

    while( (usWidth--) > 0 )
    {
        usLen = usY1 - usY0 + 1;
        while( (usLen--) > 0 )
 c0035c0:	e1a051c5 	asr	r5, r5, #3
*			ucColor -- appointed color value
* ret:		none
* modify:
* comment:		
*********************************************************************************************/
void Lcd_Draw_Box(INT16 usLeft, INT16 usTop, INT16 usRight, INT16 usBottom, INT8U ucColor)
 c0035c4:	e0841104 	add	r1, r4, r4, lsl #2
 c0035c8:	e28507c3 	add	r0, r5, #51118080	; 0x30c0000
 c0035cc:	e1a01181 	lsl	r1, r1, #3
 c0035d0:	e2434001 	sub	r4, r3, #1
 c0035d4:	e2806d96 	add	r6, r0, #9600	; 0x2580
 c0035d8:	e0810006 	add	r0, r1, r6
 c0035dc:	e59f30fc 	ldr	r3, [pc, #252]	; c0036e0 <Lcd_Draw_Box+0x724>
 c0035e0:	e1a06804 	lsl	r6, r4, #16
 c0035e4:	e1a00100 	lsl	r0, r0, #2
 c0035e8:	e1a04826 	lsr	r4, r6, #16
 c0035ec:	e0853003 	add	r3, r5, r3
    while( (usWidth--) > 0 )
    {
        usLen = usY1 - usY0 + 1;
        while( (usLen--) > 0 )
        {
        	(LCD_PutPixel(usX0, usY0 + usLen, ucColor));
 c0035f0:	e5906000 	ldr	r6, [r0]
*			ucColor -- appointed color value
* ret:		none
* modify:
* comment:		
*********************************************************************************************/
void Lcd_Draw_Box(INT16 usLeft, INT16 usTop, INT16 usRight, INT16 usBottom, INT8U ucColor)
 c0035f4:	e0844104 	add	r4, r4, r4, lsl #2
 c0035f8:	e0434184 	sub	r4, r3, r4, lsl #3
 c0035fc:	e0843001 	add	r3, r4, r1
    while( (usWidth--) > 0 )
    {
        usLen = usY1 - usY0 + 1;
        while( (usLen--) > 0 )
        {
        	(LCD_PutPixel(usX0, usY0 + usLen, ucColor));
 c003600:	e0024006 	and	r4, r2, r6
 c003604:	e18c4004 	orr	r4, ip, r4
*			ucColor -- appointed color value
* ret:		none
* modify:
* comment:		
*********************************************************************************************/
void Lcd_Draw_Box(INT16 usLeft, INT16 usTop, INT16 usRight, INT16 usBottom, INT8U ucColor)
 c003608:	e1a06103 	lsl	r6, r3, #2
    while( (usWidth--) > 0 )
    {
        usLen = usY1 - usY0 + 1;
        while( (usLen--) > 0 )
        {
        	(LCD_PutPixel(usX0, usY0 + usLen, ucColor));
 c00360c:	e1a03000 	mov	r3, r0
 c003610:	e0661000 	rsb	r1, r6, r0
 c003614:	e40340a0 	str	r4, [r3], #-160	; 0xffffff60
 c003618:	e24110a0 	sub	r1, r1, #160	; 0xa0
 c00361c:	e1a012a1 	lsr	r1, r1, #5
    }

    while( (usWidth--) > 0 )
    {
        usLen = usY1 - usY0 + 1;
        while( (usLen--) > 0 )
 c003620:	e1530006 	cmp	r3, r6
 c003624:	e2011003 	and	r1, r1, #3
 c003628:	0a000026 	beq	c0036c8 <Lcd_Draw_Box+0x70c>
 c00362c:	e3510000 	cmp	r1, #0
 c003630:	0a000011 	beq	c00367c <Lcd_Draw_Box+0x6c0>
 c003634:	e3510001 	cmp	r1, #1
 c003638:	0a000009 	beq	c003664 <Lcd_Draw_Box+0x6a8>
 c00363c:	e3510002 	cmp	r1, #2
        {
        	(LCD_PutPixel(usX0, usY0 + usLen, ucColor));
 c003640:	15931000 	ldrne	r1, [r3]
 c003644:	10021001 	andne	r1, r2, r1
 c003648:	118c1001 	orrne	r1, ip, r1
 c00364c:	15831000 	strne	r1, [r3]
 c003650:	12403d05 	subne	r3, r0, #320	; 0x140
 c003654:	e5931000 	ldr	r1, [r3]
 c003658:	e0020001 	and	r0, r2, r1
 c00365c:	e18c1000 	orr	r1, ip, r0
 c003660:	e40310a0 	str	r1, [r3], #-160	; 0xffffff60
 c003664:	e5930000 	ldr	r0, [r3]
 c003668:	e0021000 	and	r1, r2, r0
 c00366c:	e18c0001 	orr	r0, ip, r1
 c003670:	e40300a0 	str	r0, [r3], #-160	; 0xffffff60
    }

    while( (usWidth--) > 0 )
    {
        usLen = usY1 - usY0 + 1;
        while( (usLen--) > 0 )
 c003674:	e1530006 	cmp	r3, r6
 c003678:	0a000012 	beq	c0036c8 <Lcd_Draw_Box+0x70c>
        {
        	(LCD_PutPixel(usX0, usY0 + usLen, ucColor));
 c00367c:	e5935000 	ldr	r5, [r3]
 c003680:	e51340a0 	ldr	r4, [r3, #-160]	; 0xffffff60
 c003684:	e5130140 	ldr	r0, [r3, #-320]	; 0xfffffec0
 c003688:	e51311e0 	ldr	r1, [r3, #-480]	; 0xfffffe20
 c00368c:	e0025005 	and	r5, r2, r5
 c003690:	e0024004 	and	r4, r2, r4
 c003694:	e0020000 	and	r0, r2, r0
 c003698:	e0021001 	and	r1, r2, r1
 c00369c:	e18c5005 	orr	r5, ip, r5
 c0036a0:	e18c4004 	orr	r4, ip, r4
 c0036a4:	e18c0000 	orr	r0, ip, r0
 c0036a8:	e18c1001 	orr	r1, ip, r1
 c0036ac:	e5835000 	str	r5, [r3]
 c0036b0:	e50340a0 	str	r4, [r3, #-160]	; 0xffffff60
 c0036b4:	e5030140 	str	r0, [r3, #-320]	; 0xfffffec0
 c0036b8:	e50311e0 	str	r1, [r3, #-480]	; 0xfffffe20
 c0036bc:	e2433d0a 	sub	r3, r3, #640	; 0x280
    }

    while( (usWidth--) > 0 )
    {
        usLen = usY1 - usY0 + 1;
        while( (usLen--) > 0 )
 c0036c0:	e1530006 	cmp	r3, r6
 c0036c4:	1affffec 	bne	c00367c <Lcd_Draw_Box+0x6c0>
{
	Lcd_Draw_HLine(usLeft, usRight,  usTop,    ucColor, 1);
	Lcd_Draw_HLine(usLeft, usRight,  usBottom, ucColor, 1);
	Lcd_Draw_VLine(usTop,  usBottom, usLeft,   ucColor, 1);
	Lcd_Draw_VLine(usTop,  usBottom, usRight,  ucColor, 1);
}
 c0036c8:	e28dd01c 	add	sp, sp, #28
 c0036cc:	e8bd07f0 	pop	{r4, r5, r6, r7, r8, r9, sl}
 c0036d0:	e12fff1e 	bx	lr
 c0036d4:	e1a0a002 	mov	sl, r2
*********************************************************************************************/
void Lcd_Draw_HLine(INT16 usX0, INT16 usX1, INT16 usY0, INT8U ucColor, INT16U usWidth)
{
	INT16 usLen;

    if( usX1 < usX0 )
 c0036d8:	e59d2010 	ldr	r2, [sp, #16]
 c0036dc:	eafffe47 	b	c003000 <Lcd_Draw_Box+0x44>
 c0036e0:	030c2558 	.word	0x030c2558

0c0036e4 <Lcd_Draw_Line>:
* ret:		none
* modify:
* comment:		
*********************************************************************************************/
void Lcd_Draw_Line(INT16 usX0, INT16 usY0, INT16 usX1, INT16 usY1, INT8U ucColor, INT16U usWidth)
{
 c0036e4:	e1a0c00d 	mov	ip, sp
 c0036e8:	e92ddff0 	push	{r4, r5, r6, r7, r8, r9, sl, fp, ip, lr, pc}
 c0036ec:	e24cb004 	sub	fp, ip, #4
 c0036f0:	e24dd034 	sub	sp, sp, #52	; 0x34
	INT16 y_sign;
	INT16 x_sign;
	INT16 decision;
	INT16 wCurx, wCury, wNextx, wNexty, wpy, wpx;

	if( usY0 == usY1 )
 c0036f4:	e1510003 	cmp	r1, r3
* ret:		none
* modify:
* comment:		
*********************************************************************************************/
void Lcd_Draw_Line(INT16 usX0, INT16 usY0, INT16 usX1, INT16 usY1, INT8U ucColor, INT16U usWidth)
{
 c0036f8:	e1a04001 	mov	r4, r1
 c0036fc:	e1a06003 	mov	r6, r3
 c003700:	e1a05000 	mov	r5, r0
 c003704:	e1a08002 	mov	r8, r2
 c003708:	e5db7004 	ldrb	r7, [fp, #4]
 c00370c:	e1dbc0b8 	ldrh	ip, [fp, #8]
	INT16 y_sign;
	INT16 x_sign;
	INT16 decision;
	INT16 wCurx, wCury, wNextx, wNexty, wpy, wpx;

	if( usY0 == usY1 )
 c003710:	0a000256 	beq	c004070 <Lcd_Draw_Line+0x98c>
	{
		Lcd_Draw_HLine (usX0, usX1, usY0, ucColor, usWidth);
		return;
	}
	if( usX0 == usX1 )
 c003714:	e1500002 	cmp	r0, r2
 c003718:	0a0002d8 	beq	c004280 <Lcd_Draw_Line+0xb9c>
	{
		Lcd_Draw_VLine (usY0, usY1, usX0, ucColor, usWidth);
		return;
	}
	usDx = abs(usX0 - usX1);
 c00371c:	e062a000 	rsb	sl, r2, r0
	usDy = abs(usY0 - usY1);
 c003720:	e0633001 	rsb	r3, r3, r1
	if( usX0 == usX1 )
	{
		Lcd_Draw_VLine (usY0, usY1, usX0, ucColor, usWidth);
		return;
	}
	usDx = abs(usX0 - usX1);
 c003724:	e35a0000 	cmp	sl, #0
 c003728:	b26aa000 	rsblt	sl, sl, #0
	usDy = abs(usY0 - usY1);
 c00372c:	e3530000 	cmp	r3, #0
 c003730:	b2633000 	rsblt	r3, r3, #0
	if( usX0 == usX1 )
	{
		Lcd_Draw_VLine (usY0, usY1, usX0, ucColor, usWidth);
		return;
	}
	usDx = abs(usX0 - usX1);
 c003734:	e1a0280a 	lsl	r2, sl, #16
	usDy = abs(usY0 - usY1);
 c003738:	e1a09803 	lsl	r9, r3, #16
	if( usX0 == usX1 )
	{
		Lcd_Draw_VLine (usY0, usY1, usX0, ucColor, usWidth);
		return;
	}
	usDx = abs(usX0 - usX1);
 c00373c:	e1a02822 	lsr	r2, r2, #16
	usDy = abs(usY0 - usY1);
 c003740:	e1a0e829 	lsr	lr, r9, #16
	if( ((usDx >= usDy && (usX0 > usX1)) ||
 c003744:	e1a0a80e 	lsl	sl, lr, #16
 c003748:	e1a09802 	lsl	r9, r2, #16
 c00374c:	e1a00849 	asr	r0, r9, #16
 c003750:	e1a0184a 	asr	r1, sl, #16
 c003754:	e1500001 	cmp	r0, r1
	if( usX0 == usX1 )
	{
		Lcd_Draw_VLine (usY0, usY1, usX0, ucColor, usWidth);
		return;
	}
	usDx = abs(usX0 - usX1);
 c003758:	e50b204c 	str	r2, [fp, #-76]	; 0xffffffb4
	usDy = abs(usY0 - usY1);
	if( ((usDx >= usDy && (usX0 > usX1)) ||
 c00375c:	b3a02000 	movlt	r2, #0
 c003760:	a3a02001 	movge	r2, #1
 c003764:	e1500001 	cmp	r0, r1
 c003768:	a1550008 	cmpge	r5, r8
	{
		Lcd_Draw_VLine (usY0, usY1, usX0, ucColor, usWidth);
		return;
	}
	usDx = abs(usX0 - usX1);
	usDy = abs(usY0 - usY1);
 c00376c:	e50be050 	str	lr, [fp, #-80]	; 0xffffffb0
	if( ((usDx >= usDy && (usX0 > usX1)) ||
 c003770:	e50b0040 	str	r0, [fp, #-64]	; 0xffffffc0
 c003774:	e50b1044 	str	r1, [fp, #-68]	; 0xffffffbc
 c003778:	da0001fc 	ble	c003f70 <Lcd_Draw_Line+0x88c>
        ((usDy > usDx) && (usY0 > usY1))) )
    {
        GUISWAP(usX1, usX0);
 c00377c:	e0283005 	eor	r3, r8, r5
        GUISWAP(usY1, usY0);
 c003780:	e026e004 	eor	lr, r6, r4
	usDx = abs(usX0 - usX1);
	usDy = abs(usY0 - usY1);
	if( ((usDx >= usDy && (usX0 > usX1)) ||
        ((usDy > usDx) && (usY0 > usY1))) )
    {
        GUISWAP(usX1, usX0);
 c003784:	e0281003 	eor	r1, r8, r3
        GUISWAP(usY1, usY0);
 c003788:	e026000e 	eor	r0, r6, lr
	usDx = abs(usX0 - usX1);
	usDy = abs(usY0 - usY1);
	if( ((usDx >= usDy && (usX0 > usX1)) ||
        ((usDy > usDx) && (usY0 > usY1))) )
    {
        GUISWAP(usX1, usX0);
 c00378c:	e1a05008 	mov	r5, r8
        GUISWAP(usY1, usY0);
 c003790:	e1a04006 	mov	r4, r6
	usDx = abs(usX0 - usX1);
	usDy = abs(usY0 - usY1);
	if( ((usDx >= usDy && (usX0 > usX1)) ||
        ((usDy > usDx) && (usY0 > usY1))) )
    {
        GUISWAP(usX1, usX0);
 c003794:	e1a08801 	lsl	r8, r1, #16
        GUISWAP(usY1, usY0);
 c003798:	e1a06800 	lsl	r6, r0, #16
	usDx = abs(usX0 - usX1);
	usDy = abs(usY0 - usY1);
	if( ((usDx >= usDy && (usX0 > usX1)) ||
        ((usDy > usDx) && (usY0 > usY1))) )
    {
        GUISWAP(usX1, usX0);
 c00379c:	e1a08848 	asr	r8, r8, #16
        GUISWAP(usY1, usY0);
 c0037a0:	e1a06846 	asr	r6, r6, #16
    }
    y_sign = (usY1 - usY0) / usDy;
 c0037a4:	e51b1044 	ldr	r1, [fp, #-68]	; 0xffffffbc
 c0037a8:	e0640006 	rsb	r0, r4, r6
 c0037ac:	e50b2054 	str	r2, [fp, #-84]	; 0xffffffac
 c0037b0:	e50bc058 	str	ip, [fp, #-88]	; 0xffffffa8
 c0037b4:	eb001a8b 	bl	c00a1e8 <__aeabi_idiv>
 c0037b8:	e1a0c800 	lsl	ip, r0, #16
 c0037bc:	e1a0382c 	lsr	r3, ip, #16
    x_sign = (usX1 - usX0) / usDx;
 c0037c0:	e51b1040 	ldr	r1, [fp, #-64]	; 0xffffffc0
 c0037c4:	e0650008 	rsb	r0, r5, r8
        ((usDy > usDx) && (usY0 > usY1))) )
    {
        GUISWAP(usX1, usX0);
        GUISWAP(usY1, usY0);
    }
    y_sign = (usY1 - usY0) / usDy;
 c0037c8:	e50b3048 	str	r3, [fp, #-72]	; 0xffffffb8
    x_sign = (usX1 - usX0) / usDx;
 c0037cc:	eb001a85 	bl	c00a1e8 <__aeabi_idiv>

    if( usDx >= usDy )
 c0037d0:	e51b2054 	ldr	r2, [fp, #-84]	; 0xffffffac
    {
        GUISWAP(usX1, usX0);
        GUISWAP(usY1, usY0);
    }
    y_sign = (usY1 - usY0) / usDy;
    x_sign = (usX1 - usX0) / usDx;
 c0037d4:	e1a0c800 	lsl	ip, r0, #16

    if( usDx >= usDy )
 c0037d8:	e3520000 	cmp	r2, #0
    {
        GUISWAP(usX1, usX0);
        GUISWAP(usY1, usY0);
    }
    y_sign = (usY1 - usY0) / usDy;
    x_sign = (usX1 - usX0) / usDx;
 c0037dc:	e1a0082c 	lsr	r0, ip, #16

    if( usDx >= usDy )
 c0037e0:	e51bc058 	ldr	ip, [fp, #-88]	; 0xffffffa8
 c0037e4:	0a000111 	beq	c003c30 <Lcd_Draw_Line+0x54c>
    {
        for( wCurx = usX0, wCury = usY0, wNextx = usX1,
 c0037e8:	e1550008 	cmp	r5, r8
 c0037ec:	ca00021c 	bgt	c004064 <Lcd_Draw_Line+0x980>
             wNexty = usY1, decision = (usDx >> 1);
 c0037f0:	e1a008c9 	asr	r0, r9, #17
 c0037f4:	e1a0a82a 	lsr	sl, sl, #16
 c0037f8:	e1a09800 	lsl	r9, r0, #16
 c0037fc:	e50b8038 	str	r8, [fp, #-56]	; 0xffffffc8
 c003800:	e50b4030 	str	r4, [fp, #-48]	; 0xffffffd0
 c003804:	e50b5034 	str	r5, [fp, #-52]	; 0xffffffcc
            {
                decision -= usDx;
                wCury += y_sign;
                wNexty -= y_sign;
            }
            for( wpy = wCury - usWidth / 2;
 c003808:	e50b703c 	str	r7, [fp, #-60]	; 0xffffffc4
    x_sign = (usX1 - usX0) / usDx;

    if( usDx >= usDy )
    {
        for( wCurx = usX0, wCury = usY0, wNextx = usX1,
             wNexty = usY1, decision = (usDx >> 1);
 c00380c:	e50ba044 	str	sl, [fp, #-68]	; 0xffffffbc
 c003810:	e1a09829 	lsr	r9, r9, #16
 c003814:	e1a0c0ac 	lsr	ip, ip, #1
            {
                decision -= usDx;
                wCury += y_sign;
                wNexty -= y_sign;
            }
            for( wpy = wCury - usWidth / 2;
 c003818:	e1a0a006 	mov	sl, r6
    {
        for( wCurx = usX0, wCury = usY0, wNextx = usX1,
             wNexty = usY1, decision = (usDx >> 1);
             wCurx <= wNextx; wCurx++, wNextx--, decision += usDy )
        {
            if( decision >= usDx )
 c00381c:	e51b7040 	ldr	r7, [fp, #-64]	; 0xffffffc0
 c003820:	e1a05809 	lsl	r5, r9, #16
 c003824:	e1570845 	cmp	r7, r5, asr #16
 c003828:	ca00000c 	bgt	c003860 <Lcd_Draw_Line+0x17c>
            {
                decision -= usDx;
 c00382c:	e51b404c 	ldr	r4, [fp, #-76]	; 0xffffffb4
                wCury += y_sign;
 c003830:	e51b0030 	ldr	r0, [fp, #-48]	; 0xffffffd0
             wNexty = usY1, decision = (usDx >> 1);
             wCurx <= wNextx; wCurx++, wNextx--, decision += usDy )
        {
            if( decision >= usDx )
            {
                decision -= usDx;
 c003834:	e0649009 	rsb	r9, r4, r9
                wCury += y_sign;
 c003838:	e51b4048 	ldr	r4, [fp, #-72]	; 0xffffffb8
 c00383c:	e0843000 	add	r3, r4, r0
 c003840:	e1a0e803 	lsl	lr, r3, #16
                wNexty -= y_sign;
 c003844:	e064a00a 	rsb	sl, r4, sl
             wCurx <= wNextx; wCurx++, wNextx--, decision += usDy )
        {
            if( decision >= usDx )
            {
                decision -= usDx;
                wCury += y_sign;
 c003848:	e1a0182e 	lsr	r1, lr, #16
             wNexty = usY1, decision = (usDx >> 1);
             wCurx <= wNextx; wCurx++, wNextx--, decision += usDy )
        {
            if( decision >= usDx )
            {
                decision -= usDx;
 c00384c:	e1a02809 	lsl	r2, r9, #16
                wCury += y_sign;
                wNexty -= y_sign;
 c003850:	e1a0680a 	lsl	r6, sl, #16
             wCurx <= wNextx; wCurx++, wNextx--, decision += usDy )
        {
            if( decision >= usDx )
            {
                decision -= usDx;
                wCury += y_sign;
 c003854:	e50b1030 	str	r1, [fp, #-48]	; 0xffffffd0
             wNexty = usY1, decision = (usDx >> 1);
             wCurx <= wNextx; wCurx++, wNextx--, decision += usDy )
        {
            if( decision >= usDx )
            {
                decision -= usDx;
 c003858:	e1a09822 	lsr	r9, r2, #16
                wCury += y_sign;
                wNexty -= y_sign;
 c00385c:	e1a0a826 	lsr	sl, r6, #16
            }
            for( wpy = wCury - usWidth / 2;
 c003860:	e51b6030 	ldr	r6, [fp, #-48]	; 0xffffffd0
 c003864:	e06c1006 	rsb	r1, ip, r6
                 wpy <= wCury + usWidth / 2; wpy++ )
 c003868:	e1a07801 	lsl	r7, r1, #16
 c00386c:	e1a05806 	lsl	r5, r6, #16
 c003870:	e1a07847 	asr	r7, r7, #16
 c003874:	e08c6845 	add	r6, ip, r5, asr #16
            {
                decision -= usDx;
                wCury += y_sign;
                wNexty -= y_sign;
            }
            for( wpy = wCury - usWidth / 2;
 c003878:	e1570006 	cmp	r7, r6
 c00387c:	ca000069 	bgt	c003a28 <Lcd_Draw_Line+0x344>
 c003880:	e51b0034 	ldr	r0, [fp, #-52]	; 0xffffffcc
 c003884:	e1a03800 	lsl	r3, r0, #16
 c003888:	e1a0efc3 	asr	lr, r3, #31
 c00388c:	e1a02eae 	lsr	r2, lr, #29
 c003890:	e1a03843 	asr	r3, r3, #16
 c003894:	e0831002 	add	r1, r3, r2
 c003898:	e2015007 	and	r5, r1, #7
 c00389c:	e0628005 	rsb	r8, r2, r5
 c0038a0:	e268e007 	rsb	lr, r8, #7
 c0038a4:	e51b203c 	ldr	r2, [fp, #-60]	; 0xffffffc4
 c0038a8:	e1a00108 	lsl	r0, r8, #2
 c0038ac:	e3a0420f 	mov	r4, #-268435456	; 0xf0000000
 c0038b0:	e1e00034 	mvn	r0, r4, lsr r0
 c0038b4:	e1a0110e 	lsl	r1, lr, #2
 c0038b8:	e1a01112 	lsl	r1, r2, r1
 c0038bc:	e2835007 	add	r5, r3, #7
 c0038c0:	e3530000 	cmp	r3, #0
 c0038c4:	b1a03005 	movlt	r3, r5
 c0038c8:	e1a081c3 	asr	r8, r3, #3
 c0038cc:	e28847c3 	add	r4, r8, #51118080	; 0x30c0000
                 wpy <= wCury + usWidth / 2; wpy++ )
            {
                (LCD_PutPixel(wCurx, wpy, ucColor));
 c0038d0:	e087e107 	add	lr, r7, r7, lsl #2
            {
                decision -= usDx;
                wCury += y_sign;
                wNexty -= y_sign;
            }
            for( wpy = wCury - usWidth / 2;
 c0038d4:	e2844d96 	add	r4, r4, #9600	; 0x2580
                 wpy <= wCury + usWidth / 2; wpy++ )
            {
                (LCD_PutPixel(wCurx, wpy, ucColor));
 c0038d8:	e084218e 	add	r2, r4, lr, lsl #3
 c0038dc:	e1a0e102 	lsl	lr, r2, #2
 c0038e0:	e59e3000 	ldr	r3, [lr]
*			usWidth -- line's width
* ret:		none
* modify:
* comment:		
*********************************************************************************************/
void Lcd_Draw_Line(INT16 usX0, INT16 usY0, INT16 usX1, INT16 usY1, INT8U ucColor, INT16U usWidth)
 c0038e4:	e2875001 	add	r5, r7, #1
 c0038e8:	e2866002 	add	r6, r6, #2
 c0038ec:	e1e07005 	mvn	r7, r5
                wNexty -= y_sign;
            }
            for( wpy = wCury - usWidth / 2;
                 wpy <= wCury + usWidth / 2; wpy++ )
            {
                (LCD_PutPixel(wCurx, wpy, ucColor));
 c0038f0:	e0008003 	and	r8, r0, r3
 c0038f4:	e2853001 	add	r3, r5, #1
 c0038f8:	e1a02005 	mov	r2, r5
 c0038fc:	e1888001 	orr	r8, r8, r1
 c003900:	e0875006 	add	r5, r7, r6
            {
                decision -= usDx;
                wCury += y_sign;
                wNexty -= y_sign;
            }
            for( wpy = wCury - usWidth / 2;
 c003904:	e1530006 	cmp	r3, r6
 c003908:	e2057003 	and	r7, r5, #3
                 wpy <= wCury + usWidth / 2; wpy++ )
            {
                (LCD_PutPixel(wCurx, wpy, ucColor));
 c00390c:	e58e8000 	str	r8, [lr]
            {
                decision -= usDx;
                wCury += y_sign;
                wNexty -= y_sign;
            }
            for( wpy = wCury - usWidth / 2;
 c003910:	0a000044 	beq	c003a28 <Lcd_Draw_Line+0x344>
 c003914:	e3570000 	cmp	r7, #0
 c003918:	0a000020 	beq	c0039a0 <Lcd_Draw_Line+0x2bc>
 c00391c:	e3570001 	cmp	r7, #1
 c003920:	0a000013 	beq	c003974 <Lcd_Draw_Line+0x290>
 c003924:	e3570002 	cmp	r7, #2
 c003928:	0a000008 	beq	c003950 <Lcd_Draw_Line+0x26c>
                 wpy <= wCury + usWidth / 2; wpy++ )
            {
                (LCD_PutPixel(wCurx, wpy, ucColor));
 c00392c:	e0825102 	add	r5, r2, r2, lsl #2
 c003930:	e0847185 	add	r7, r4, r5, lsl #3
 c003934:	e1a07107 	lsl	r7, r7, #2
 c003938:	e597e000 	ldr	lr, [r7]
 c00393c:	e000200e 	and	r2, r0, lr
 c003940:	e1825001 	orr	r5, r2, r1
 c003944:	e5875000 	str	r5, [r7]
 c003948:	e1a02003 	mov	r2, r3
 c00394c:	e2833001 	add	r3, r3, #1
 c003950:	e082e102 	add	lr, r2, r2, lsl #2
 c003954:	e084218e 	add	r2, r4, lr, lsl #3
 c003958:	e1a02102 	lsl	r2, r2, #2
 c00395c:	e5925000 	ldr	r5, [r2]
 c003960:	e0007005 	and	r7, r0, r5
 c003964:	e187e001 	orr	lr, r7, r1
 c003968:	e582e000 	str	lr, [r2]
 c00396c:	e1a02003 	mov	r2, r3
 c003970:	e2833001 	add	r3, r3, #1
 c003974:	e0825102 	add	r5, r2, r2, lsl #2
 c003978:	e0842185 	add	r2, r4, r5, lsl #3
 c00397c:	e1a05102 	lsl	r5, r2, #2
 c003980:	e5957000 	ldr	r7, [r5]
 c003984:	e1a02003 	mov	r2, r3
 c003988:	e000e007 	and	lr, r0, r7
 c00398c:	e2833001 	add	r3, r3, #1
 c003990:	e18e7001 	orr	r7, lr, r1
            {
                decision -= usDx;
                wCury += y_sign;
                wNexty -= y_sign;
            }
            for( wpy = wCury - usWidth / 2;
 c003994:	e1530006 	cmp	r3, r6
                 wpy <= wCury + usWidth / 2; wpy++ )
            {
                (LCD_PutPixel(wCurx, wpy, ucColor));
 c003998:	e5857000 	str	r7, [r5]
            {
                decision -= usDx;
                wCury += y_sign;
                wNexty -= y_sign;
            }
            for( wpy = wCury - usWidth / 2;
 c00399c:	0a000021 	beq	c003a28 <Lcd_Draw_Line+0x344>
                 wpy <= wCury + usWidth / 2; wpy++ )
            {
                (LCD_PutPixel(wCurx, wpy, ucColor));
 c0039a0:	e0828102 	add	r8, r2, r2, lsl #2
 c0039a4:	e0845188 	add	r5, r4, r8, lsl #3
 c0039a8:	e1a08105 	lsl	r8, r5, #2
 c0039ac:	e5982000 	ldr	r2, [r8]
 c0039b0:	e0007002 	and	r7, r0, r2
 c0039b4:	e0835103 	add	r5, r3, r3, lsl #2
 c0039b8:	e187e001 	orr	lr, r7, r1
 c0039bc:	e588e000 	str	lr, [r8]
 c0039c0:	e0842185 	add	r2, r4, r5, lsl #3
 c0039c4:	e1a05102 	lsl	r5, r2, #2
 c0039c8:	e5957000 	ldr	r7, [r5]
 c0039cc:	e2832001 	add	r2, r3, #1
 c0039d0:	e000e007 	and	lr, r0, r7
 c0039d4:	e18e8001 	orr	r8, lr, r1
 c0039d8:	e0827102 	add	r7, r2, r2, lsl #2
 c0039dc:	e5858000 	str	r8, [r5]
 c0039e0:	e084e187 	add	lr, r4, r7, lsl #3
 c0039e4:	e1a0e10e 	lsl	lr, lr, #2
 c0039e8:	e59e5000 	ldr	r5, [lr]
 c0039ec:	e2827001 	add	r7, r2, #1
 c0039f0:	e0008005 	and	r8, r0, r5
 c0039f4:	e1888001 	orr	r8, r8, r1
 c0039f8:	e0875107 	add	r5, r7, r7, lsl #2
 c0039fc:	e58e8000 	str	r8, [lr]
 c003a00:	e0842185 	add	r2, r4, r5, lsl #3
 c003a04:	e1a05102 	lsl	r5, r2, #2
 c003a08:	e5957000 	ldr	r7, [r5]
 c003a0c:	e2832003 	add	r2, r3, #3
 c003a10:	e000e007 	and	lr, r0, r7
 c003a14:	e2833004 	add	r3, r3, #4
 c003a18:	e18e7001 	orr	r7, lr, r1
            {
                decision -= usDx;
                wCury += y_sign;
                wNexty -= y_sign;
            }
            for( wpy = wCury - usWidth / 2;
 c003a1c:	e1530006 	cmp	r3, r6
                 wpy <= wCury + usWidth / 2; wpy++ )
            {
                (LCD_PutPixel(wCurx, wpy, ucColor));
 c003a20:	e5857000 	str	r7, [r5]
            {
                decision -= usDx;
                wCury += y_sign;
                wNexty -= y_sign;
            }
            for( wpy = wCury - usWidth / 2;
 c003a24:	1affffdd 	bne	c0039a0 <Lcd_Draw_Line+0x2bc>
                 wpy <= wCury + usWidth / 2; wpy++ )
            {
                (LCD_PutPixel(wCurx, wpy, ucColor));
            }

            for( wpy = wNexty - usWidth / 2;
 c003a28:	e06c300a 	rsb	r3, ip, sl
                 wpy <= wNexty + usWidth / 2; wpy++ )
 c003a2c:	e1a01803 	lsl	r1, r3, #16
 c003a30:	e1a0680a 	lsl	r6, sl, #16
 c003a34:	e1a07841 	asr	r7, r1, #16
 c003a38:	e08c6846 	add	r6, ip, r6, asr #16
                 wpy <= wCury + usWidth / 2; wpy++ )
            {
                (LCD_PutPixel(wCurx, wpy, ucColor));
            }

            for( wpy = wNexty - usWidth / 2;
 c003a3c:	e1570006 	cmp	r7, r6
 c003a40:	ca000069 	bgt	c003bec <Lcd_Draw_Line+0x508>
 c003a44:	e51b0038 	ldr	r0, [fp, #-56]	; 0xffffffc8
 c003a48:	e1a08800 	lsl	r8, r0, #16
 c003a4c:	e1a0efc8 	asr	lr, r8, #31
 c003a50:	e1a02eae 	lsr	r2, lr, #29
 c003a54:	e1a08848 	asr	r8, r8, #16
 c003a58:	e0881002 	add	r1, r8, r2
 c003a5c:	e2013007 	and	r3, r1, #7
 c003a60:	e0625003 	rsb	r5, r2, r3
 c003a64:	e265e007 	rsb	lr, r5, #7
 c003a68:	e51b203c 	ldr	r2, [fp, #-60]	; 0xffffffc4
 c003a6c:	e1a00105 	lsl	r0, r5, #2
 c003a70:	e3a0420f 	mov	r4, #-268435456	; 0xf0000000
 c003a74:	e1e00034 	mvn	r0, r4, lsr r0
 c003a78:	e1a0110e 	lsl	r1, lr, #2
 c003a7c:	e1a01112 	lsl	r1, r2, r1
 c003a80:	e2883007 	add	r3, r8, #7
 c003a84:	e3580000 	cmp	r8, #0
 c003a88:	b1a08003 	movlt	r8, r3
 c003a8c:	e1a051c8 	asr	r5, r8, #3
 c003a90:	e28547c3 	add	r4, r5, #51118080	; 0x30c0000
                 wpy <= wNexty + usWidth / 2; wpy++ )
            {
                (LCD_PutPixel(wNextx, wpy, ucColor));
 c003a94:	e087e107 	add	lr, r7, r7, lsl #2
                 wpy <= wCury + usWidth / 2; wpy++ )
            {
                (LCD_PutPixel(wCurx, wpy, ucColor));
            }

            for( wpy = wNexty - usWidth / 2;
 c003a98:	e2844d96 	add	r4, r4, #9600	; 0x2580
                 wpy <= wNexty + usWidth / 2; wpy++ )
            {
                (LCD_PutPixel(wNextx, wpy, ucColor));
 c003a9c:	e084218e 	add	r2, r4, lr, lsl #3
 c003aa0:	e1a0e102 	lsl	lr, r2, #2
 c003aa4:	e59e8000 	ldr	r8, [lr]
*			usWidth -- line's width
* ret:		none
* modify:
* comment:		
*********************************************************************************************/
void Lcd_Draw_Line(INT16 usX0, INT16 usY0, INT16 usX1, INT16 usY1, INT8U ucColor, INT16U usWidth)
 c003aa8:	e2873001 	add	r3, r7, #1
 c003aac:	e2866002 	add	r6, r6, #2
 c003ab0:	e1e07003 	mvn	r7, r3
            }

            for( wpy = wNexty - usWidth / 2;
                 wpy <= wNexty + usWidth / 2; wpy++ )
            {
                (LCD_PutPixel(wNextx, wpy, ucColor));
 c003ab4:	e1a02003 	mov	r2, r3
 c003ab8:	e0005008 	and	r5, r0, r8
 c003abc:	e2833001 	add	r3, r3, #1
 c003ac0:	e0877006 	add	r7, r7, r6
 c003ac4:	e1858001 	orr	r8, r5, r1
                 wpy <= wCury + usWidth / 2; wpy++ )
            {
                (LCD_PutPixel(wCurx, wpy, ucColor));
            }

            for( wpy = wNexty - usWidth / 2;
 c003ac8:	e1530006 	cmp	r3, r6
 c003acc:	e2077003 	and	r7, r7, #3
                 wpy <= wNexty + usWidth / 2; wpy++ )
            {
                (LCD_PutPixel(wNextx, wpy, ucColor));
 c003ad0:	e58e8000 	str	r8, [lr]
                 wpy <= wCury + usWidth / 2; wpy++ )
            {
                (LCD_PutPixel(wCurx, wpy, ucColor));
            }

            for( wpy = wNexty - usWidth / 2;
 c003ad4:	0a000044 	beq	c003bec <Lcd_Draw_Line+0x508>
 c003ad8:	e3570000 	cmp	r7, #0
 c003adc:	0a000020 	beq	c003b64 <Lcd_Draw_Line+0x480>
 c003ae0:	e3570001 	cmp	r7, #1
 c003ae4:	0a000013 	beq	c003b38 <Lcd_Draw_Line+0x454>
 c003ae8:	e3570002 	cmp	r7, #2
 c003aec:	0a000008 	beq	c003b14 <Lcd_Draw_Line+0x430>
                 wpy <= wNexty + usWidth / 2; wpy++ )
            {
                (LCD_PutPixel(wNextx, wpy, ucColor));
 c003af0:	e082e102 	add	lr, r2, r2, lsl #2
 c003af4:	e084718e 	add	r7, r4, lr, lsl #3
 c003af8:	e1a07107 	lsl	r7, r7, #2
 c003afc:	e5975000 	ldr	r5, [r7]
 c003b00:	e0002005 	and	r2, r0, r5
 c003b04:	e182e001 	orr	lr, r2, r1
 c003b08:	e587e000 	str	lr, [r7]
 c003b0c:	e1a02003 	mov	r2, r3
 c003b10:	e2833001 	add	r3, r3, #1
 c003b14:	e0825102 	add	r5, r2, r2, lsl #2
 c003b18:	e0842185 	add	r2, r4, r5, lsl #3
 c003b1c:	e1a02102 	lsl	r2, r2, #2
 c003b20:	e592e000 	ldr	lr, [r2]
 c003b24:	e000700e 	and	r7, r0, lr
 c003b28:	e1875001 	orr	r5, r7, r1
 c003b2c:	e5825000 	str	r5, [r2]
 c003b30:	e1a02003 	mov	r2, r3
 c003b34:	e2833001 	add	r3, r3, #1
 c003b38:	e082e102 	add	lr, r2, r2, lsl #2
 c003b3c:	e084218e 	add	r2, r4, lr, lsl #3
 c003b40:	e1a0e102 	lsl	lr, r2, #2
 c003b44:	e59e5000 	ldr	r5, [lr]
 c003b48:	e1a02003 	mov	r2, r3
 c003b4c:	e0007005 	and	r7, r0, r5
 c003b50:	e2833001 	add	r3, r3, #1
 c003b54:	e1877001 	orr	r7, r7, r1
                 wpy <= wCury + usWidth / 2; wpy++ )
            {
                (LCD_PutPixel(wCurx, wpy, ucColor));
            }

            for( wpy = wNexty - usWidth / 2;
 c003b58:	e1530006 	cmp	r3, r6
                 wpy <= wNexty + usWidth / 2; wpy++ )
            {
                (LCD_PutPixel(wNextx, wpy, ucColor));
 c003b5c:	e58e7000 	str	r7, [lr]
                 wpy <= wCury + usWidth / 2; wpy++ )
            {
                (LCD_PutPixel(wCurx, wpy, ucColor));
            }

            for( wpy = wNexty - usWidth / 2;
 c003b60:	0a000021 	beq	c003bec <Lcd_Draw_Line+0x508>
                 wpy <= wNexty + usWidth / 2; wpy++ )
            {
                (LCD_PutPixel(wNextx, wpy, ucColor));
 c003b64:	e0828102 	add	r8, r2, r2, lsl #2
 c003b68:	e0845188 	add	r5, r4, r8, lsl #3
 c003b6c:	e1a08105 	lsl	r8, r5, #2
 c003b70:	e5982000 	ldr	r2, [r8]
 c003b74:	e000e002 	and	lr, r0, r2
 c003b78:	e0835103 	add	r5, r3, r3, lsl #2
 c003b7c:	e18e7001 	orr	r7, lr, r1
 c003b80:	e5887000 	str	r7, [r8]
 c003b84:	e0842185 	add	r2, r4, r5, lsl #3
 c003b88:	e1a05102 	lsl	r5, r2, #2
 c003b8c:	e595e000 	ldr	lr, [r5]
 c003b90:	e2832001 	add	r2, r3, #1
 c003b94:	e000700e 	and	r7, r0, lr
 c003b98:	e1878001 	orr	r8, r7, r1
 c003b9c:	e082e102 	add	lr, r2, r2, lsl #2
 c003ba0:	e5858000 	str	r8, [r5]
 c003ba4:	e084718e 	add	r7, r4, lr, lsl #3
 c003ba8:	e1a07107 	lsl	r7, r7, #2
 c003bac:	e5975000 	ldr	r5, [r7]
 c003bb0:	e282e001 	add	lr, r2, #1
 c003bb4:	e0008005 	and	r8, r0, r5
 c003bb8:	e1888001 	orr	r8, r8, r1
 c003bbc:	e08e510e 	add	r5, lr, lr, lsl #2
 c003bc0:	e5878000 	str	r8, [r7]
 c003bc4:	e0842185 	add	r2, r4, r5, lsl #3
 c003bc8:	e1a05102 	lsl	r5, r2, #2
 c003bcc:	e595e000 	ldr	lr, [r5]
 c003bd0:	e2832003 	add	r2, r3, #3
 c003bd4:	e000700e 	and	r7, r0, lr
 c003bd8:	e2833004 	add	r3, r3, #4
 c003bdc:	e1877001 	orr	r7, r7, r1
                 wpy <= wCury + usWidth / 2; wpy++ )
            {
                (LCD_PutPixel(wCurx, wpy, ucColor));
            }

            for( wpy = wNexty - usWidth / 2;
 c003be0:	e1530006 	cmp	r3, r6
                 wpy <= wNexty + usWidth / 2; wpy++ )
            {
                (LCD_PutPixel(wNextx, wpy, ucColor));
 c003be4:	e5857000 	str	r7, [r5]
                 wpy <= wCury + usWidth / 2; wpy++ )
            {
                (LCD_PutPixel(wCurx, wpy, ucColor));
            }

            for( wpy = wNexty - usWidth / 2;
 c003be8:	1affffdd 	bne	c003b64 <Lcd_Draw_Line+0x480>

    if( usDx >= usDy )
    {
        for( wCurx = usX0, wCury = usY0, wNextx = usX1,
             wNexty = usY1, decision = (usDx >> 1);
             wCurx <= wNextx; wCurx++, wNextx--, decision += usDy )
 c003bec:	e51b5034 	ldr	r5, [fp, #-52]	; 0xffffffcc
 c003bf0:	e51b6038 	ldr	r6, [fp, #-56]	; 0xffffffc8
 c003bf4:	e2852001 	add	r2, r5, #1
 c003bf8:	e2463001 	sub	r3, r6, #1
 c003bfc:	e1a0e802 	lsl	lr, r2, #16
 c003c00:	e1a01803 	lsl	r1, r3, #16
    y_sign = (usY1 - usY0) / usDy;
    x_sign = (usX1 - usX0) / usDx;

    if( usDx >= usDy )
    {
        for( wCurx = usX0, wCury = usY0, wNextx = usX1,
 c003c04:	e1a0082e 	lsr	r0, lr, #16
 c003c08:	e1a03821 	lsr	r3, r1, #16
 c003c0c:	e15e0001 	cmp	lr, r1
 c003c10:	e50b0034 	str	r0, [fp, #-52]	; 0xffffffcc
 c003c14:	e50b3038 	str	r3, [fp, #-56]	; 0xffffffc8
 c003c18:	ca000111 	bgt	c004064 <Lcd_Draw_Line+0x980>
             wNexty = usY1, decision = (usDx >> 1);
             wCurx <= wNextx; wCurx++, wNextx--, decision += usDy )
 c003c1c:	e51b7044 	ldr	r7, [fp, #-68]	; 0xffffffbc
 c003c20:	e0876009 	add	r6, r7, r9
 c003c24:	e1a09806 	lsl	r9, r6, #16
 c003c28:	e1a09829 	lsr	r9, r9, #16
 c003c2c:	eafffefa 	b	c00381c <Lcd_Draw_Line+0x138>
            }
        }
    }
    else
    {
        for( wCurx = usX0, wCury = usY0, wNextx = usX1,
 c003c30:	e1540006 	cmp	r4, r6
 c003c34:	ca00010a 	bgt	c004064 <Lcd_Draw_Line+0x980>
             wNexty = usY1, decision = (usDy >> 1);
 c003c38:	e1a038ca 	asr	r3, sl, #17
*			usWidth -- line's width
* ret:		none
* modify:
* comment:		
*********************************************************************************************/
void Lcd_Draw_Line(INT16 usX0, INT16 usY0, INT16 usX1, INT16 usY1, INT8U ucColor, INT16U usWidth)
 c003c3c:	e0861106 	add	r1, r6, r6, lsl #2
 c003c40:	e0842104 	add	r2, r4, r4, lsl #2
        }
    }
    else
    {
        for( wCurx = usX0, wCury = usY0, wNextx = usX1,
             wNexty = usY1, decision = (usDy >> 1);
 c003c44:	e1a0a803 	lsl	sl, r3, #16
*			usWidth -- line's width
* ret:		none
* modify:
* comment:		
*********************************************************************************************/
void Lcd_Draw_Line(INT16 usX0, INT16 usY0, INT16 usX1, INT16 usY1, INT8U ucColor, INT16U usWidth)
 c003c48:	e1a0e181 	lsl	lr, r1, #3
 c003c4c:	e1a02182 	lsl	r2, r2, #3
        }
    }
    else
    {
        for( wCurx = usX0, wCury = usY0, wNextx = usX1,
             wNexty = usY1, decision = (usDy >> 1);
 c003c50:	e1a0a82a 	lsr	sl, sl, #16
 c003c54:	e1a03829 	lsr	r3, r9, #16
*			usWidth -- line's width
* ret:		none
* modify:
* comment:		
*********************************************************************************************/
void Lcd_Draw_Line(INT16 usX0, INT16 usY0, INT16 usX1, INT16 usY1, INT8U ucColor, INT16U usWidth)
 c003c58:	e28e17c3 	add	r1, lr, #51118080	; 0x30c0000
        }
    }
    else
    {
        for( wCurx = usX0, wCury = usY0, wNextx = usX1,
             wNexty = usY1, decision = (usDy >> 1);
 c003c5c:	e50ba030 	str	sl, [fp, #-48]	; 0xffffffd0
*			usWidth -- line's width
* ret:		none
* modify:
* comment:		
*********************************************************************************************/
void Lcd_Draw_Line(INT16 usX0, INT16 usY0, INT16 usX1, INT16 usY1, INT8U ucColor, INT16U usWidth)
 c003c60:	e282e7c3 	add	lr, r2, #51118080	; 0x30c0000
        }
    }
    else
    {
        for( wCurx = usX0, wCury = usY0, wNextx = usX1,
             wNexty = usY1, decision = (usDy >> 1);
 c003c64:	e50b304c 	str	r3, [fp, #-76]	; 0xffffffb4
*			usWidth -- line's width
* ret:		none
* modify:
* comment:		
*********************************************************************************************/
void Lcd_Draw_Line(INT16 usX0, INT16 usY0, INT16 usX1, INT16 usY1, INT8U ucColor, INT16U usWidth)
 c003c68:	e50b6040 	str	r6, [fp, #-64]	; 0xffffffc0
 c003c6c:	e50b8038 	str	r8, [fp, #-56]	; 0xffffffc8
 c003c70:	e50b5034 	str	r5, [fp, #-52]	; 0xffffffcc
             wCury <= wNexty; wCury++, wNexty--, decision += usDx )
        {
            if( decision >= usDy )
            {
                decision -= usDy;
                wCurx += x_sign;
 c003c74:	e50b0048 	str	r0, [fp, #-72]	; 0xffffffb8
        }
    }
    else
    {
        for( wCurx = usX0, wCury = usY0, wNextx = usX1,
             wNexty = usY1, decision = (usDy >> 1);
 c003c78:	e1a090ac 	lsr	r9, ip, #1
*			usWidth -- line's width
* ret:		none
* modify:
* comment:		
*********************************************************************************************/
void Lcd_Draw_Line(INT16 usX0, INT16 usY0, INT16 usX1, INT16 usY1, INT8U ucColor, INT16U usWidth)
 c003c7c:	e50b403c 	str	r4, [fp, #-60]	; 0xffffffc4
 c003c80:	e2811d96 	add	r1, r1, #9600	; 0x2580
 c003c84:	e28e2d96 	add	r2, lr, #9600	; 0x2580
                wNextx -= x_sign;
            }
            for( wpx = wCurx - usWidth / 2;
                 wpx <= wCurx + usWidth / 2; wpx++ )
            {
                (LCD_PutPixel(wpx, wCury, ucColor));
 c003c88:	e3a0c20f 	mov	ip, #-268435456	; 0xf0000000
 c003c8c:	e1a0400a 	mov	r4, sl
    {
        for( wCurx = usX0, wCury = usY0, wNextx = usX1,
             wNexty = usY1, decision = (usDy >> 1);
             wCury <= wNexty; wCury++, wNexty--, decision += usDx )
        {
            if( decision >= usDy )
 c003c90:	e51b5044 	ldr	r5, [fp, #-68]	; 0xffffffbc
 c003c94:	e1a00804 	lsl	r0, r4, #16
 c003c98:	e1550840 	cmp	r5, r0, asr #16
 c003c9c:	ca00000f 	bgt	c003ce0 <Lcd_Draw_Line+0x5fc>
            {
                decision -= usDy;
                wCurx += x_sign;
 c003ca0:	e51ba048 	ldr	sl, [fp, #-72]	; 0xffffffb8
 c003ca4:	e51b3034 	ldr	r3, [fp, #-52]	; 0xffffffcc
                wNextx -= x_sign;
 c003ca8:	e51be038 	ldr	lr, [fp, #-56]	; 0xffffffc8
             wNexty = usY1, decision = (usDy >> 1);
             wCury <= wNexty; wCury++, wNexty--, decision += usDx )
        {
            if( decision >= usDy )
            {
                decision -= usDy;
 c003cac:	e51b5050 	ldr	r5, [fp, #-80]	; 0xffffffb0
                wCurx += x_sign;
 c003cb0:	e08a0003 	add	r0, sl, r3
                wNextx -= x_sign;
 c003cb4:	e06a600e 	rsb	r6, sl, lr
             wNexty = usY1, decision = (usDy >> 1);
             wCury <= wNexty; wCury++, wNexty--, decision += usDx )
        {
            if( decision >= usDy )
            {
                decision -= usDy;
 c003cb8:	e0654004 	rsb	r4, r5, r4
 c003cbc:	e1a05804 	lsl	r5, r4, #16
                wCurx += x_sign;
 c003cc0:	e1a0e800 	lsl	lr, r0, #16
                wNextx -= x_sign;
 c003cc4:	e1a06806 	lsl	r6, r6, #16
             wNexty = usY1, decision = (usDy >> 1);
             wCury <= wNexty; wCury++, wNexty--, decision += usDx )
        {
            if( decision >= usDy )
            {
                decision -= usDy;
 c003cc8:	e1a03825 	lsr	r3, r5, #16
                wCurx += x_sign;
 c003ccc:	e1a0a82e 	lsr	sl, lr, #16
                wNextx -= x_sign;
 c003cd0:	e1a04826 	lsr	r4, r6, #16
             wNexty = usY1, decision = (usDy >> 1);
             wCury <= wNexty; wCury++, wNexty--, decision += usDx )
        {
            if( decision >= usDy )
            {
                decision -= usDy;
 c003cd4:	e50b3030 	str	r3, [fp, #-48]	; 0xffffffd0
                wCurx += x_sign;
 c003cd8:	e50ba034 	str	sl, [fp, #-52]	; 0xffffffcc
                wNextx -= x_sign;
 c003cdc:	e50b4038 	str	r4, [fp, #-56]	; 0xffffffc8
            }
            for( wpx = wCurx - usWidth / 2;
 c003ce0:	e51b4034 	ldr	r4, [fp, #-52]	; 0xffffffcc
 c003ce4:	e069a004 	rsb	sl, r9, r4
 c003ce8:	e1a0080a 	lsl	r0, sl, #16
 c003cec:	e1a00820 	lsr	r0, r0, #16
                 wpx <= wCurx + usWidth / 2; wpx++ )
 c003cf0:	e1a06804 	lsl	r6, r4, #16
 c003cf4:	e1a0a800 	lsl	sl, r0, #16
 c003cf8:	e0895846 	add	r5, r9, r6, asr #16
 c003cfc:	e1a0384a 	asr	r3, sl, #16
            {
                decision -= usDy;
                wCurx += x_sign;
                wNextx -= x_sign;
            }
            for( wpx = wCurx - usWidth / 2;
 c003d00:	e1530005 	cmp	r3, r5
 c003d04:	ca00003c 	bgt	c003dfc <Lcd_Draw_Line+0x718>
*			usWidth -- line's width
* ret:		none
* modify:
* comment:		
*********************************************************************************************/
void Lcd_Draw_Line(INT16 usX0, INT16 usY0, INT16 usX1, INT16 usY1, INT8U ucColor, INT16U usWidth)
 c003d08:	e2858001 	add	r8, r5, #1
 c003d0c:	e0635008 	rsb	r5, r3, r8
 c003d10:	e3150001 	tst	r5, #1
 c003d14:	e3a06000 	mov	r6, #0
 c003d18:	0a0000b5 	beq	c003ff4 <Lcd_Draw_Line+0x910>
 c003d1c:	e1a0e00a 	mov	lr, sl
 c003d20:	e1a0a001 	mov	sl, r1
 c003d24:	e1a0100e 	mov	r1, lr
 c003d28:	ea000018 	b	c003d90 <Lcd_Draw_Line+0x6ac>
                wNextx -= x_sign;
            }
            for( wpx = wCurx - usWidth / 2;
                 wpx <= wCurx + usWidth / 2; wpx++ )
            {
                (LCD_PutPixel(wpx, wCury, ucColor));
 c003d2c:	e2118902 	ands	r8, r1, #32768	; 0x8000
 c003d30:	13e08000 	mvnne	r8, #0
 c003d34:	e3530000 	cmp	r3, #0
 c003d38:	e1a0eea8 	lsr	lr, r8, #29
 c003d3c:	a1a04003 	movge	r4, r3
 c003d40:	b1a04000 	movlt	r4, r0
 c003d44:	e08241c4 	add	r4, r2, r4, asr #3
 c003d48:	e083000e 	add	r0, r3, lr
 c003d4c:	e2003007 	and	r3, r0, #7
 c003d50:	e1a04104 	lsl	r4, r4, #2
 c003d54:	e06ee003 	rsb	lr, lr, r3
 c003d58:	e5940000 	ldr	r0, [r4]
 c003d5c:	e1a0810e 	lsl	r8, lr, #2
 c003d60:	e1c0083c 	bic	r0, r0, ip, lsr r8
 c003d64:	e26e3007 	rsb	r3, lr, #7
 c003d68:	e1a0e103 	lsl	lr, r3, #2
 c003d6c:	e1808e17 	orr	r8, r0, r7, lsl lr
                decision -= usDy;
                wCurx += x_sign;
                wNextx -= x_sign;
            }
            for( wpx = wCurx - usWidth / 2;
                 wpx <= wCurx + usWidth / 2; wpx++ )
 c003d70:	e2811001 	add	r1, r1, #1
 c003d74:	e1a00801 	lsl	r0, r1, #16
 c003d78:	e1a00820 	lsr	r0, r0, #16
 c003d7c:	e1a03800 	lsl	r3, r0, #16
            {
                (LCD_PutPixel(wpx, wCury, ucColor));
 c003d80:	e5848000 	str	r8, [r4]
 c003d84:	e1a01003 	mov	r1, r3
                decision -= usDy;
                wCurx += x_sign;
                wNextx -= x_sign;
            }
            for( wpx = wCurx - usWidth / 2;
                 wpx <= wCurx + usWidth / 2; wpx++ )
 c003d88:	e2866001 	add	r6, r6, #1
 c003d8c:	e1a03843 	asr	r3, r3, #16
            {
                (LCD_PutPixel(wpx, wCury, ucColor));
 c003d90:	e3530000 	cmp	r3, #0
 c003d94:	e1a0efc1 	asr	lr, r1, #31
 c003d98:	e2838007 	add	r8, r3, #7
 c003d9c:	e1a01eae 	lsr	r1, lr, #29
 c003da0:	a1a08003 	movge	r8, r3
 c003da4:	e08241c8 	add	r4, r2, r8, asr #3
 c003da8:	e0833001 	add	r3, r3, r1
 c003dac:	e1a04104 	lsl	r4, r4, #2
 c003db0:	e203e007 	and	lr, r3, #7
 c003db4:	e5948000 	ldr	r8, [r4]
 c003db8:	e061300e 	rsb	r3, r1, lr
 c003dbc:	e1a01103 	lsl	r1, r3, #2
 c003dc0:	e1c8e13c 	bic	lr, r8, ip, lsr r1
 c003dc4:	e2633007 	rsb	r3, r3, #7
 c003dc8:	e1a08103 	lsl	r8, r3, #2
 c003dcc:	e18e8817 	orr	r8, lr, r7, lsl r8
                decision -= usDy;
                wCurx += x_sign;
                wNextx -= x_sign;
            }
            for( wpx = wCurx - usWidth / 2;
                 wpx <= wCurx + usWidth / 2; wpx++ )
 c003dd0:	e2800001 	add	r0, r0, #1
 c003dd4:	e1a01800 	lsl	r1, r0, #16
 c003dd8:	e1a01821 	lsr	r1, r1, #16
 c003ddc:	e2866001 	add	r6, r6, #1
 c003de0:	e1a03801 	lsl	r3, r1, #16
 c003de4:	e1a03843 	asr	r3, r3, #16
            {
                decision -= usDy;
                wCurx += x_sign;
                wNextx -= x_sign;
            }
            for( wpx = wCurx - usWidth / 2;
 c003de8:	e1560005 	cmp	r6, r5
                 wpx <= wCurx + usWidth / 2; wpx++ )
            {
                (LCD_PutPixel(wpx, wCury, ucColor));
 c003dec:	e2830007 	add	r0, r3, #7
 c003df0:	e5848000 	str	r8, [r4]
            {
                decision -= usDy;
                wCurx += x_sign;
                wNextx -= x_sign;
            }
            for( wpx = wCurx - usWidth / 2;
 c003df4:	1affffcc 	bne	c003d2c <Lcd_Draw_Line+0x648>
 c003df8:	e1a0100a 	mov	r1, sl
                 wpx <= wCurx + usWidth / 2; wpx++ )
            {
                (LCD_PutPixel(wpx, wCury, ucColor));
            }

            for( wpx = wNextx - usWidth / 2;
 c003dfc:	e51b4038 	ldr	r4, [fp, #-56]	; 0xffffffc8
 c003e00:	e069a004 	rsb	sl, r9, r4
 c003e04:	e1a0680a 	lsl	r6, sl, #16
 c003e08:	e1a00826 	lsr	r0, r6, #16
                 wpx <= wNextx + usWidth / 2; wpx++ )
 c003e0c:	e1a05804 	lsl	r5, r4, #16
 c003e10:	e1a0a800 	lsl	sl, r0, #16
 c003e14:	e0895845 	add	r5, r9, r5, asr #16
 c003e18:	e1a0384a 	asr	r3, sl, #16
                 wpx <= wCurx + usWidth / 2; wpx++ )
            {
                (LCD_PutPixel(wpx, wCury, ucColor));
            }

            for( wpx = wNextx - usWidth / 2;
 c003e1c:	e1530005 	cmp	r3, r5
 c003e20:	ca00003c 	bgt	c003f18 <Lcd_Draw_Line+0x834>
*			usWidth -- line's width
* ret:		none
* modify:
* comment:		
*********************************************************************************************/
void Lcd_Draw_Line(INT16 usX0, INT16 usY0, INT16 usX1, INT16 usY1, INT8U ucColor, INT16U usWidth)
 c003e24:	e285e001 	add	lr, r5, #1
 c003e28:	e063500e 	rsb	r5, r3, lr
 c003e2c:	e3150001 	tst	r5, #1
 c003e30:	e3a06000 	mov	r6, #0
 c003e34:	0a000051 	beq	c003f80 <Lcd_Draw_Line+0x89c>
 c003e38:	e1a0400a 	mov	r4, sl
 c003e3c:	e1a0a002 	mov	sl, r2
 c003e40:	e1a02004 	mov	r2, r4
 c003e44:	ea000018 	b	c003eac <Lcd_Draw_Line+0x7c8>
            }

            for( wpx = wNextx - usWidth / 2;
                 wpx <= wNextx + usWidth / 2; wpx++ )
            {
                (LCD_PutPixel(wpx, wNexty, ucColor));
 c003e48:	e2128902 	ands	r8, r2, #32768	; 0x8000
 c003e4c:	13e08000 	mvnne	r8, #0
 c003e50:	e3530000 	cmp	r3, #0
 c003e54:	e1a0eea8 	lsr	lr, r8, #29
 c003e58:	a1a04003 	movge	r4, r3
 c003e5c:	b1a04000 	movlt	r4, r0
 c003e60:	e08141c4 	add	r4, r1, r4, asr #3
 c003e64:	e083000e 	add	r0, r3, lr
 c003e68:	e2003007 	and	r3, r0, #7
 c003e6c:	e1a04104 	lsl	r4, r4, #2
 c003e70:	e06ee003 	rsb	lr, lr, r3
 c003e74:	e5940000 	ldr	r0, [r4]
 c003e78:	e1a0810e 	lsl	r8, lr, #2
 c003e7c:	e1c0083c 	bic	r0, r0, ip, lsr r8
 c003e80:	e26e3007 	rsb	r3, lr, #7
 c003e84:	e1a0e103 	lsl	lr, r3, #2
 c003e88:	e1808e17 	orr	r8, r0, r7, lsl lr
            {
                (LCD_PutPixel(wpx, wCury, ucColor));
            }

            for( wpx = wNextx - usWidth / 2;
                 wpx <= wNextx + usWidth / 2; wpx++ )
 c003e8c:	e2822001 	add	r2, r2, #1
 c003e90:	e1a00802 	lsl	r0, r2, #16
 c003e94:	e1a00820 	lsr	r0, r0, #16
 c003e98:	e1a03800 	lsl	r3, r0, #16
            {
                (LCD_PutPixel(wpx, wNexty, ucColor));
 c003e9c:	e5848000 	str	r8, [r4]
 c003ea0:	e1a02003 	mov	r2, r3
            {
                (LCD_PutPixel(wpx, wCury, ucColor));
            }

            for( wpx = wNextx - usWidth / 2;
                 wpx <= wNextx + usWidth / 2; wpx++ )
 c003ea4:	e2866001 	add	r6, r6, #1
 c003ea8:	e1a03843 	asr	r3, r3, #16
            {
                (LCD_PutPixel(wpx, wNexty, ucColor));
 c003eac:	e3530000 	cmp	r3, #0
 c003eb0:	e1a0efc2 	asr	lr, r2, #31
 c003eb4:	e2838007 	add	r8, r3, #7
 c003eb8:	e1a02eae 	lsr	r2, lr, #29
 c003ebc:	a1a08003 	movge	r8, r3
 c003ec0:	e08141c8 	add	r4, r1, r8, asr #3
 c003ec4:	e0833002 	add	r3, r3, r2
 c003ec8:	e1a04104 	lsl	r4, r4, #2
 c003ecc:	e203e007 	and	lr, r3, #7
 c003ed0:	e5948000 	ldr	r8, [r4]
 c003ed4:	e062300e 	rsb	r3, r2, lr
 c003ed8:	e1a02103 	lsl	r2, r3, #2
 c003edc:	e1c8e23c 	bic	lr, r8, ip, lsr r2
 c003ee0:	e2633007 	rsb	r3, r3, #7
 c003ee4:	e1a08103 	lsl	r8, r3, #2
 c003ee8:	e18e8817 	orr	r8, lr, r7, lsl r8
            {
                (LCD_PutPixel(wpx, wCury, ucColor));
            }

            for( wpx = wNextx - usWidth / 2;
                 wpx <= wNextx + usWidth / 2; wpx++ )
 c003eec:	e2800001 	add	r0, r0, #1
 c003ef0:	e1a02800 	lsl	r2, r0, #16
 c003ef4:	e1a02822 	lsr	r2, r2, #16
 c003ef8:	e2866001 	add	r6, r6, #1
 c003efc:	e1a03802 	lsl	r3, r2, #16
 c003f00:	e1a03843 	asr	r3, r3, #16
                 wpx <= wCurx + usWidth / 2; wpx++ )
            {
                (LCD_PutPixel(wpx, wCury, ucColor));
            }

            for( wpx = wNextx - usWidth / 2;
 c003f04:	e1560005 	cmp	r6, r5
                 wpx <= wNextx + usWidth / 2; wpx++ )
            {
                (LCD_PutPixel(wpx, wNexty, ucColor));
 c003f08:	e2830007 	add	r0, r3, #7
 c003f0c:	e5848000 	str	r8, [r4]
                 wpx <= wCurx + usWidth / 2; wpx++ )
            {
                (LCD_PutPixel(wpx, wCury, ucColor));
            }

            for( wpx = wNextx - usWidth / 2;
 c003f10:	1affffcc 	bne	c003e48 <Lcd_Draw_Line+0x764>
 c003f14:	e1a0200a 	mov	r2, sl
    }
    else
    {
        for( wCurx = usX0, wCury = usY0, wNextx = usX1,
             wNexty = usY1, decision = (usDy >> 1);
             wCury <= wNexty; wCury++, wNexty--, decision += usDx )
 c003f18:	e51b503c 	ldr	r5, [fp, #-60]	; 0xffffffc4
 c003f1c:	e51b6040 	ldr	r6, [fp, #-64]	; 0xffffffc0
 c003f20:	e285e001 	add	lr, r5, #1
 c003f24:	e2463001 	sub	r3, r6, #1
 c003f28:	e1a0080e 	lsl	r0, lr, #16
 c003f2c:	e1a0e803 	lsl	lr, r3, #16
            }
        }
    }
    else
    {
        for( wCurx = usX0, wCury = usY0, wNextx = usX1,
 c003f30:	e150000e 	cmp	r0, lr
 c003f34:	e1a0382e 	lsr	r3, lr, #16
 c003f38:	e1a00820 	lsr	r0, r0, #16
             wNexty = usY1, decision = (usDy >> 1);
             wCury <= wNexty; wCury++, wNexty--, decision += usDx )
 c003f3c:	e2411028 	sub	r1, r1, #40	; 0x28
 c003f40:	e2822028 	add	r2, r2, #40	; 0x28
            }
        }
    }
    else
    {
        for( wCurx = usX0, wCury = usY0, wNextx = usX1,
 c003f44:	e50b003c 	str	r0, [fp, #-60]	; 0xffffffc4
 c003f48:	e50b3040 	str	r3, [fp, #-64]	; 0xffffffc0
 c003f4c:	ca000044 	bgt	c004064 <Lcd_Draw_Line+0x980>
             wNexty = usY1, decision = (usDy >> 1);
             wCury <= wNexty; wCury++, wNexty--, decision += usDx )
 c003f50:	e51b4030 	ldr	r4, [fp, #-48]	; 0xffffffd0
 c003f54:	e51b004c 	ldr	r0, [fp, #-76]	; 0xffffffb4
 c003f58:	e080a004 	add	sl, r0, r4
 c003f5c:	e1a0680a 	lsl	r6, sl, #16
 c003f60:	e1a05826 	lsr	r5, r6, #16
 c003f64:	e50b5030 	str	r5, [fp, #-48]	; 0xffffffd0
 c003f68:	e1a04005 	mov	r4, r5
 c003f6c:	eaffff47 	b	c003c90 <Lcd_Draw_Line+0x5ac>
		Lcd_Draw_VLine (usY0, usY1, usX0, ucColor, usWidth);
		return;
	}
	usDx = abs(usX0 - usX1);
	usDy = abs(usY0 - usY1);
	if( ((usDx >= usDy && (usX0 > usX1)) ||
 c003f70:	e1510000 	cmp	r1, r0
 c003f74:	c1540006 	cmpgt	r4, r6
 c003f78:	dafffe09 	ble	c0037a4 <Lcd_Draw_Line+0xc0>
 c003f7c:	eafffdfe 	b	c00377c <Lcd_Draw_Line+0x98>
            }

            for( wpx = wNextx - usWidth / 2;
                 wpx <= wNextx + usWidth / 2; wpx++ )
            {
                (LCD_PutPixel(wpx, wNexty, ucColor));
 c003f80:	e3530000 	cmp	r3, #0
 c003f84:	e2836007 	add	r6, r3, #7
 c003f88:	e1a08fca 	asr	r8, sl, #31
 c003f8c:	a1a06003 	movge	r6, r3
 c003f90:	e1a0eea8 	lsr	lr, r8, #29
 c003f94:	e1a0a686 	lsl	sl, r6, #13
 c003f98:	e083300e 	add	r3, r3, lr
 c003f9c:	e081484a 	add	r4, r1, sl, asr #16
 c003fa0:	e2038007 	and	r8, r3, #7
 c003fa4:	e1a04104 	lsl	r4, r4, #2
 c003fa8:	e06ee008 	rsb	lr, lr, r8
 c003fac:	e5946000 	ldr	r6, [r4]
 c003fb0:	e1a0a10e 	lsl	sl, lr, #2
 c003fb4:	e1c68a3c 	bic	r8, r6, ip, lsr sl
 c003fb8:	e26e3007 	rsb	r3, lr, #7
 c003fbc:	e1a0a103 	lsl	sl, r3, #2
 c003fc0:	e1886a17 	orr	r6, r8, r7, lsl sl
            {
                (LCD_PutPixel(wpx, wCury, ucColor));
            }

            for( wpx = wNextx - usWidth / 2;
                 wpx <= wNextx + usWidth / 2; wpx++ )
 c003fc4:	e280e001 	add	lr, r0, #1
 c003fc8:	e1a0080e 	lsl	r0, lr, #16
 c003fcc:	e1a00820 	lsr	r0, r0, #16
 c003fd0:	e1a03800 	lsl	r3, r0, #16
 c003fd4:	e1a0a003 	mov	sl, r3
 c003fd8:	e1a0800a 	mov	r8, sl
            {
                (LCD_PutPixel(wpx, wNexty, ucColor));
 c003fdc:	e5846000 	str	r6, [r4]
 c003fe0:	e1a0a002 	mov	sl, r2
            {
                (LCD_PutPixel(wpx, wCury, ucColor));
            }

            for( wpx = wNextx - usWidth / 2;
                 wpx <= wNextx + usWidth / 2; wpx++ )
 c003fe4:	e3a06001 	mov	r6, #1
 c003fe8:	e1a03843 	asr	r3, r3, #16
 c003fec:	e1a02008 	mov	r2, r8
 c003ff0:	eaffffad 	b	c003eac <Lcd_Draw_Line+0x7c8>
                wNextx -= x_sign;
            }
            for( wpx = wCurx - usWidth / 2;
                 wpx <= wCurx + usWidth / 2; wpx++ )
            {
                (LCD_PutPixel(wpx, wCury, ucColor));
 c003ff4:	e3530000 	cmp	r3, #0
 c003ff8:	e2836007 	add	r6, r3, #7
 c003ffc:	e1a08fca 	asr	r8, sl, #31
 c004000:	a1a06003 	movge	r6, r3
 c004004:	e1a0aea8 	lsr	sl, r8, #29
 c004008:	e1a04686 	lsl	r4, r6, #13
 c00400c:	e083300a 	add	r3, r3, sl
 c004010:	e082e844 	add	lr, r2, r4, asr #16
 c004014:	e2038007 	and	r8, r3, #7
 c004018:	e1a0e10e 	lsl	lr, lr, #2
 c00401c:	e06aa008 	rsb	sl, sl, r8
 c004020:	e59e6000 	ldr	r6, [lr]
 c004024:	e1a0410a 	lsl	r4, sl, #2
 c004028:	e1c6843c 	bic	r8, r6, ip, lsr r4
 c00402c:	e26a3007 	rsb	r3, sl, #7
 c004030:	e1a04103 	lsl	r4, r3, #2
 c004034:	e188a417 	orr	sl, r8, r7, lsl r4
                decision -= usDy;
                wCurx += x_sign;
                wNextx -= x_sign;
            }
            for( wpx = wCurx - usWidth / 2;
                 wpx <= wCurx + usWidth / 2; wpx++ )
 c004038:	e2806001 	add	r6, r0, #1
 c00403c:	e1a00806 	lsl	r0, r6, #16
 c004040:	e1a00820 	lsr	r0, r0, #16
 c004044:	e1a03800 	lsl	r3, r0, #16
 c004048:	e1a04003 	mov	r4, r3
            {
                (LCD_PutPixel(wpx, wCury, ucColor));
 c00404c:	e58ea000 	str	sl, [lr]
                decision -= usDy;
                wCurx += x_sign;
                wNextx -= x_sign;
            }
            for( wpx = wCurx - usWidth / 2;
                 wpx <= wCurx + usWidth / 2; wpx++ )
 c004050:	e3a06001 	mov	r6, #1
 c004054:	e1a0a001 	mov	sl, r1
 c004058:	e1a03843 	asr	r3, r3, #16
 c00405c:	e1a01004 	mov	r1, r4
 c004060:	eaffff4a 	b	c003d90 <Lcd_Draw_Line+0x6ac>
            {
                (LCD_PutPixel(wpx, wNexty, ucColor));
            }
        }
    }
}
 c004064:	e24bd028 	sub	sp, fp, #40	; 0x28
 c004068:	e89d6ff0 	ldm	sp, {r4, r5, r6, r7, r8, r9, sl, fp, sp, lr}
 c00406c:	e12fff1e 	bx	lr
*********************************************************************************************/
void Lcd_Draw_HLine(INT16 usX0, INT16 usX1, INT16 usY0, INT8U ucColor, INT16U usWidth)
{
	INT16 usLen;

    if( usX1 < usX0 )
 c004070:	e1500002 	cmp	r0, r2
 c004074:	da000008 	ble	c00409c <Lcd_Draw_Line+0x9b8>
    {
        GUISWAP (usX1, usX0);
 c004078:	e0228000 	eor	r8, r2, r0
 c00407c:	e1a02808 	lsl	r2, r8, #16
 c004080:	e1a01822 	lsr	r1, r2, #16
 c004084:	e0200001 	eor	r0, r0, r1
 c004088:	e1a05800 	lsl	r5, r0, #16
 c00408c:	e1a05845 	asr	r5, r5, #16
 c004090:	e0253001 	eor	r3, r5, r1
 c004094:	e1a08803 	lsl	r8, r3, #16
 c004098:	e1a08848 	asr	r8, r8, #16
    }

    while( (usWidth--) > 0 )
 c00409c:	e35c0000 	cmp	ip, #0
 c0040a0:	0affffef 	beq	c004064 <Lcd_Draw_Line+0x980>
 c0040a4:	e1a08808 	lsl	r8, r8, #16
 c0040a8:	e2881801 	add	r1, r8, #65536	; 0x10000
 c0040ac:	e0652821 	rsb	r2, r5, r1, lsr #16
 c0040b0:	e1a03802 	lsl	r3, r2, #16
 c0040b4:	e1a08823 	lsr	r8, r3, #16
 c0040b8:	e248a001 	sub	sl, r8, #1
*			usWidth -- line's width
* ret:		none
* modify:
* comment:		
*********************************************************************************************/
void Lcd_Draw_Line(INT16 usX0, INT16 usY0, INT16 usX1, INT16 usY1, INT8U ucColor, INT16U usWidth)
 c0040bc:	e1a0080a 	lsl	r0, sl, #16
 c0040c0:	e1a09840 	asr	r9, r0, #16
 c0040c4:	e50b9030 	str	r9, [fp, #-48]	; 0xffffffd0
 c0040c8:	e0844104 	add	r4, r4, r4, lsl #2
 c0040cc:	e51b1030 	ldr	r1, [fp, #-48]	; 0xffffffd0
    if( usX1 < usX0 )
    {
        GUISWAP (usX1, usX0);
    }

    while( (usWidth--) > 0 )
 c0040d0:	e24cc001 	sub	ip, ip, #1
*			usWidth -- line's width
* ret:		none
* modify:
* comment:		
*********************************************************************************************/
void Lcd_Draw_Line(INT16 usX0, INT16 usY0, INT16 usX1, INT16 usY1, INT8U ucColor, INT16U usWidth)
 c0040d4:	e1a06184 	lsl	r6, r4, #3
 c0040d8:	e2483001 	sub	r3, r8, #1
 c0040dc:	e2452001 	sub	r2, r5, #1
    if( usX1 < usX0 )
    {
        GUISWAP (usX1, usX0);
    }

    while( (usWidth--) > 0 )
 c0040e0:	e1a0a80c 	lsl	sl, ip, #16
*			usWidth -- line's width
* ret:		none
* modify:
* comment:		
*********************************************************************************************/
void Lcd_Draw_Line(INT16 usX0, INT16 usY0, INT16 usX1, INT16 usY1, INT8U ucColor, INT16U usWidth)
 c0040e4:	e28607c3 	add	r0, r6, #51118080	; 0x30c0000
 c0040e8:	e1a09808 	lsl	r9, r8, #16
 c0040ec:	e0826001 	add	r6, r2, r1
 c0040f0:	e1a0c803 	lsl	ip, r3, #16
 c0040f4:	e046882c 	sub	r8, r6, ip, lsr #16
    if( usX1 < usX0 )
    {
        GUISWAP (usX1, usX0);
    }

    while( (usWidth--) > 0 )
 c0040f8:	e1a0a82a 	lsr	sl, sl, #16
*			usWidth -- line's width
* ret:		none
* modify:
* comment:		
*********************************************************************************************/
void Lcd_Draw_Line(INT16 usX0, INT16 usY0, INT16 usX1, INT16 usY1, INT8U ucColor, INT16U usWidth)
 c0040fc:	e2800d96 	add	r0, r0, #9600	; 0x2580
 c004100:	e1a09849 	asr	r9, r9, #16
 c004104:	e1a06005 	mov	r6, r5
    }

    while( (usWidth--) > 0 )
    {
        usLen = usX1 - usX0 + 1;
        while( (usLen--) > 0 )
 c004108:	e3590000 	cmp	r9, #0
 c00410c:	da000054 	ble	c004264 <Lcd_Draw_Line+0xb80>
*			usWidth -- line's width
* ret:		none
* modify:
* comment:		
*********************************************************************************************/
void Lcd_Draw_Line(INT16 usX0, INT16 usY0, INT16 usX1, INT16 usY1, INT8U ucColor, INT16U usWidth)
 c004110:	e51b2030 	ldr	r2, [fp, #-48]	; 0xffffffd0
 c004114:	e0822006 	add	r2, r2, r6
    while( (usWidth--) > 0 )
    {
        usLen = usX1 - usX0 + 1;
        while( (usLen--) > 0 )
        {
        	(LCD_PutPixel(usX0 + usLen, usY0, ucColor));
 c004118:	e1a03fc2 	asr	r3, r2, #31
 c00411c:	e3520000 	cmp	r2, #0
 c004120:	e1a0cea3 	lsr	ip, r3, #29
 c004124:	e2824007 	add	r4, r2, #7
 c004128:	a1a04002 	movge	r4, r2
 c00412c:	e082500c 	add	r5, r2, ip
 c004130:	e08011c4 	add	r1, r0, r4, asr #3
 c004134:	e1a01101 	lsl	r1, r1, #2
 c004138:	e2053007 	and	r3, r5, #7
 c00413c:	e06c3003 	rsb	r3, ip, r3
 c004140:	e5914000 	ldr	r4, [r1]
 c004144:	e1a05103 	lsl	r5, r3, #2
 c004148:	e3a0c20f 	mov	ip, #-268435456	; 0xf0000000
 c00414c:	e1c4553c 	bic	r5, r4, ip, lsr r5
 c004150:	e2633007 	rsb	r3, r3, #7
 c004154:	e1a04103 	lsl	r4, r3, #2
 c004158:	e1854417 	orr	r4, r5, r7, lsl r4
 c00415c:	e2423001 	sub	r3, r2, #1
 c004160:	e0625008 	rsb	r5, r2, r8
 c004164:	e1e05005 	mvn	r5, r5
    }

    while( (usWidth--) > 0 )
    {
        usLen = usX1 - usX0 + 1;
        while( (usLen--) > 0 )
 c004168:	e1530008 	cmp	r3, r8
 c00416c:	e2055001 	and	r5, r5, #1
        {
        	(LCD_PutPixel(usX0 + usLen, usY0, ucColor));
 c004170:	e5814000 	str	r4, [r1]
    }

    while( (usWidth--) > 0 )
    {
        usLen = usX1 - usX0 + 1;
        while( (usLen--) > 0 )
 c004174:	0a00003a 	beq	c004264 <Lcd_Draw_Line+0xb80>
 c004178:	e3550000 	cmp	r5, #0
 c00417c:	0a000013 	beq	c0041d0 <Lcd_Draw_Line+0xaec>
        {
        	(LCD_PutPixel(usX0 + usLen, usY0, ucColor));
 c004180:	e3530000 	cmp	r3, #0
 c004184:	e1a05fc3 	asr	r5, r3, #31
 c004188:	e1a04ea5 	lsr	r4, r5, #29
 c00418c:	a1a02003 	movge	r2, r3
 c004190:	b2822006 	addlt	r2, r2, #6
 c004194:	e0831004 	add	r1, r3, r4
 c004198:	e08021c2 	add	r2, r0, r2, asr #3
 c00419c:	e1a02102 	lsl	r2, r2, #2
 c0041a0:	e2015007 	and	r5, r1, #7
 c0041a4:	e0641005 	rsb	r1, r4, r5
 c0041a8:	e5924000 	ldr	r4, [r2]
 c0041ac:	e1a05101 	lsl	r5, r1, #2
 c0041b0:	e1c4453c 	bic	r4, r4, ip, lsr r5
 c0041b4:	e2611007 	rsb	r1, r1, #7
 c0041b8:	e1a01101 	lsl	r1, r1, #2
 c0041bc:	e1844117 	orr	r4, r4, r7, lsl r1
 c0041c0:	e2433001 	sub	r3, r3, #1
    }

    while( (usWidth--) > 0 )
    {
        usLen = usX1 - usX0 + 1;
        while( (usLen--) > 0 )
 c0041c4:	e1530008 	cmp	r3, r8
        {
        	(LCD_PutPixel(usX0 + usLen, usY0, ucColor));
 c0041c8:	e5824000 	str	r4, [r2]
    }

    while( (usWidth--) > 0 )
    {
        usLen = usX1 - usX0 + 1;
        while( (usLen--) > 0 )
 c0041cc:	0a000024 	beq	c004264 <Lcd_Draw_Line+0xb80>
        {
        	(LCD_PutPixel(usX0 + usLen, usY0, ucColor));
 c0041d0:	e3530000 	cmp	r3, #0
 c0041d4:	e1a05fc3 	asr	r5, r3, #31
 c0041d8:	e2832007 	add	r2, r3, #7
 c0041dc:	e1a05ea5 	lsr	r5, r5, #29
 c0041e0:	a1a02003 	movge	r2, r3
 c0041e4:	e0834005 	add	r4, r3, r5
 c0041e8:	e08011c2 	add	r1, r0, r2, asr #3
 c0041ec:	e1a01101 	lsl	r1, r1, #2
 c0041f0:	e2042007 	and	r2, r4, #7
 c0041f4:	e0652002 	rsb	r2, r5, r2
 c0041f8:	e5914000 	ldr	r4, [r1]
 c0041fc:	e1a05102 	lsl	r5, r2, #2
 c004200:	e1c4553c 	bic	r5, r4, ip, lsr r5
 c004204:	e2624007 	rsb	r4, r2, #7
 c004208:	e1a02104 	lsl	r2, r4, #2
 c00420c:	e1854217 	orr	r4, r5, r7, lsl r2
 c004210:	e2532001 	subs	r2, r3, #1
 c004214:	e1a05fc2 	asr	r5, r2, #31
 c004218:	42833006 	addmi	r3, r3, #6
 c00421c:	51a03002 	movpl	r3, r2
 c004220:	e1a05ea5 	lsr	r5, r5, #29
 c004224:	e5814000 	str	r4, [r1]
 c004228:	e0824005 	add	r4, r2, r5
 c00422c:	e08011c3 	add	r1, r0, r3, asr #3
 c004230:	e1a01101 	lsl	r1, r1, #2
 c004234:	e2043007 	and	r3, r4, #7
 c004238:	e0655003 	rsb	r5, r5, r3
 c00423c:	e5913000 	ldr	r3, [r1]
 c004240:	e1a04105 	lsl	r4, r5, #2
 c004244:	e1c3343c 	bic	r3, r3, ip, lsr r4
 c004248:	e2655007 	rsb	r5, r5, #7
 c00424c:	e1a04105 	lsl	r4, r5, #2
 c004250:	e1834417 	orr	r4, r3, r7, lsl r4
 c004254:	e2423001 	sub	r3, r2, #1
    }

    while( (usWidth--) > 0 )
    {
        usLen = usX1 - usX0 + 1;
        while( (usLen--) > 0 )
 c004258:	e1530008 	cmp	r3, r8
        {
        	(LCD_PutPixel(usX0 + usLen, usY0, ucColor));
 c00425c:	e5814000 	str	r4, [r1]
    }

    while( (usWidth--) > 0 )
    {
        usLen = usX1 - usX0 + 1;
        while( (usLen--) > 0 )
 c004260:	1affffda 	bne	c0041d0 <Lcd_Draw_Line+0xaec>
    if( usX1 < usX0 )
    {
        GUISWAP (usX1, usX0);
    }

    while( (usWidth--) > 0 )
 c004264:	e35a0000 	cmp	sl, #0
    {
        usLen = usX1 - usX0 + 1;
        while( (usLen--) > 0 )
 c004268:	e2800028 	add	r0, r0, #40	; 0x28
    if( usX1 < usX0 )
    {
        GUISWAP (usX1, usX0);
    }

    while( (usWidth--) > 0 )
 c00426c:	0affff7c 	beq	c004064 <Lcd_Draw_Line+0x980>
 c004270:	e24ac001 	sub	ip, sl, #1
 c004274:	e1a0a80c 	lsl	sl, ip, #16
 c004278:	e1a0a82a 	lsr	sl, sl, #16
 c00427c:	eaffffa1 	b	c004108 <Lcd_Draw_Line+0xa24>
*********************************************************************************************/
void Lcd_Draw_VLine (INT16 usY0, INT16 usY1, INT16 usX0, INT8U ucColor, INT16U usWidth)
{
	INT16 usLen;

    if( usY1 < usY0 )
 c004280:	e1510003 	cmp	r1, r3
 c004284:	ca000074 	bgt	c00445c <Lcd_Draw_Line+0xd78>
    {
        GUISWAP (usY1, usY0);
    }

    while( (usWidth--) > 0 )
 c004288:	e35c0000 	cmp	ip, #0
 c00428c:	0affff74 	beq	c004064 <Lcd_Draw_Line+0x980>
 c004290:	e1a08804 	lsl	r8, r4, #16
 c004294:	e1a02806 	lsl	r2, r6, #16
 c004298:	e2821801 	add	r1, r2, #65536	; 0x10000
 c00429c:	e1a03828 	lsr	r3, r8, #16
 c0042a0:	e0630821 	rsb	r0, r3, r1, lsr #16
 c0042a4:	e1a0a800 	lsl	sl, r0, #16
 c0042a8:	e1a0982a 	lsr	r9, sl, #16
 c0042ac:	e2498001 	sub	r8, r9, #1
*			usWidth -- line's width
* ret:		none
* modify:
* comment:		
*********************************************************************************************/
void Lcd_Draw_Line(INT16 usX0, INT16 usY0, INT16 usX1, INT16 usY1, INT8U ucColor, INT16U usWidth)
 c0042b0:	e1a02808 	lsl	r2, r8, #16
 c0042b4:	e0841842 	add	r1, r4, r2, asr #16
 c0042b8:	e0814101 	add	r4, r1, r1, lsl #2
 c0042bc:	e1a04184 	lsl	r4, r4, #3
    if( usY1 < usY0 )
    {
        GUISWAP (usY1, usY0);
    }

    while( (usWidth--) > 0 )
 c0042c0:	e24c3001 	sub	r3, ip, #1
*			usWidth -- line's width
* ret:		none
* modify:
* comment:		
*********************************************************************************************/
void Lcd_Draw_Line(INT16 usX0, INT16 usY0, INT16 usX1, INT16 usY1, INT8U ucColor, INT16U usWidth)
 c0042c4:	e284c7c3 	add	ip, r4, #51118080	; 0x30c0000
 c0042c8:	e28c8d96 	add	r8, ip, #9600	; 0x2580
    if( usY1 < usY0 )
    {
        GUISWAP (usY1, usY0);
    }

    while( (usWidth--) > 0 )
 c0042cc:	e50b9030 	str	r9, [fp, #-48]	; 0xffffffd0
 c0042d0:	e1a0a803 	lsl	sl, r3, #16
 c0042d4:	e1a09809 	lsl	r9, r9, #16
*			usWidth -- line's width
* ret:		none
* modify:
* comment:		
*********************************************************************************************/
void Lcd_Draw_Line(INT16 usX0, INT16 usY0, INT16 usX1, INT16 usY1, INT8U ucColor, INT16U usWidth)
 c0042d8:	e50b4034 	str	r4, [fp, #-52]	; 0xffffffcc
 c0042dc:	e50b8038 	str	r8, [fp, #-56]	; 0xffffffc8
    if( usY1 < usY0 )
    {
        GUISWAP (usY1, usY0);
    }

    while( (usWidth--) > 0 )
 c0042e0:	e1a0a82a 	lsr	sl, sl, #16
 c0042e4:	e1a09849 	asr	r9, r9, #16
*			usWidth -- line's width
* ret:		none
* modify:
* comment:		
*********************************************************************************************/
void Lcd_Draw_Line(INT16 usX0, INT16 usY0, INT16 usX1, INT16 usY1, INT8U ucColor, INT16U usWidth)
 c0042e8:	e1a08007 	mov	r8, r7
    }

    while( (usWidth--) > 0 )
    {
        usLen = usY1 - usY0 + 1;
        while( (usLen--) > 0 )
 c0042ec:	e3590000 	cmp	r9, #0
 c0042f0:	da000050 	ble	c004438 <Lcd_Draw_Line+0xd54>
 c0042f4:	e1a06fc5 	asr	r6, r5, #31
 c0042f8:	e1a02ea6 	lsr	r2, r6, #29
 c0042fc:	e0853002 	add	r3, r5, r2
 c004300:	e2034007 	and	r4, r3, #7
 c004304:	e062c004 	rsb	ip, r2, r4
 c004308:	e26c6007 	rsb	r6, ip, #7
 c00430c:	e1a0110c 	lsl	r1, ip, #2
 c004310:	e3a0020f 	mov	r0, #-268435456	; 0xf0000000
 c004314:	e1e01130 	mvn	r1, r0, lsr r1
 c004318:	e1a02106 	lsl	r2, r6, #2
 c00431c:	e1a02218 	lsl	r2, r8, r2
*			usWidth -- line's width
* ret:		none
* modify:
* comment:		
*********************************************************************************************/
void Lcd_Draw_Line(INT16 usX0, INT16 usY0, INT16 usX1, INT16 usY1, INT8U ucColor, INT16U usWidth)
 c004320:	e51b3030 	ldr	r3, [fp, #-48]	; 0xffffffd0
    }

    while( (usWidth--) > 0 )
    {
        usLen = usY1 - usY0 + 1;
        while( (usLen--) > 0 )
 c004324:	e3550000 	cmp	r5, #0
 c004328:	e2854007 	add	r4, r5, #7
*			usWidth -- line's width
* ret:		none
* modify:
* comment:		
*********************************************************************************************/
void Lcd_Draw_Line(INT16 usX0, INT16 usY0, INT16 usX1, INT16 usY1, INT8U ucColor, INT16U usWidth)
 c00432c:	e243c001 	sub	ip, r3, #1
    }

    while( (usWidth--) > 0 )
    {
        usLen = usY1 - usY0 + 1;
        while( (usLen--) > 0 )
 c004330:	a1a04005 	movge	r4, r5
*			usWidth -- line's width
* ret:		none
* modify:
* comment:		
*********************************************************************************************/
void Lcd_Draw_Line(INT16 usX0, INT16 usY0, INT16 usX1, INT16 usY1, INT8U ucColor, INT16U usWidth)
 c004334:	e1a0680c 	lsl	r6, ip, #16
 c004338:	e51b3038 	ldr	r3, [fp, #-56]	; 0xffffffc8
    }

    while( (usWidth--) > 0 )
    {
        usLen = usY1 - usY0 + 1;
        while( (usLen--) > 0 )
 c00433c:	e1a00684 	lsl	r0, r4, #13
*			usWidth -- line's width
* ret:		none
* modify:
* comment:		
*********************************************************************************************/
void Lcd_Draw_Line(INT16 usX0, INT16 usY0, INT16 usX1, INT16 usY1, INT8U ucColor, INT16U usWidth)
 c004340:	e1a00840 	asr	r0, r0, #16
 c004344:	e1a04826 	lsr	r4, r6, #16
 c004348:	e083c000 	add	ip, r3, r0
 c00434c:	e0846104 	add	r6, r4, r4, lsl #2
 c004350:	e59f312c 	ldr	r3, [pc, #300]	; c004484 <Lcd_Draw_Line+0xda0>
 c004354:	e1a04186 	lsl	r4, r6, #3
 c004358:	e1a0c10c 	lsl	ip, ip, #2
 c00435c:	e0643003 	rsb	r3, r4, r3
 c004360:	e51b4034 	ldr	r4, [fp, #-52]	; 0xffffffcc
    while( (usWidth--) > 0 )
    {
        usLen = usY1 - usY0 + 1;
        while( (usLen--) > 0 )
        {
        	(LCD_PutPixel(usX0, usY0 + usLen, ucColor));
 c004364:	e59c6000 	ldr	r6, [ip]
*			usWidth -- line's width
* ret:		none
* modify:
* comment:		
*********************************************************************************************/
void Lcd_Draw_Line(INT16 usX0, INT16 usY0, INT16 usX1, INT16 usY1, INT8U ucColor, INT16U usWidth)
 c004368:	e0833004 	add	r3, r3, r4
 c00436c:	e0830000 	add	r0, r3, r0
    while( (usWidth--) > 0 )
    {
        usLen = usY1 - usY0 + 1;
        while( (usLen--) > 0 )
        {
        	(LCD_PutPixel(usX0, usY0 + usLen, ucColor));
 c004370:	e0016006 	and	r6, r1, r6
*			usWidth -- line's width
* ret:		none
* modify:
* comment:		
*********************************************************************************************/
void Lcd_Draw_Line(INT16 usX0, INT16 usY0, INT16 usX1, INT16 usY1, INT8U ucColor, INT16U usWidth)
 c004374:	e1a00100 	lsl	r0, r0, #2
    while( (usWidth--) > 0 )
    {
        usLen = usY1 - usY0 + 1;
        while( (usLen--) > 0 )
        {
        	(LCD_PutPixel(usX0, usY0 + usLen, ucColor));
 c004378:	e1a0300c 	mov	r3, ip
 c00437c:	e1826006 	orr	r6, r2, r6
 c004380:	e060400c 	rsb	r4, r0, ip
 c004384:	e40360a0 	str	r6, [r3], #-160	; 0xffffff60
 c004388:	e24440a0 	sub	r4, r4, #160	; 0xa0
 c00438c:	e1a042a4 	lsr	r4, r4, #5
    }

    while( (usWidth--) > 0 )
    {
        usLen = usY1 - usY0 + 1;
        while( (usLen--) > 0 )
 c004390:	e1530000 	cmp	r3, r0
 c004394:	e2044003 	and	r4, r4, #3
 c004398:	0a000026 	beq	c004438 <Lcd_Draw_Line+0xd54>
 c00439c:	e3540000 	cmp	r4, #0
 c0043a0:	0a000011 	beq	c0043ec <Lcd_Draw_Line+0xd08>
 c0043a4:	e3540001 	cmp	r4, #1
 c0043a8:	0a000009 	beq	c0043d4 <Lcd_Draw_Line+0xcf0>
 c0043ac:	e3540002 	cmp	r4, #2
        {
        	(LCD_PutPixel(usX0, usY0 + usLen, ucColor));
 c0043b0:	151c30a0 	ldrne	r3, [ip, #-160]	; 0xffffff60
 c0043b4:	10013003 	andne	r3, r1, r3
 c0043b8:	11823003 	orrne	r3, r2, r3
 c0043bc:	150c30a0 	strne	r3, [ip, #-160]	; 0xffffff60
 c0043c0:	124c3d05 	subne	r3, ip, #320	; 0x140
 c0043c4:	e593c000 	ldr	ip, [r3]
 c0043c8:	e001c00c 	and	ip, r1, ip
 c0043cc:	e182c00c 	orr	ip, r2, ip
 c0043d0:	e403c0a0 	str	ip, [r3], #-160	; 0xffffff60
 c0043d4:	e593c000 	ldr	ip, [r3]
 c0043d8:	e001c00c 	and	ip, r1, ip
 c0043dc:	e182c00c 	orr	ip, r2, ip
 c0043e0:	e403c0a0 	str	ip, [r3], #-160	; 0xffffff60
    }

    while( (usWidth--) > 0 )
    {
        usLen = usY1 - usY0 + 1;
        while( (usLen--) > 0 )
 c0043e4:	e1530000 	cmp	r3, r0
 c0043e8:	0a000012 	beq	c004438 <Lcd_Draw_Line+0xd54>
        {
        	(LCD_PutPixel(usX0, usY0 + usLen, ucColor));
 c0043ec:	e5937000 	ldr	r7, [r3]
 c0043f0:	e51360a0 	ldr	r6, [r3, #-160]	; 0xffffff60
 c0043f4:	e5134140 	ldr	r4, [r3, #-320]	; 0xfffffec0
 c0043f8:	e513c1e0 	ldr	ip, [r3, #-480]	; 0xfffffe20
 c0043fc:	e0017007 	and	r7, r1, r7
 c004400:	e0016006 	and	r6, r1, r6
 c004404:	e0014004 	and	r4, r1, r4
 c004408:	e001c00c 	and	ip, r1, ip
 c00440c:	e1827007 	orr	r7, r2, r7
 c004410:	e1826006 	orr	r6, r2, r6
 c004414:	e1824004 	orr	r4, r2, r4
 c004418:	e182c00c 	orr	ip, r2, ip
 c00441c:	e5837000 	str	r7, [r3]
 c004420:	e50360a0 	str	r6, [r3, #-160]	; 0xffffff60
 c004424:	e5034140 	str	r4, [r3, #-320]	; 0xfffffec0
 c004428:	e503c1e0 	str	ip, [r3, #-480]	; 0xfffffe20
 c00442c:	e2433d0a 	sub	r3, r3, #640	; 0x280
    }

    while( (usWidth--) > 0 )
    {
        usLen = usY1 - usY0 + 1;
        while( (usLen--) > 0 )
 c004430:	e1530000 	cmp	r3, r0
 c004434:	1affffec 	bne	c0043ec <Lcd_Draw_Line+0xd08>
    if( usY1 < usY0 )
    {
        GUISWAP (usY1, usY0);
    }

    while( (usWidth--) > 0 )
 c004438:	e35a0000 	cmp	sl, #0
 c00443c:	0affff08 	beq	c004064 <Lcd_Draw_Line+0x980>
        usLen = usY1 - usY0 + 1;
        while( (usLen--) > 0 )
        {
        	(LCD_PutPixel(usX0, usY0 + usLen, ucColor));
        }
        usX0++;
 c004440:	e2850001 	add	r0, r5, #1
    if( usY1 < usY0 )
    {
        GUISWAP (usY1, usY0);
    }

    while( (usWidth--) > 0 )
 c004444:	e24a1001 	sub	r1, sl, #1
        usLen = usY1 - usY0 + 1;
        while( (usLen--) > 0 )
        {
        	(LCD_PutPixel(usX0, usY0 + usLen, ucColor));
        }
        usX0++;
 c004448:	e1a05800 	lsl	r5, r0, #16
    if( usY1 < usY0 )
    {
        GUISWAP (usY1, usY0);
    }

    while( (usWidth--) > 0 )
 c00444c:	e1a0a801 	lsl	sl, r1, #16
        usLen = usY1 - usY0 + 1;
        while( (usLen--) > 0 )
        {
        	(LCD_PutPixel(usX0, usY0 + usLen, ucColor));
        }
        usX0++;
 c004450:	e1a05845 	asr	r5, r5, #16
    if( usY1 < usY0 )
    {
        GUISWAP (usY1, usY0);
    }

    while( (usWidth--) > 0 )
 c004454:	e1a0a82a 	lsr	sl, sl, #16
 c004458:	eaffffa3 	b	c0042ec <Lcd_Draw_Line+0xc08>
{
	INT16 usLen;

    if( usY1 < usY0 )
    {
        GUISWAP (usY1, usY0);
 c00445c:	e0236001 	eor	r6, r3, r1
 c004460:	e1a02806 	lsl	r2, r6, #16
 c004464:	e1a03822 	lsr	r3, r2, #16
 c004468:	e0211003 	eor	r1, r1, r3
 c00446c:	e1a04801 	lsl	r4, r1, #16
 c004470:	e1a04844 	asr	r4, r4, #16
 c004474:	e0240003 	eor	r0, r4, r3
 c004478:	e1a06800 	lsl	r6, r0, #16
 c00447c:	e1a06846 	asr	r6, r6, #16
 c004480:	eaffff80 	b	c004288 <Lcd_Draw_Line+0xba4>
 c004484:	030c2558 	.word	0x030c2558

0c004488 <Lcd_Draw_HLine>:
* ret:		none
* modify:
* comment:		
*********************************************************************************************/
void Lcd_Draw_HLine(INT16 usX0, INT16 usX1, INT16 usY0, INT8U ucColor, INT16U usWidth)
{
 c004488:	e92d07f0 	push	{r4, r5, r6, r7, r8, r9, sl}
 c00448c:	e24dd00c 	sub	sp, sp, #12
	INT16 usLen;

    if( usX1 < usX0 )
 c004490:	e1510000 	cmp	r1, r0
* ret:		none
* modify:
* comment:		
*********************************************************************************************/
void Lcd_Draw_HLine(INT16 usX0, INT16 usX1, INT16 usY0, INT8U ucColor, INT16U usWidth)
{
 c004494:	e1ddc2b8 	ldrh	ip, [sp, #40]	; 0x28
	INT16 usLen;

    if( usX1 < usX0 )
    {
        GUISWAP (usX1, usX0);
 c004498:	b0214000 	eorlt	r4, r1, r0
 c00449c:	b1a00001 	movlt	r0, r1
 c0044a0:	b0211004 	eorlt	r1, r1, r4
    }

    while( (usWidth--) > 0 )
 c0044a4:	e35c0000 	cmp	ip, #0
 c0044a8:	0a000074 	beq	c004680 <Lcd_Draw_HLine+0x1f8>
 c0044ac:	e1a0a801 	lsl	sl, r1, #16
 c0044b0:	e28a4801 	add	r4, sl, #65536	; 0x10000
 c0044b4:	e0601824 	rsb	r1, r0, r4, lsr #16
 c0044b8:	e1a05801 	lsl	r5, r1, #16
 c0044bc:	e1a01825 	lsr	r1, r5, #16
 c0044c0:	e241a001 	sub	sl, r1, #1
*			usWidth -- line's width
* ret:		none
* modify:
* comment:		
*********************************************************************************************/
void Lcd_Draw_HLine(INT16 usX0, INT16 usX1, INT16 usY0, INT8U ucColor, INT16U usWidth)
 c0044c4:	e0828102 	add	r8, r2, r2, lsl #2
 c0044c8:	e1a0580a 	lsl	r5, sl, #16
 c0044cc:	e1a02005 	mov	r2, r5
 c0044d0:	e1a04188 	lsl	r4, r8, #3
 c0044d4:	e1a01801 	lsl	r1, r1, #16
 c0044d8:	e2408001 	sub	r8, r0, #1
 c0044dc:	e1a05845 	asr	r5, r5, #16
 c0044e0:	e0488822 	sub	r8, r8, r2, lsr #16
    if( usX1 < usX0 )
    {
        GUISWAP (usX1, usX0);
    }

    while( (usWidth--) > 0 )
 c0044e4:	e24cc001 	sub	ip, ip, #1
 c0044e8:	e1a02841 	asr	r2, r1, #16
 c0044ec:	e1a0a80c 	lsl	sl, ip, #16
*			usWidth -- line's width
* ret:		none
* modify:
* comment:		
*********************************************************************************************/
void Lcd_Draw_HLine(INT16 usX0, INT16 usX1, INT16 usY0, INT8U ucColor, INT16U usWidth)
 c0044f0:	e28447c3 	add	r4, r4, #51118080	; 0x30c0000
 c0044f4:	e88d0024 	stm	sp, {r2, r5}
    if( usX1 < usX0 )
    {
        GUISWAP (usX1, usX0);
    }

    while( (usWidth--) > 0 )
 c0044f8:	e1a0a82a 	lsr	sl, sl, #16
*			usWidth -- line's width
* ret:		none
* modify:
* comment:		
*********************************************************************************************/
void Lcd_Draw_HLine(INT16 usX0, INT16 usX1, INT16 usY0, INT8U ucColor, INT16U usWidth)
 c0044fc:	e2844d96 	add	r4, r4, #9600	; 0x2580
 c004500:	e0888005 	add	r8, r8, r5
    }

    while( (usWidth--) > 0 )
    {
        usLen = usX1 - usX0 + 1;
        while( (usLen--) > 0 )
 c004504:	e3520000 	cmp	r2, #0
 c004508:	da000054 	ble	c004660 <Lcd_Draw_HLine+0x1d8>
*			usWidth -- line's width
* ret:		none
* modify:
* comment:		
*********************************************************************************************/
void Lcd_Draw_HLine(INT16 usX0, INT16 usX1, INT16 usY0, INT8U ucColor, INT16U usWidth)
 c00450c:	e59d1004 	ldr	r1, [sp, #4]
 c004510:	e0811000 	add	r1, r1, r0
    while( (usWidth--) > 0 )
    {
        usLen = usX1 - usX0 + 1;
        while( (usLen--) > 0 )
        {
        	(LCD_PutPixel(usX0 + usLen, usY0, ucColor));
 c004514:	e1a02fc1 	asr	r2, r1, #31
 c004518:	e3510000 	cmp	r1, #0
 c00451c:	e1a05ea2 	lsr	r5, r2, #29
 c004520:	e2816007 	add	r6, r1, #7
 c004524:	a1a06001 	movge	r6, r1
 c004528:	e0817005 	add	r7, r1, r5
 c00452c:	e084c1c6 	add	ip, r4, r6, asr #3
 c004530:	e1a0c10c 	lsl	ip, ip, #2
 c004534:	e2072007 	and	r2, r7, #7
 c004538:	e0652002 	rsb	r2, r5, r2
 c00453c:	e59c6000 	ldr	r6, [ip]
 c004540:	e1a07102 	lsl	r7, r2, #2
 c004544:	e3a0520f 	mov	r5, #-268435456	; 0xf0000000
 c004548:	e1c67735 	bic	r7, r6, r5, lsr r7
 c00454c:	e2622007 	rsb	r2, r2, #7
 c004550:	e1a06102 	lsl	r6, r2, #2
 c004554:	e1876613 	orr	r6, r7, r3, lsl r6
 c004558:	e2412001 	sub	r2, r1, #1
 c00455c:	e0617008 	rsb	r7, r1, r8
 c004560:	e1e07007 	mvn	r7, r7
    }

    while( (usWidth--) > 0 )
    {
        usLen = usX1 - usX0 + 1;
        while( (usLen--) > 0 )
 c004564:	e1520008 	cmp	r2, r8
 c004568:	e2077001 	and	r7, r7, #1
        {
        	(LCD_PutPixel(usX0 + usLen, usY0, ucColor));
 c00456c:	e58c6000 	str	r6, [ip]
    }

    while( (usWidth--) > 0 )
    {
        usLen = usX1 - usX0 + 1;
        while( (usLen--) > 0 )
 c004570:	0a00003a 	beq	c004660 <Lcd_Draw_HLine+0x1d8>
 c004574:	e3570000 	cmp	r7, #0
 c004578:	0a000013 	beq	c0045cc <Lcd_Draw_HLine+0x144>
        {
        	(LCD_PutPixel(usX0 + usLen, usY0, ucColor));
 c00457c:	e3520000 	cmp	r2, #0
 c004580:	e1a07fc2 	asr	r7, r2, #31
 c004584:	e1a06ea7 	lsr	r6, r7, #29
 c004588:	a1a01002 	movge	r1, r2
 c00458c:	b2811006 	addlt	r1, r1, #6
 c004590:	e082c006 	add	ip, r2, r6
 c004594:	e08411c1 	add	r1, r4, r1, asr #3
 c004598:	e1a01101 	lsl	r1, r1, #2
 c00459c:	e20c7007 	and	r7, ip, #7
 c0045a0:	e066c007 	rsb	ip, r6, r7
 c0045a4:	e5916000 	ldr	r6, [r1]
 c0045a8:	e1a0710c 	lsl	r7, ip, #2
 c0045ac:	e1c66735 	bic	r6, r6, r5, lsr r7
 c0045b0:	e26cc007 	rsb	ip, ip, #7
 c0045b4:	e1a0c10c 	lsl	ip, ip, #2
 c0045b8:	e1866c13 	orr	r6, r6, r3, lsl ip
 c0045bc:	e2422001 	sub	r2, r2, #1
    }

    while( (usWidth--) > 0 )
    {
        usLen = usX1 - usX0 + 1;
        while( (usLen--) > 0 )
 c0045c0:	e1520008 	cmp	r2, r8
        {
        	(LCD_PutPixel(usX0 + usLen, usY0, ucColor));
 c0045c4:	e5816000 	str	r6, [r1]
    }

    while( (usWidth--) > 0 )
    {
        usLen = usX1 - usX0 + 1;
        while( (usLen--) > 0 )
 c0045c8:	0a000024 	beq	c004660 <Lcd_Draw_HLine+0x1d8>
        {
        	(LCD_PutPixel(usX0 + usLen, usY0, ucColor));
 c0045cc:	e1a06fc2 	asr	r6, r2, #31
 c0045d0:	e3520000 	cmp	r2, #0
 c0045d4:	e2821007 	add	r1, r2, #7
 c0045d8:	e1a07ea6 	lsr	r7, r6, #29
 c0045dc:	a1a01002 	movge	r1, r2
 c0045e0:	e0829007 	add	r9, r2, r7
 c0045e4:	e084c1c1 	add	ip, r4, r1, asr #3
 c0045e8:	e1a0c10c 	lsl	ip, ip, #2
 c0045ec:	e2096007 	and	r6, r9, #7
 c0045f0:	e0677006 	rsb	r7, r7, r6
 c0045f4:	e59c9000 	ldr	r9, [ip]
 c0045f8:	e1a01107 	lsl	r1, r7, #2
 c0045fc:	e1c99135 	bic	r9, r9, r5, lsr r1
 c004600:	e2676007 	rsb	r6, r7, #7
 c004604:	e1a01106 	lsl	r1, r6, #2
 c004608:	e1896113 	orr	r6, r9, r3, lsl r1
 c00460c:	e2521001 	subs	r1, r2, #1
 c004610:	e1a07fc1 	asr	r7, r1, #31
 c004614:	42822006 	addmi	r2, r2, #6
 c004618:	51a02001 	movpl	r2, r1
 c00461c:	e1a07ea7 	lsr	r7, r7, #29
 c004620:	e58c6000 	str	r6, [ip]
 c004624:	e0816007 	add	r6, r1, r7
 c004628:	e084c1c2 	add	ip, r4, r2, asr #3
 c00462c:	e1a0c10c 	lsl	ip, ip, #2
 c004630:	e2062007 	and	r2, r6, #7
 c004634:	e0677002 	rsb	r7, r7, r2
 c004638:	e59c2000 	ldr	r2, [ip]
 c00463c:	e1a06107 	lsl	r6, r7, #2
 c004640:	e1c22635 	bic	r2, r2, r5, lsr r6
 c004644:	e2677007 	rsb	r7, r7, #7
 c004648:	e1a06107 	lsl	r6, r7, #2
 c00464c:	e1826613 	orr	r6, r2, r3, lsl r6
 c004650:	e2412001 	sub	r2, r1, #1
    }

    while( (usWidth--) > 0 )
    {
        usLen = usX1 - usX0 + 1;
        while( (usLen--) > 0 )
 c004654:	e1520008 	cmp	r2, r8
        {
        	(LCD_PutPixel(usX0 + usLen, usY0, ucColor));
 c004658:	e58c6000 	str	r6, [ip]
    }

    while( (usWidth--) > 0 )
    {
        usLen = usX1 - usX0 + 1;
        while( (usLen--) > 0 )
 c00465c:	1affffda 	bne	c0045cc <Lcd_Draw_HLine+0x144>
    if( usX1 < usX0 )
    {
        GUISWAP (usX1, usX0);
    }

    while( (usWidth--) > 0 )
 c004660:	e35a0000 	cmp	sl, #0
    {
        usLen = usX1 - usX0 + 1;
        while( (usLen--) > 0 )
 c004664:	e2844028 	add	r4, r4, #40	; 0x28
    if( usX1 < usX0 )
    {
        GUISWAP (usX1, usX0);
    }

    while( (usWidth--) > 0 )
 c004668:	0a000004 	beq	c004680 <Lcd_Draw_HLine+0x1f8>
 c00466c:	e24a2001 	sub	r2, sl, #1
 c004670:	e1a0a802 	lsl	sl, r2, #16
 c004674:	e1a0a82a 	lsr	sl, sl, #16
 c004678:	e59d2000 	ldr	r2, [sp]
 c00467c:	eaffffa0 	b	c004504 <Lcd_Draw_HLine+0x7c>
        {
        	(LCD_PutPixel(usX0 + usLen, usY0, ucColor));
        }
        usY0++;
    }
}
 c004680:	e28dd00c 	add	sp, sp, #12
 c004684:	e8bd07f0 	pop	{r4, r5, r6, r7, r8, r9, sl}
 c004688:	e12fff1e 	bx	lr

0c00468c <Lcd_Draw_VLine>:
* ret:		none
* modify:
* comment:		
*********************************************************************************************/
void Lcd_Draw_VLine (INT16 usY0, INT16 usY1, INT16 usX0, INT8U ucColor, INT16U usWidth)
{
 c00468c:	e92d07f0 	push	{r4, r5, r6, r7, r8, r9, sl}
 c004690:	e24dd014 	sub	sp, sp, #20
	INT16 usLen;

    if( usY1 < usY0 )
 c004694:	e1510000 	cmp	r1, r0
* ret:		none
* modify:
* comment:		
*********************************************************************************************/
void Lcd_Draw_VLine (INT16 usY0, INT16 usY1, INT16 usX0, INT8U ucColor, INT16U usWidth)
{
 c004698:	e58d3008 	str	r3, [sp, #8]
 c00469c:	e1dd33b0 	ldrh	r3, [sp, #48]	; 0x30
	INT16 usLen;

    if( usY1 < usY0 )
    {
        GUISWAP (usY1, usY0);
 c0046a0:	b021c000 	eorlt	ip, r1, r0
 c0046a4:	b1a00001 	movlt	r0, r1
 c0046a8:	b021100c 	eorlt	r1, r1, ip
    }

    while( (usWidth--) > 0 )
 c0046ac:	e3530000 	cmp	r3, #0
 c0046b0:	0a00006d 	beq	c00486c <Lcd_Draw_VLine+0x1e0>
 c0046b4:	e1a08801 	lsl	r8, r1, #16
 c0046b8:	e288a801 	add	sl, r8, #65536	; 0x10000
 c0046bc:	e060c82a 	rsb	ip, r0, sl, lsr #16
 c0046c0:	e1a0980c 	lsl	r9, ip, #16
 c0046c4:	e1a09829 	lsr	r9, r9, #16
 c0046c8:	e2491001 	sub	r1, r9, #1
*			usWidth -- line's width
* ret:		none
* modify:
* comment:		
*********************************************************************************************/
void Lcd_Draw_VLine (INT16 usY0, INT16 usY1, INT16 usX0, INT8U ucColor, INT16U usWidth)
 c0046cc:	e1a08801 	lsl	r8, r1, #16
 c0046d0:	e080a848 	add	sl, r0, r8, asr #16
 c0046d4:	e08a010a 	add	r0, sl, sl, lsl #2
 c0046d8:	e1a01180 	lsl	r1, r0, #3
 c0046dc:	e28107c3 	add	r0, r1, #51118080	; 0x30c0000
    if( usY1 < usY0 )
    {
        GUISWAP (usY1, usY0);
    }

    while( (usWidth--) > 0 )
 c0046e0:	e243c001 	sub	ip, r3, #1
*			usWidth -- line's width
* ret:		none
* modify:
* comment:		
*********************************************************************************************/
void Lcd_Draw_VLine (INT16 usY0, INT16 usY1, INT16 usX0, INT8U ucColor, INT16U usWidth)
 c0046e4:	e2803d96 	add	r3, r0, #9600	; 0x2580
    if( usY1 < usY0 )
    {
        GUISWAP (usY1, usY0);
    }

    while( (usWidth--) > 0 )
 c0046e8:	e1a0880c 	lsl	r8, ip, #16
 c0046ec:	e1a0a809 	lsl	sl, r9, #16
*			usWidth -- line's width
* ret:		none
* modify:
* comment:		
*********************************************************************************************/
void Lcd_Draw_VLine (INT16 usY0, INT16 usY1, INT16 usX0, INT8U ucColor, INT16U usWidth)
 c0046f0:	e58d1004 	str	r1, [sp, #4]
 c0046f4:	e58d300c 	str	r3, [sp, #12]
    if( usY1 < usY0 )
    {
        GUISWAP (usY1, usY0);
    }

    while( (usWidth--) > 0 )
 c0046f8:	e1a08828 	lsr	r8, r8, #16
 c0046fc:	e1a0a84a 	asr	sl, sl, #16
    {
        usLen = usY1 - usY0 + 1;
        while( (usLen--) > 0 )
 c004700:	e35a0000 	cmp	sl, #0
 c004704:	da00004f 	ble	c004848 <Lcd_Draw_VLine+0x1bc>
 c004708:	e1a06fc2 	asr	r6, r2, #31
 c00470c:	e1a05ea6 	lsr	r5, r6, #29
 c004710:	e0821005 	add	r1, r2, r5
 c004714:	e2014007 	and	r4, r1, #7
 c004718:	e065c004 	rsb	ip, r5, r4
 c00471c:	e1a0310c 	lsl	r3, ip, #2
 c004720:	e26c6007 	rsb	r6, ip, #7
 c004724:	e59d5008 	ldr	r5, [sp, #8]
 c004728:	e3a0020f 	mov	r0, #-268435456	; 0xf0000000
 c00472c:	e1e00330 	mvn	r0, r0, lsr r3
 c004730:	e1a01106 	lsl	r1, r6, #2
 c004734:	e1a01115 	lsl	r1, r5, r1
*			usWidth -- line's width
* ret:		none
* modify:
* comment:		
*********************************************************************************************/
void Lcd_Draw_VLine (INT16 usY0, INT16 usY1, INT16 usX0, INT8U ucColor, INT16U usWidth)
 c004738:	e2494001 	sub	r4, r9, #1
    }

    while( (usWidth--) > 0 )
    {
        usLen = usY1 - usY0 + 1;
        while( (usLen--) > 0 )
 c00473c:	e3520000 	cmp	r2, #0
*			usWidth -- line's width
* ret:		none
* modify:
* comment:		
*********************************************************************************************/
void Lcd_Draw_VLine (INT16 usY0, INT16 usY1, INT16 usX0, INT8U ucColor, INT16U usWidth)
 c004740:	e1a06804 	lsl	r6, r4, #16
 c004744:	e59d300c 	ldr	r3, [sp, #12]
    }

    while( (usWidth--) > 0 )
    {
        usLen = usY1 - usY0 + 1;
        while( (usLen--) > 0 )
 c004748:	e282c007 	add	ip, r2, #7
 c00474c:	a1a0c002 	movge	ip, r2
*			usWidth -- line's width
* ret:		none
* modify:
* comment:		
*********************************************************************************************/
void Lcd_Draw_VLine (INT16 usY0, INT16 usY1, INT16 usX0, INT8U ucColor, INT16U usWidth)
 c004750:	e1a0c1cc 	asr	ip, ip, #3
 c004754:	e1a05826 	lsr	r5, r6, #16
 c004758:	e083400c 	add	r4, r3, ip
 c00475c:	e0856105 	add	r6, r5, r5, lsl #2
 c004760:	e59f3110 	ldr	r3, [pc, #272]	; c004878 <Lcd_Draw_VLine+0x1ec>
 c004764:	e1a05186 	lsl	r5, r6, #3
 c004768:	e1a04104 	lsl	r4, r4, #2
 c00476c:	e0653003 	rsb	r3, r5, r3
 c004770:	e59d5004 	ldr	r5, [sp, #4]
    while( (usWidth--) > 0 )
    {
        usLen = usY1 - usY0 + 1;
        while( (usLen--) > 0 )
        {
        	(LCD_PutPixel(usX0, usY0 + usLen, ucColor));
 c004774:	e5946000 	ldr	r6, [r4]
*			usWidth -- line's width
* ret:		none
* modify:
* comment:		
*********************************************************************************************/
void Lcd_Draw_VLine (INT16 usY0, INT16 usY1, INT16 usX0, INT8U ucColor, INT16U usWidth)
 c004778:	e0835005 	add	r5, r3, r5
 c00477c:	e085300c 	add	r3, r5, ip
    while( (usWidth--) > 0 )
    {
        usLen = usY1 - usY0 + 1;
        while( (usLen--) > 0 )
        {
        	(LCD_PutPixel(usX0, usY0 + usLen, ucColor));
 c004780:	e0006006 	and	r6, r0, r6
*			usWidth -- line's width
* ret:		none
* modify:
* comment:		
*********************************************************************************************/
void Lcd_Draw_VLine (INT16 usY0, INT16 usY1, INT16 usX0, INT8U ucColor, INT16U usWidth)
 c004784:	e1a0c103 	lsl	ip, r3, #2
    while( (usWidth--) > 0 )
    {
        usLen = usY1 - usY0 + 1;
        while( (usLen--) > 0 )
        {
        	(LCD_PutPixel(usX0, usY0 + usLen, ucColor));
 c004788:	e1816006 	orr	r6, r1, r6
 c00478c:	e1a03004 	mov	r3, r4
 c004790:	e06c5004 	rsb	r5, ip, r4
 c004794:	e40360a0 	str	r6, [r3], #-160	; 0xffffff60
 c004798:	e24550a0 	sub	r5, r5, #160	; 0xa0
 c00479c:	e1a052a5 	lsr	r5, r5, #5
    }

    while( (usWidth--) > 0 )
    {
        usLen = usY1 - usY0 + 1;
        while( (usLen--) > 0 )
 c0047a0:	e153000c 	cmp	r3, ip
 c0047a4:	e2055003 	and	r5, r5, #3
 c0047a8:	0a000026 	beq	c004848 <Lcd_Draw_VLine+0x1bc>
 c0047ac:	e3550000 	cmp	r5, #0
 c0047b0:	0a000011 	beq	c0047fc <Lcd_Draw_VLine+0x170>
 c0047b4:	e3550001 	cmp	r5, #1
 c0047b8:	0a000009 	beq	c0047e4 <Lcd_Draw_VLine+0x158>
 c0047bc:	e3550002 	cmp	r5, #2
        {
        	(LCD_PutPixel(usX0, usY0 + usLen, ucColor));
 c0047c0:	151430a0 	ldrne	r3, [r4, #-160]	; 0xffffff60
 c0047c4:	10003003 	andne	r3, r0, r3
 c0047c8:	11813003 	orrne	r3, r1, r3
 c0047cc:	150430a0 	strne	r3, [r4, #-160]	; 0xffffff60
 c0047d0:	12443d05 	subne	r3, r4, #320	; 0x140
 c0047d4:	e5934000 	ldr	r4, [r3]
 c0047d8:	e0004004 	and	r4, r0, r4
 c0047dc:	e1814004 	orr	r4, r1, r4
 c0047e0:	e40340a0 	str	r4, [r3], #-160	; 0xffffff60
 c0047e4:	e5934000 	ldr	r4, [r3]
 c0047e8:	e0004004 	and	r4, r0, r4
 c0047ec:	e1814004 	orr	r4, r1, r4
 c0047f0:	e40340a0 	str	r4, [r3], #-160	; 0xffffff60
    }

    while( (usWidth--) > 0 )
    {
        usLen = usY1 - usY0 + 1;
        while( (usLen--) > 0 )
 c0047f4:	e153000c 	cmp	r3, ip
 c0047f8:	0a000012 	beq	c004848 <Lcd_Draw_VLine+0x1bc>
        {
        	(LCD_PutPixel(usX0, usY0 + usLen, ucColor));
 c0047fc:	e5937000 	ldr	r7, [r3]
 c004800:	e51360a0 	ldr	r6, [r3, #-160]	; 0xffffff60
 c004804:	e5135140 	ldr	r5, [r3, #-320]	; 0xfffffec0
 c004808:	e51341e0 	ldr	r4, [r3, #-480]	; 0xfffffe20
 c00480c:	e0007007 	and	r7, r0, r7
 c004810:	e0006006 	and	r6, r0, r6
 c004814:	e0005005 	and	r5, r0, r5
 c004818:	e0004004 	and	r4, r0, r4
 c00481c:	e1817007 	orr	r7, r1, r7
 c004820:	e1816006 	orr	r6, r1, r6
 c004824:	e1815005 	orr	r5, r1, r5
 c004828:	e1814004 	orr	r4, r1, r4
 c00482c:	e5837000 	str	r7, [r3]
 c004830:	e50360a0 	str	r6, [r3, #-160]	; 0xffffff60
 c004834:	e5035140 	str	r5, [r3, #-320]	; 0xfffffec0
 c004838:	e50341e0 	str	r4, [r3, #-480]	; 0xfffffe20
 c00483c:	e2433d0a 	sub	r3, r3, #640	; 0x280
    }

    while( (usWidth--) > 0 )
    {
        usLen = usY1 - usY0 + 1;
        while( (usLen--) > 0 )
 c004840:	e153000c 	cmp	r3, ip
 c004844:	1affffec 	bne	c0047fc <Lcd_Draw_VLine+0x170>
    if( usY1 < usY0 )
    {
        GUISWAP (usY1, usY0);
    }

    while( (usWidth--) > 0 )
 c004848:	e3580000 	cmp	r8, #0
 c00484c:	0a000006 	beq	c00486c <Lcd_Draw_VLine+0x1e0>
        usLen = usY1 - usY0 + 1;
        while( (usLen--) > 0 )
        {
        	(LCD_PutPixel(usX0, usY0 + usLen, ucColor));
        }
        usX0++;
 c004850:	e2823001 	add	r3, r2, #1
    if( usY1 < usY0 )
    {
        GUISWAP (usY1, usY0);
    }

    while( (usWidth--) > 0 )
 c004854:	e2480001 	sub	r0, r8, #1
        usLen = usY1 - usY0 + 1;
        while( (usLen--) > 0 )
        {
        	(LCD_PutPixel(usX0, usY0 + usLen, ucColor));
        }
        usX0++;
 c004858:	e1a02803 	lsl	r2, r3, #16
    if( usY1 < usY0 )
    {
        GUISWAP (usY1, usY0);
    }

    while( (usWidth--) > 0 )
 c00485c:	e1a08800 	lsl	r8, r0, #16
        usLen = usY1 - usY0 + 1;
        while( (usLen--) > 0 )
        {
        	(LCD_PutPixel(usX0, usY0 + usLen, ucColor));
        }
        usX0++;
 c004860:	e1a02842 	asr	r2, r2, #16
    if( usY1 < usY0 )
    {
        GUISWAP (usY1, usY0);
    }

    while( (usWidth--) > 0 )
 c004864:	e1a08828 	lsr	r8, r8, #16
 c004868:	eaffffa4 	b	c004700 <Lcd_Draw_VLine+0x74>
        {
        	(LCD_PutPixel(usX0, usY0 + usLen, ucColor));
        }
        usX0++;
    }
}
 c00486c:	e28dd014 	add	sp, sp, #20
 c004870:	e8bd07f0 	pop	{r4, r5, r6, r7, r8, r9, sl}
 c004874:	e12fff1e 	bx	lr
 c004878:	030c2558 	.word	0x030c2558

0c00487c <Lcd_DisplayString>:

void Lcd_DisplayString(INT16U usX0, INT16U usY0, INT8U *pucStr){

}
 c00487c:	e12fff1e 	bx	lr

0c004880 <Lcd_DspAscII8x16>:
* ret:		none
* modify:
* comment:		
*********************************************************************************************/
void Lcd_DspAscII8x16(INT16U x0, INT16U y0, INT8U ForeColor, INT8U * s)
{
 c004880:	e1a0c00d 	mov	ip, sp
 c004884:	e92ddff0 	push	{r4, r5, r6, r7, r8, r9, sl, fp, ip, lr, pc}
*			pucChar   -- ASCII character string
* ret:		none
* modify:
* comment:		
*********************************************************************************************/
void Lcd_DspAscII8x16(INT16U x0, INT16U y0, INT8U ForeColor, INT8U * s)
 c004888:	e0811101 	add	r1, r1, r1, lsl #2
{
 c00488c:	e24cb004 	sub	fp, ip, #4
*			pucChar   -- ASCII character string
* ret:		none
* modify:
* comment:		
*********************************************************************************************/
void Lcd_DspAscII8x16(INT16U x0, INT16U y0, INT8U ForeColor, INT8U * s)
 c004890:	e1a0e181 	lsl	lr, r1, #3
{
 c004894:	e24dd0c4 	sub	sp, sp, #196	; 0xc4
*			pucChar   -- ASCII character string
* ret:		none
* modify:
* comment:		
*********************************************************************************************/
void Lcd_DspAscII8x16(INT16U x0, INT16U y0, INT8U ForeColor, INT8U * s)
 c004898:	e28ec7c3 	add	ip, lr, #51118080	; 0x30c0000
{
 c00489c:	e50b007c 	str	r0, [fp, #-124]	; 0xffffff84
	INT16 i,j,k,x,y,xx;
	INT8U qm;
	INT32U ulOffset;
	INT8 ywbuf[16],temp[2];
    
	for( i = 0; i < strlen((const char*)s); i++ )
 c0048a0:	e3a00000 	mov	r0, #0
*			pucChar   -- ASCII character string
* ret:		none
* modify:
* comment:		
*********************************************************************************************/
void Lcd_DspAscII8x16(INT16U x0, INT16U y0, INT8U ForeColor, INT8U * s)
 c0048a4:	e28c1d96 	add	r1, ip, #9600	; 0x2580
	INT16 i,j,k,x,y,xx;
	INT8U qm;
	INT32U ulOffset;
	INT8 ywbuf[16],temp[2];
    
	for( i = 0; i < strlen((const char*)s); i++ )
 c0048a8:	e50b00ac 	str	r0, [fp, #-172]	; 0xffffff54
 c0048ac:	e1a00003 	mov	r0, r3
*			pucChar   -- ASCII character string
* ret:		none
* modify:
* comment:		
*********************************************************************************************/
void Lcd_DspAscII8x16(INT16U x0, INT16U y0, INT8U ForeColor, INT8U * s)
 c0048b0:	e50b1084 	str	r1, [fp, #-132]	; 0xffffff7c
{
 c0048b4:	e50b2080 	str	r2, [fp, #-128]	; 0xffffff80
 c0048b8:	e50b30b0 	str	r3, [fp, #-176]	; 0xffffff50
	INT16 i,j,k,x,y,xx;
	INT8U qm;
	INT32U ulOffset;
	INT8 ywbuf[16],temp[2];
    
	for( i = 0; i < strlen((const char*)s); i++ )
 c0048bc:	eb001932 	bl	c00ad8c <strlen>
 c0048c0:	e51b10ac 	ldr	r1, [fp, #-172]	; 0xffffff54
 c0048c4:	e1500001 	cmp	r0, r1
 c0048c8:	9a00018a 	bls	c004ef8 <Lcd_DspAscII8x16+0x678>
	{
		if( (INT8U)*(s+i) >= 161 )
 c0048cc:	e51b30b0 	ldr	r3, [fp, #-176]	; 0xffffff50
 c0048d0:	e7d32001 	ldrb	r2, [r3, r1]
 c0048d4:	e35200a0 	cmp	r2, #160	; 0xa0
 c0048d8:	e50b2088 	str	r2, [fp, #-136]	; 0xffffff78
 c0048dc:	8a000185 	bhi	c004ef8 <Lcd_DspAscII8x16+0x678>
*			pucChar   -- ASCII character string
* ret:		none
* modify:
* comment:		
*********************************************************************************************/
void Lcd_DspAscII8x16(INT16U x0, INT16U y0, INT8U ForeColor, INT8U * s)
 c0048e0:	e51b307c 	ldr	r3, [fp, #-124]	; 0xffffff84
 c0048e4:	e2836002 	add	r6, r3, #2
 c0048e8:	e2832004 	add	r2, r3, #4
 c0048ec:	e2837001 	add	r7, r3, #1
 c0048f0:	e2831003 	add	r1, r3, #3
 c0048f4:	e2835005 	add	r5, r3, #5
               	{
                	k = x % 8;
			    	if( ywbuf[y]  & (0x80 >> k) )
			       	{
			       		xx = x0 + x + i*8;
			       		(LCD_PutPixel(xx, y + y0, (INT8U)ForeColor));
 c0048f8:	e1a08806 	lsl	r8, r6, #16
 c0048fc:	e1a06802 	lsl	r6, r2, #16
*			pucChar   -- ASCII character string
* ret:		none
* modify:
* comment:		
*********************************************************************************************/
void Lcd_DspAscII8x16(INT16U x0, INT16U y0, INT8U ForeColor, INT8U * s)
 c004900:	e283e006 	add	lr, r3, #6
               	{
                	k = x % 8;
			    	if( ywbuf[y]  & (0x80 >> k) )
			       	{
			       		xx = x0 + x + i*8;
			       		(LCD_PutPixel(xx, y + y0, (INT8U)ForeColor));
 c004904:	e1a0a807 	lsl	sl, r7, #16
 c004908:	e1a00fc6 	asr	r0, r6, #31
 c00490c:	e1a07801 	lsl	r7, r1, #16
 c004910:	e1a01805 	lsl	r1, r5, #16
 c004914:	e50b004c 	str	r0, [fp, #-76]	; 0xffffffb4
 c004918:	e1a0280e 	lsl	r2, lr, #16
 c00491c:	e1a00fc1 	asr	r0, r1, #31
*			pucChar   -- ASCII character string
* ret:		none
* modify:
* comment:		
*********************************************************************************************/
void Lcd_DspAscII8x16(INT16U x0, INT16U y0, INT8U ForeColor, INT8U * s)
 c004920:	e283c007 	add	ip, r3, #7
               	{
                	k = x % 8;
			    	if( ywbuf[y]  & (0x80 >> k) )
			       	{
			       		xx = x0 + x + i*8;
			       		(LCD_PutPixel(xx, y + y0, (INT8U)ForeColor));
 c004924:	e50b0040 	str	r0, [fp, #-64]	; 0xffffffc0
 c004928:	e1a0380c 	lsl	r3, ip, #16
 c00492c:	e1a00fc2 	asr	r0, r2, #31
 c004930:	e50b0044 	str	r0, [fp, #-68]	; 0xffffffbc
 c004934:	e1a01841 	asr	r1, r1, #16
 c004938:	e1a00fc3 	asr	r0, r3, #31
 c00493c:	e50b0048 	str	r0, [fp, #-72]	; 0xffffffb8
 c004940:	e50b10a0 	str	r1, [fp, #-160]	; 0xffffff60
 c004944:	e1a00846 	asr	r0, r6, #16
 c004948:	e51b1040 	ldr	r1, [fp, #-64]	; 0xffffffc0
 c00494c:	e1a06843 	asr	r6, r3, #16
 c004950:	e50b60a8 	str	r6, [fp, #-168]	; 0xffffff58
 c004954:	e1a0cfc7 	asr	ip, r7, #31
 c004958:	e51b60a0 	ldr	r6, [fp, #-160]	; 0xffffff60
 c00495c:	e1a07847 	asr	r7, r7, #16
 c004960:	e50b7098 	str	r7, [fp, #-152]	; 0xffffff68
 c004964:	e1a01ea1 	lsr	r1, r1, #29
 c004968:	e1a07842 	asr	r7, r2, #16
 c00496c:	e50b70a4 	str	r7, [fp, #-164]	; 0xffffff5c
 c004970:	e51b2044 	ldr	r2, [fp, #-68]	; 0xffffffbc
 c004974:	e0866001 	add	r6, r6, r1
 c004978:	e50b6040 	str	r6, [fp, #-64]	; 0xffffffc0
 c00497c:	e51b407c 	ldr	r4, [fp, #-124]	; 0xffffff84
 c004980:	e51b60a4 	ldr	r6, [fp, #-164]	; 0xffffff5c
 c004984:	e1a02ea2 	lsr	r2, r2, #29
 c004988:	e1a09804 	lsl	r9, r4, #16
 c00498c:	e51b3048 	ldr	r3, [fp, #-72]	; 0xffffffb8
 c004990:	e0866002 	add	r6, r6, r2
 c004994:	e1a04fca 	asr	r4, sl, #31
 c004998:	e50b6044 	str	r6, [fp, #-68]	; 0xffffffbc
 c00499c:	e1a0a84a 	asr	sl, sl, #16
 c0049a0:	e1a04ea4 	lsr	r4, r4, #29
 c0049a4:	e51b60a8 	ldr	r6, [fp, #-168]	; 0xffffff58
 c0049a8:	e50ba090 	str	sl, [fp, #-144]	; 0xffffff70
 c0049ac:	e1a03ea3 	lsr	r3, r3, #29
 c0049b0:	e08aa004 	add	sl, sl, r4
 c0049b4:	e50b009c 	str	r0, [fp, #-156]	; 0xffffff64
 c0049b8:	e0866003 	add	r6, r6, r3
 c0049bc:	e51b004c 	ldr	r0, [fp, #-76]	; 0xffffffb4
 c0049c0:	e50ba04c 	str	sl, [fp, #-76]	; 0xffffffb4
 c0049c4:	e50b6048 	str	r6, [fp, #-72]	; 0xffffffb8
 c0049c8:	e51b604c 	ldr	r6, [fp, #-76]	; 0xffffffb4
 c0049cc:	e2066007 	and	r6, r6, #7
 c0049d0:	e50b604c 	str	r6, [fp, #-76]	; 0xffffffb4
 c0049d4:	e51b6040 	ldr	r6, [fp, #-64]	; 0xffffffc0
 c0049d8:	e2066007 	and	r6, r6, #7
 c0049dc:	e50b6040 	str	r6, [fp, #-64]	; 0xffffffc0
 c0049e0:	e51b6044 	ldr	r6, [fp, #-68]	; 0xffffffbc
 c0049e4:	e1a05fc9 	asr	r5, r9, #31
 c0049e8:	e1a0efc8 	asr	lr, r8, #31
 c0049ec:	e2066007 	and	r6, r6, #7
 c0049f0:	e1a08848 	asr	r8, r8, #16
 c0049f4:	e1a05ea5 	lsr	r5, r5, #29
 c0049f8:	e1a09849 	asr	r9, r9, #16
 c0049fc:	e1a0eeae 	lsr	lr, lr, #29
 c004a00:	e51b709c 	ldr	r7, [fp, #-156]	; 0xffffff64
 c004a04:	e50b6044 	str	r6, [fp, #-68]	; 0xffffffbc
 c004a08:	e51b6048 	ldr	r6, [fp, #-72]	; 0xffffffb8
 c004a0c:	e088a00e 	add	sl, r8, lr
 c004a10:	e50b908c 	str	r9, [fp, #-140]	; 0xffffff74
 c004a14:	e50b8094 	str	r8, [fp, #-148]	; 0xffffff6c
 c004a18:	e1a00ea0 	lsr	r0, r0, #29
 c004a1c:	e0899005 	add	r9, r9, r5
 c004a20:	e51b8098 	ldr	r8, [fp, #-152]	; 0xffffff68
 c004a24:	e1a0ceac 	lsr	ip, ip, #29
 c004a28:	e0877000 	add	r7, r7, r0
 c004a2c:	e2066007 	and	r6, r6, #7
 c004a30:	e2099007 	and	r9, r9, #7
 c004a34:	e50b6048 	str	r6, [fp, #-72]	; 0xffffffb8
 c004a38:	e0659009 	rsb	r9, r5, r9
 c004a3c:	e088800c 	add	r8, r8, ip
 c004a40:	e51b5040 	ldr	r5, [fp, #-64]	; 0xffffffc0
 c004a44:	e2077007 	and	r7, r7, #7
 c004a48:	e0600007 	rsb	r0, r0, r7
 c004a4c:	e20aa007 	and	sl, sl, #7
 c004a50:	e2088007 	and	r8, r8, #7
 c004a54:	e06ee00a 	rsb	lr, lr, sl
 c004a58:	e06cc008 	rsb	ip, ip, r8
 c004a5c:	e0611005 	rsb	r1, r1, r5
 c004a60:	e51b8044 	ldr	r8, [fp, #-68]	; 0xffffffbc
 c004a64:	e260a007 	rsb	sl, r0, #7
 c004a68:	e51b604c 	ldr	r6, [fp, #-76]	; 0xffffffb4
 c004a6c:	e50ba04c 	str	sl, [fp, #-76]	; 0xffffffb4
 c004a70:	e261a007 	rsb	sl, r1, #7
 c004a74:	e51b7048 	ldr	r7, [fp, #-72]	; 0xffffffb8
 c004a78:	e50ba040 	str	sl, [fp, #-64]	; 0xffffffc0
 c004a7c:	e0622008 	rsb	r2, r2, r8
 c004a80:	e1a00100 	lsl	r0, r0, #2
 c004a84:	e50b0068 	str	r0, [fp, #-104]	; 0xffffff98
 c004a88:	e262a007 	rsb	sl, r2, #7
 c004a8c:	e51b0040 	ldr	r0, [fp, #-64]	; 0xffffffc0
 c004a90:	e50ba044 	str	sl, [fp, #-68]	; 0xffffffbc
 c004a94:	e0633007 	rsb	r3, r3, r7
 c004a98:	e1a01101 	lsl	r1, r1, #2
 c004a9c:	e50b1070 	str	r1, [fp, #-112]	; 0xffffff90
 c004aa0:	e263a007 	rsb	sl, r3, #7
 c004aa4:	e1a01100 	lsl	r1, r0, #2
 c004aa8:	e51b0044 	ldr	r0, [fp, #-68]	; 0xffffffbc
 c004aac:	e50ba048 	str	sl, [fp, #-72]	; 0xffffffb8
 c004ab0:	e51ba04c 	ldr	sl, [fp, #-76]	; 0xffffffb4
 c004ab4:	e50b104c 	str	r1, [fp, #-76]	; 0xffffffb4
 c004ab8:	e1a01100 	lsl	r1, r0, #2
 c004abc:	e51b0048 	ldr	r0, [fp, #-72]	; 0xffffffb8
 c004ac0:	e50b1050 	str	r1, [fp, #-80]	; 0xffffffb0
 c004ac4:	e1a01100 	lsl	r1, r0, #2
 c004ac8:	e0644006 	rsb	r4, r4, r6
 c004acc:	e50b1054 	str	r1, [fp, #-84]	; 0xffffffac
 c004ad0:	e2696007 	rsb	r6, r9, #7
 c004ad4:	e51b1080 	ldr	r1, [fp, #-128]	; 0xffffff80
 c004ad8:	e1a06106 	lsl	r6, r6, #2
 c004adc:	e1a06611 	lsl	r6, r1, r6
 c004ae0:	e2645007 	rsb	r5, r4, #7
 c004ae4:	e1a05105 	lsl	r5, r5, #2
 c004ae8:	e1a05511 	lsl	r5, r1, r5
 c004aec:	e3a0020f 	mov	r0, #-268435456	; 0xf0000000
 c004af0:	e1a04104 	lsl	r4, r4, #2
 c004af4:	e50b6040 	str	r6, [fp, #-64]	; 0xffffffc0
 c004af8:	e1e06430 	mvn	r6, r0, lsr r4
 c004afc:	e26e8007 	rsb	r8, lr, #7
 c004b00:	e26c7007 	rsb	r7, ip, #7
 c004b04:	e1a07107 	lsl	r7, r7, #2
 c004b08:	e1a08108 	lsl	r8, r8, #2
 c004b0c:	e1a08811 	lsl	r8, r1, r8
 c004b10:	e50b5048 	str	r5, [fp, #-72]	; 0xffffffb8
 c004b14:	e1a05711 	lsl	r5, r1, r7
 c004b18:	e1a0e10e 	lsl	lr, lr, #2
 c004b1c:	e1a0c10c 	lsl	ip, ip, #2
 c004b20:	e1e04e30 	mvn	r4, r0, lsr lr
 c004b24:	e50b6044 	str	r6, [fp, #-68]	; 0xffffffbc
 c004b28:	e1e06c30 	mvn	r6, r0, lsr ip
 c004b2c:	e1a0a10a 	lsl	sl, sl, #2
 c004b30:	e51be068 	ldr	lr, [fp, #-104]	; 0xffffff98
 c004b34:	e1a0ca11 	lsl	ip, r1, sl
 c004b38:	e50b805c 	str	r8, [fp, #-92]	; 0xffffffa4
 c004b3c:	e51ba04c 	ldr	sl, [fp, #-76]	; 0xffffffb4
 c004b40:	e51b8070 	ldr	r8, [fp, #-112]	; 0xffffff90
 c004b44:	e50b5064 	str	r5, [fp, #-100]	; 0xffffff9c
 c004b48:	e51b5050 	ldr	r5, [fp, #-80]	; 0xffffffb0
 c004b4c:	e1a02102 	lsl	r2, r2, #2
 c004b50:	e1e07830 	mvn	r7, r0, lsr r8
 c004b54:	e1e02230 	mvn	r2, r0, lsr r2
 c004b58:	e50b4058 	str	r4, [fp, #-88]	; 0xffffffa8
 c004b5c:	e50b6060 	str	r6, [fp, #-96]	; 0xffffffa0
 c004b60:	e1e04e30 	mvn	r4, r0, lsr lr
 c004b64:	e1a06a11 	lsl	r6, r1, sl
 c004b68:	e1a0e511 	lsl	lr, r1, r5
 c004b6c:	e1a03103 	lsl	r3, r3, #2
 c004b70:	e1a09109 	lsl	r9, r9, #2
 c004b74:	e1e09930 	mvn	r9, r0, lsr r9
 c004b78:	e50b4068 	str	r4, [fp, #-104]	; 0xffffff98
 c004b7c:	e50bc06c 	str	ip, [fp, #-108]	; 0xffffff94
 c004b80:	e1e04330 	mvn	r4, r0, lsr r3
 c004b84:	e50b7070 	str	r7, [fp, #-112]	; 0xffffff90
 c004b88:	e50b604c 	str	r6, [fp, #-76]	; 0xffffffb4
 c004b8c:	e50b2074 	str	r2, [fp, #-116]	; 0xffffff8c
 c004b90:	e50be050 	str	lr, [fp, #-80]	; 0xffffffb0
 c004b94:	e51b0054 	ldr	r0, [fp, #-84]	; 0xffffffac
 c004b98:	e1a03011 	lsl	r3, r1, r0
		{
			qm = *(s+i);
			ulOffset = (INT32U)(qm) * 16;		//Here to be changed tomorrow
			for( j = 0; j < 16; j ++ )
			{
				ywbuf[j] = g_auc_Ascii8x16[ulOffset + j];
 c004b9c:	e51bc088 	ldr	ip, [fp, #-136]	; 0xffffff78
 c004ba0:	e59f835c 	ldr	r8, [pc, #860]	; c004f04 <Lcd_DspAscII8x16+0x684>
               	{
                	k = x % 8;
			    	if( ywbuf[y]  & (0x80 >> k) )
			       	{
			       		xx = x0 + x + i*8;
			       		(LCD_PutPixel(xx, y + y0, (INT8U)ForeColor));
 c004ba4:	e50b3054 	str	r3, [fp, #-84]	; 0xffffffac
		{
			qm = *(s+i);
			ulOffset = (INT32U)(qm) * 16;		//Here to be changed tomorrow
			for( j = 0; j < 16; j ++ )
			{
				ywbuf[j] = g_auc_Ascii8x16[ulOffset + j];
 c004ba8:	e088320c 	add	r3, r8, ip, lsl #4
 c004bac:	e5d37001 	ldrb	r7, [r3, #1]
 c004bb0:	e5d3a002 	ldrb	sl, [r3, #2]
 c004bb4:	e5d36003 	ldrb	r6, [r3, #3]
 c004bb8:	e5d32004 	ldrb	r2, [r3, #4]
 c004bbc:	e5d35005 	ldrb	r5, [r3, #5]
 c004bc0:	e7d8820c 	ldrb	r8, [r8, ip, lsl #4]
 c004bc4:	e5d3e006 	ldrb	lr, [r3, #6]
 c004bc8:	e5d31008 	ldrb	r1, [r3, #8]
 c004bcc:	e5d30009 	ldrb	r0, [r3, #9]
 c004bd0:	e5d3c00a 	ldrb	ip, [r3, #10]
               	{
                	k = x % 8;
			    	if( ywbuf[y]  & (0x80 >> k) )
			       	{
			       		xx = x0 + x + i*8;
			       		(LCD_PutPixel(xx, y + y0, (INT8U)ForeColor));
 c004bd4:	e50b4078 	str	r4, [fp, #-120]	; 0xffffff88
		{
			qm = *(s+i);
			ulOffset = (INT32U)(qm) * 16;		//Here to be changed tomorrow
			for( j = 0; j < 16; j ++ )
			{
				ywbuf[j] = g_auc_Ascii8x16[ulOffset + j];
 c004bd8:	e50b7088 	str	r7, [fp, #-136]	; 0xffffff78
 c004bdc:	e5d34007 	ldrb	r4, [r3, #7]
 c004be0:	e5d3700b 	ldrb	r7, [r3, #11]
 c004be4:	e50ba0b4 	str	sl, [fp, #-180]	; 0xffffff4c
 c004be8:	e50b60b8 	str	r6, [fp, #-184]	; 0xffffff48
 c004bec:	e5d3a00c 	ldrb	sl, [r3, #12]
 c004bf0:	e5d3600d 	ldrb	r6, [r3, #13]
 c004bf4:	e50b20bc 	str	r2, [fp, #-188]	; 0xffffff44
 c004bf8:	e50b50c0 	str	r5, [fp, #-192]	; 0xffffff40
 c004bfc:	e5d3200e 	ldrb	r2, [r3, #14]
 c004c00:	e5d3500f 	ldrb	r5, [r3, #15]
 c004c04:	e50be0c4 	str	lr, [fp, #-196]	; 0xffffff3c
 c004c08:	e50b40c8 	str	r4, [fp, #-200]	; 0xffffff38
 c004c0c:	e50b10cc 	str	r1, [fp, #-204]	; 0xffffff34
 c004c10:	e50b00d0 	str	r0, [fp, #-208]	; 0xffffff30
 c004c14:	e50bc0d4 	str	ip, [fp, #-212]	; 0xffffff2c
 c004c18:	e50b70d8 	str	r7, [fp, #-216]	; 0xffffff28
 c004c1c:	e50ba0dc 	str	sl, [fp, #-220]	; 0xffffff24
 c004c20:	e50b60e0 	str	r6, [fp, #-224]	; 0xffffff20
 c004c24:	e50b20e4 	str	r2, [fp, #-228]	; 0xffffff1c
 c004c28:	e50b50e8 	str	r5, [fp, #-232]	; 0xffffff18
               	{
                	k = x % 8;
			    	if( ywbuf[y]  & (0x80 >> k) )
			       	{
			       		xx = x0 + x + i*8;
			       		(LCD_PutPixel(xx, y + y0, (INT8U)ForeColor));
 c004c2c:	e51be0a8 	ldr	lr, [fp, #-168]	; 0xffffff58
 c004c30:	e51b7094 	ldr	r7, [fp, #-148]	; 0xffffff6c
 c004c34:	e51b40a4 	ldr	r4, [fp, #-164]	; 0xffffff5c
 c004c38:	e51b608c 	ldr	r6, [fp, #-140]	; 0xffffff74
 c004c3c:	e28e3007 	add	r3, lr, #7
 c004c40:	e287e007 	add	lr, r7, #7
 c004c44:	e51b70a8 	ldr	r7, [fp, #-168]	; 0xffffff58
 c004c48:	e2842007 	add	r2, r4, #7
 c004c4c:	e2864007 	add	r4, r6, #7
 c004c50:	e51b60a4 	ldr	r6, [fp, #-164]	; 0xffffff5c
 c004c54:	e51b50a0 	ldr	r5, [fp, #-160]	; 0xffffff60
 c004c58:	e3570000 	cmp	r7, #0
 c004c5c:	b1a07003 	movlt	r7, r3
 c004c60:	e24b10a0 	sub	r1, fp, #160	; 0xa0
 c004c64:	e891000a 	ldm	r1, {r1, r3}
 c004c68:	e3560000 	cmp	r6, #0
 c004c6c:	b1a06002 	movlt	r6, r2
 c004c70:	e51b009c 	ldr	r0, [fp, #-156]	; 0xffffff64
 c004c74:	e3550000 	cmp	r5, #0
 c004c78:	e51b2098 	ldr	r2, [fp, #-152]	; 0xffffff68
 c004c7c:	e2811007 	add	r1, r1, #7
 c004c80:	a1a01005 	movge	r1, r5
 c004c84:	e3530000 	cmp	r3, #0
 c004c88:	e2800007 	add	r0, r0, #7
 c004c8c:	e51bc098 	ldr	ip, [fp, #-152]	; 0xffffff68
 c004c90:	a1a00003 	movge	r0, r3
 c004c94:	e24b3094 	sub	r3, fp, #148	; 0x94
 c004c98:	e8930028 	ldm	r3, {r3, r5}
 c004c9c:	e3520000 	cmp	r2, #0
 c004ca0:	e28cc007 	add	ip, ip, #7
 c004ca4:	e51ba090 	ldr	sl, [fp, #-144]	; 0xffffff70
 c004ca8:	a1a0c002 	movge	ip, r2
 c004cac:	e51b208c 	ldr	r2, [fp, #-140]	; 0xffffff74
 c004cb0:	e3530000 	cmp	r3, #0
 c004cb4:	b1a0300e 	movlt	r3, lr
 c004cb8:	e3550000 	cmp	r5, #0
*			pucChar   -- ASCII character string
* ret:		none
* modify:
* comment:		
*********************************************************************************************/
void Lcd_DspAscII8x16(INT16U x0, INT16U y0, INT8U ForeColor, INT8U * s)
 c004cbc:	e51be084 	ldr	lr, [fp, #-132]	; 0xffffff7c
               	{
                	k = x % 8;
			    	if( ywbuf[y]  & (0x80 >> k) )
			       	{
			       		xx = x0 + x + i*8;
			       		(LCD_PutPixel(xx, y + y0, (INT8U)ForeColor));
 c004cc0:	e28aa007 	add	sl, sl, #7
 c004cc4:	a1a0a005 	movge	sl, r5
 c004cc8:	e3520000 	cmp	r2, #0
 c004ccc:	b1a02004 	movlt	r2, r4
*			pucChar   -- ASCII character string
* ret:		none
* modify:
* comment:		
*********************************************************************************************/
void Lcd_DspAscII8x16(INT16U x0, INT16U y0, INT8U ForeColor, INT8U * s)
 c004cd0:	e08e51c1 	add	r5, lr, r1, asr #3
 c004cd4:	e08e41c0 	add	r4, lr, r0, asr #3
 c004cd8:	e08ec1cc 	add	ip, lr, ip, asr #3
 c004cdc:	e08e01ca 	add	r0, lr, sl, asr #3
 c004ce0:	e08e21c2 	add	r2, lr, r2, asr #3
		{
			qm = *(s+i);
			ulOffset = (INT32U)(qm) * 16;		//Here to be changed tomorrow
			for( j = 0; j < 16; j ++ )
			{
				ywbuf[j] = g_auc_Ascii8x16[ulOffset + j];
 c004ce4:	e51ba0b4 	ldr	sl, [fp, #-180]	; 0xffffff4c
 c004ce8:	e51b10bc 	ldr	r1, [fp, #-188]	; 0xffffff44
*			pucChar   -- ASCII character string
* ret:		none
* modify:
* comment:		
*********************************************************************************************/
void Lcd_DspAscII8x16(INT16U x0, INT16U y0, INT8U ForeColor, INT8U * s)
 c004cec:	e08e71c7 	add	r7, lr, r7, asr #3
 c004cf0:	e08e61c6 	add	r6, lr, r6, asr #3
 c004cf4:	e08e31c3 	add	r3, lr, r3, asr #3
		{
			qm = *(s+i);
			ulOffset = (INT32U)(qm) * 16;		//Here to be changed tomorrow
			for( j = 0; j < 16; j ++ )
			{
				ywbuf[j] = g_auc_Ascii8x16[ulOffset + j];
 c004cf8:	e54b803c 	strb	r8, [fp, #-60]	; 0xffffffc4
 c004cfc:	e51be088 	ldr	lr, [fp, #-136]	; 0xffffff78
 c004d00:	e51b80b8 	ldr	r8, [fp, #-184]	; 0xffffff48
 c004d04:	e54be03b 	strb	lr, [fp, #-59]	; 0xffffffc5
 c004d08:	e54ba03a 	strb	sl, [fp, #-58]	; 0xffffffc6
 c004d0c:	e24ba0c4 	sub	sl, fp, #196	; 0xc4
 c004d10:	e89a4400 	ldm	sl, {sl, lr}
 c004d14:	e54b8039 	strb	r8, [fp, #-57]	; 0xffffffc7
 c004d18:	e54b1038 	strb	r1, [fp, #-56]	; 0xffffffc8
 c004d1c:	e24b10cc 	sub	r1, fp, #204	; 0xcc
 c004d20:	e8910102 	ldm	r1, {r1, r8}
 c004d24:	e54be037 	strb	lr, [fp, #-55]	; 0xffffffc9
 c004d28:	e54ba036 	strb	sl, [fp, #-54]	; 0xffffffca
 c004d2c:	e54b8035 	strb	r8, [fp, #-53]	; 0xffffffcb
 c004d30:	e54b1034 	strb	r1, [fp, #-52]	; 0xffffffcc
 c004d34:	e24b80d8 	sub	r8, fp, #216	; 0xd8
 c004d38:	e8984500 	ldm	r8, {r8, sl, lr}
 c004d3c:	e54ba032 	strb	sl, [fp, #-50]	; 0xffffffce
 c004d40:	e51ba0e4 	ldr	sl, [fp, #-228]	; 0xffffff1c
 c004d44:	e51b10dc 	ldr	r1, [fp, #-220]	; 0xffffff24
 c004d48:	e54be033 	strb	lr, [fp, #-51]	; 0xffffffcd
 c004d4c:	e54b8031 	strb	r8, [fp, #-49]	; 0xffffffcf
 c004d50:	e51be0e0 	ldr	lr, [fp, #-224]	; 0xffffff20
 c004d54:	e51b80e8 	ldr	r8, [fp, #-232]	; 0xffffff18
 c004d58:	e54ba02e 	strb	sl, [fp, #-46]	; 0xffffffd2
 c004d5c:	e50b9088 	str	r9, [fp, #-136]	; 0xffffff78
 c004d60:	e54b1030 	strb	r1, [fp, #-48]	; 0xffffffd0
 c004d64:	e54be02f 	strb	lr, [fp, #-47]	; 0xffffffd1
 c004d68:	e54b802d 	strb	r8, [fp, #-45]	; 0xffffffd3
*			pucChar   -- ASCII character string
* ret:		none
* modify:
* comment:		
*********************************************************************************************/
void Lcd_DspAscII8x16(INT16U x0, INT16U y0, INT8U ForeColor, INT8U * s)
 c004d6c:	e1a0e10c 	lsl	lr, ip, #2
 c004d70:	e1a01102 	lsl	r1, r2, #2
 c004d74:	e1a07107 	lsl	r7, r7, #2
 c004d78:	e1a06106 	lsl	r6, r6, #2
 c004d7c:	e1a05105 	lsl	r5, r5, #2
 c004d80:	e1a04104 	lsl	r4, r4, #2
 c004d84:	e1a0c103 	lsl	ip, r3, #2
 c004d88:	e1a00100 	lsl	r0, r0, #2
 c004d8c:	e3a02000 	mov	r2, #0
 c004d90:	e24b803c 	sub	r8, fp, #60	; 0x3c
            for( y = 0; y < 16; y++ )
            {
            	for( x = 0; x < 8; x++ ) 
               	{
                	k = x % 8;
			    	if( ywbuf[y]  & (0x80 >> k) )
 c004d94:	e7d83002 	ldrb	r3, [r8, r2]
 c004d98:	e3130080 	tst	r3, #128	; 0x80
 c004d9c:	0a000005 	beq	c004db8 <Lcd_DspAscII8x16+0x538>
			       	{
			       		xx = x0 + x + i*8;
			       		(LCD_PutPixel(xx, y + y0, (INT8U)ForeColor));
 c004da0:	e51b9088 	ldr	r9, [fp, #-136]	; 0xffffff78
 c004da4:	e591a000 	ldr	sl, [r1]
 c004da8:	e009a00a 	and	sl, r9, sl
 c004dac:	e51b9040 	ldr	r9, [fp, #-64]	; 0xffffffc0
 c004db0:	e189a00a 	orr	sl, r9, sl
 c004db4:	e581a000 	str	sl, [r1]
            for( y = 0; y < 16; y++ )
            {
            	for( x = 0; x < 8; x++ ) 
               	{
                	k = x % 8;
			    	if( ywbuf[y]  & (0x80 >> k) )
 c004db8:	e3130040 	tst	r3, #64	; 0x40
 c004dbc:	0a000005 	beq	c004dd8 <Lcd_DspAscII8x16+0x558>
			       	{
			       		xx = x0 + x + i*8;
			       		(LCD_PutPixel(xx, y + y0, (INT8U)ForeColor));
 c004dc0:	e51b9044 	ldr	r9, [fp, #-68]	; 0xffffffbc
 c004dc4:	e590a000 	ldr	sl, [r0]
 c004dc8:	e009a00a 	and	sl, r9, sl
 c004dcc:	e51b9048 	ldr	r9, [fp, #-72]	; 0xffffffb8
 c004dd0:	e189a00a 	orr	sl, r9, sl
 c004dd4:	e580a000 	str	sl, [r0]
            for( y = 0; y < 16; y++ )
            {
            	for( x = 0; x < 8; x++ ) 
               	{
                	k = x % 8;
			    	if( ywbuf[y]  & (0x80 >> k) )
 c004dd8:	e3130020 	tst	r3, #32
 c004ddc:	0a000005 	beq	c004df8 <Lcd_DspAscII8x16+0x578>
			       	{
			       		xx = x0 + x + i*8;
			       		(LCD_PutPixel(xx, y + y0, (INT8U)ForeColor));
 c004de0:	e51b9058 	ldr	r9, [fp, #-88]	; 0xffffffa8
 c004de4:	e59ca000 	ldr	sl, [ip]
 c004de8:	e009a00a 	and	sl, r9, sl
 c004dec:	e51b905c 	ldr	r9, [fp, #-92]	; 0xffffffa4
 c004df0:	e189a00a 	orr	sl, r9, sl
 c004df4:	e58ca000 	str	sl, [ip]
            for( y = 0; y < 16; y++ )
            {
            	for( x = 0; x < 8; x++ ) 
               	{
                	k = x % 8;
			    	if( ywbuf[y]  & (0x80 >> k) )
 c004df8:	e3130010 	tst	r3, #16
 c004dfc:	0a000005 	beq	c004e18 <Lcd_DspAscII8x16+0x598>
			       	{
			       		xx = x0 + x + i*8;
			       		(LCD_PutPixel(xx, y + y0, (INT8U)ForeColor));
 c004e00:	e51b9060 	ldr	r9, [fp, #-96]	; 0xffffffa0
 c004e04:	e59ea000 	ldr	sl, [lr]
 c004e08:	e009a00a 	and	sl, r9, sl
 c004e0c:	e51b9064 	ldr	r9, [fp, #-100]	; 0xffffff9c
 c004e10:	e189a00a 	orr	sl, r9, sl
 c004e14:	e58ea000 	str	sl, [lr]
            for( y = 0; y < 16; y++ )
            {
            	for( x = 0; x < 8; x++ ) 
               	{
                	k = x % 8;
			    	if( ywbuf[y]  & (0x80 >> k) )
 c004e18:	e3130008 	tst	r3, #8
 c004e1c:	0a000005 	beq	c004e38 <Lcd_DspAscII8x16+0x5b8>
			       	{
			       		xx = x0 + x + i*8;
			       		(LCD_PutPixel(xx, y + y0, (INT8U)ForeColor));
 c004e20:	e51b9068 	ldr	r9, [fp, #-104]	; 0xffffff98
 c004e24:	e594a000 	ldr	sl, [r4]
 c004e28:	e009a00a 	and	sl, r9, sl
 c004e2c:	e51b906c 	ldr	r9, [fp, #-108]	; 0xffffff94
 c004e30:	e189a00a 	orr	sl, r9, sl
 c004e34:	e584a000 	str	sl, [r4]
            for( y = 0; y < 16; y++ )
            {
            	for( x = 0; x < 8; x++ ) 
               	{
                	k = x % 8;
			    	if( ywbuf[y]  & (0x80 >> k) )
 c004e38:	e3130004 	tst	r3, #4
 c004e3c:	0a000005 	beq	c004e58 <Lcd_DspAscII8x16+0x5d8>
			       	{
			       		xx = x0 + x + i*8;
			       		(LCD_PutPixel(xx, y + y0, (INT8U)ForeColor));
 c004e40:	e51b9070 	ldr	r9, [fp, #-112]	; 0xffffff90
 c004e44:	e595a000 	ldr	sl, [r5]
 c004e48:	e009a00a 	and	sl, r9, sl
 c004e4c:	e51b904c 	ldr	r9, [fp, #-76]	; 0xffffffb4
 c004e50:	e189a00a 	orr	sl, r9, sl
 c004e54:	e585a000 	str	sl, [r5]
            for( y = 0; y < 16; y++ )
            {
            	for( x = 0; x < 8; x++ ) 
               	{
                	k = x % 8;
			    	if( ywbuf[y]  & (0x80 >> k) )
 c004e58:	e3130002 	tst	r3, #2
 c004e5c:	0a000005 	beq	c004e78 <Lcd_DspAscII8x16+0x5f8>
			       	{
			       		xx = x0 + x + i*8;
			       		(LCD_PutPixel(xx, y + y0, (INT8U)ForeColor));
 c004e60:	e51b9074 	ldr	r9, [fp, #-116]	; 0xffffff8c
 c004e64:	e596a000 	ldr	sl, [r6]
 c004e68:	e009a00a 	and	sl, r9, sl
 c004e6c:	e51b9050 	ldr	r9, [fp, #-80]	; 0xffffffb0
 c004e70:	e189a00a 	orr	sl, r9, sl
 c004e74:	e586a000 	str	sl, [r6]
            for( y = 0; y < 16; y++ )
            {
            	for( x = 0; x < 8; x++ ) 
               	{
                	k = x % 8;
			    	if( ywbuf[y]  & (0x80 >> k) )
 c004e78:	e3130001 	tst	r3, #1
 c004e7c:	0a000005 	beq	c004e98 <Lcd_DspAscII8x16+0x618>
			       	{
			       		xx = x0 + x + i*8;
			       		(LCD_PutPixel(xx, y + y0, (INT8U)ForeColor));
 c004e80:	e5979000 	ldr	r9, [r7]
 c004e84:	e51b3078 	ldr	r3, [fp, #-120]	; 0xffffff88
 c004e88:	e003a009 	and	sl, r3, r9
 c004e8c:	e51b9054 	ldr	r9, [fp, #-84]	; 0xffffffac
 c004e90:	e189300a 	orr	r3, r9, sl
 c004e94:	e5873000 	str	r3, [r7]
 c004e98:	e2822001 	add	r2, r2, #1
			for( j = 0; j < 16; j ++ )
			{
				ywbuf[j] = g_auc_Ascii8x16[ulOffset + j];
            }

            for( y = 0; y < 16; y++ )
 c004e9c:	e3520010 	cmp	r2, #16
               	{
                	k = x % 8;
			    	if( ywbuf[y]  & (0x80 >> k) )
			       	{
			       		xx = x0 + x + i*8;
			       		(LCD_PutPixel(xx, y + y0, (INT8U)ForeColor));
 c004ea0:	e28770a0 	add	r7, r7, #160	; 0xa0
 c004ea4:	e28660a0 	add	r6, r6, #160	; 0xa0
 c004ea8:	e28550a0 	add	r5, r5, #160	; 0xa0
 c004eac:	e28440a0 	add	r4, r4, #160	; 0xa0
 c004eb0:	e28ee0a0 	add	lr, lr, #160	; 0xa0
 c004eb4:	e28cc0a0 	add	ip, ip, #160	; 0xa0
 c004eb8:	e28000a0 	add	r0, r0, #160	; 0xa0
 c004ebc:	e28110a0 	add	r1, r1, #160	; 0xa0
			for( j = 0; j < 16; j ++ )
			{
				ywbuf[j] = g_auc_Ascii8x16[ulOffset + j];
            }

            for( y = 0; y < 16; y++ )
 c004ec0:	1affffb3 	bne	c004d94 <Lcd_DspAscII8x16+0x514>
 c004ec4:	e51ba07c 	ldr	sl, [fp, #-124]	; 0xffffff84
 c004ec8:	e28a1008 	add	r1, sl, #8
 c004ecc:	e1a0e801 	lsl	lr, r1, #16
 c004ed0:	e51b20ac 	ldr	r2, [fp, #-172]	; 0xffffff54
 c004ed4:	e1a0082e 	lsr	r0, lr, #16
 c004ed8:	e282c001 	add	ip, r2, #1
 c004edc:	e50b007c 	str	r0, [fp, #-124]	; 0xffffff84
 c004ee0:	e51b00b0 	ldr	r0, [fp, #-176]	; 0xffffff50
 c004ee4:	e50bc0ac 	str	ip, [fp, #-172]	; 0xffffff54
	INT16 i,j,k,x,y,xx;
	INT8U qm;
	INT32U ulOffset;
	INT8 ywbuf[16],temp[2];
    
	for( i = 0; i < strlen((const char*)s); i++ )
 c004ee8:	eb0017a7 	bl	c00ad8c <strlen>
 c004eec:	e51b10ac 	ldr	r1, [fp, #-172]	; 0xffffff54
 c004ef0:	e1500001 	cmp	r0, r1
 c004ef4:	8afffe74 	bhi	c0048cc <Lcd_DspAscII8x16+0x4c>
			       	}
			   	}
            }
		}
	}
}
 c004ef8:	e24bd028 	sub	sp, fp, #40	; 0x28
 c004efc:	e89d6ff0 	ldm	sp, {r4, r5, r6, r7, r8, r9, sl, fp, sp, lr}
 c004f00:	e12fff1e 	bx	lr
 c004f04:	0c00b4d0 	.word	0x0c00b4d0

0c004f08 <Lcd_DspAscII6x8>:
* ret:		none
* modify:
* comment:
*********************************************************************************************/
void Lcd_DspAscII6x8(INT16U usX0, INT16U usY0,INT8U ForeColor, INT8U* pucChar)
{
 c004f08:	e92d07f0 	push	{r4, r5, r6, r7, r8, r9, sl}
 c004f0c:	e1a08003 	mov	r8, r3
	INT32U i,j;
	INT8U  ucTemp;

	while( *pucChar != 0 )
 c004f10:	e5d33000 	ldrb	r3, [r3]
* ret:		none
* modify:
* comment:
*********************************************************************************************/
void Lcd_DspAscII6x8(INT16U usX0, INT16U usY0,INT8U ForeColor, INT8U* pucChar)
{
 c004f14:	e24dd024 	sub	sp, sp, #36	; 0x24
	INT32U i,j;
	INT8U  ucTemp;

	while( *pucChar != 0 )
 c004f18:	e3530000 	cmp	r3, #0
* ret:		none
* modify:
* comment:
*********************************************************************************************/
void Lcd_DspAscII6x8(INT16U usX0, INT16U usY0,INT8U ForeColor, INT8U* pucChar)
{
 c004f1c:	e58d0018 	str	r0, [sp, #24]
	INT32U i,j;
	INT8U  ucTemp;

	while( *pucChar != 0 )
 c004f20:	0a0000bc 	beq	c005218 <Lcd_DspAscII6x8+0x310>
  			ucTemp = g_auc_Ascii6x8[(*pucChar) * 8 + i];
  			for( j = 0; j < 8; j++ )
  			{
  				if( (ucTemp & (0x80 >> j)) != 0 )
  				{
  					LCD_PutPixel(usX0 + i, usY0 + 8 - j, (INT8U)ForeColor);
 c004f24:	e241a001 	sub	sl, r1, #1
 c004f28:	e241c002 	sub	ip, r1, #2
 c004f2c:	e2414003 	sub	r4, r1, #3
 c004f30:	e2410004 	sub	r0, r1, #4
 c004f34:	e2415005 	sub	r5, r1, #5
 c004f38:	e2413006 	sub	r3, r1, #6
 c004f3c:	e2417007 	sub	r7, r1, #7
 c004f40:	e08a610a 	add	r6, sl, sl, lsl #2
 c004f44:	e0811101 	add	r1, r1, r1, lsl #2
 c004f48:	e08c910c 	add	r9, ip, ip, lsl #2
 c004f4c:	e084a104 	add	sl, r4, r4, lsl #2
 c004f50:	e080c100 	add	ip, r0, r0, lsl #2
 c004f54:	e0850105 	add	r0, r5, r5, lsl #2
 c004f58:	e0835103 	add	r5, r3, r3, lsl #2
 c004f5c:	e1a0430a 	lsl	r4, sl, #6
 c004f60:	e0873107 	add	r3, r7, r7, lsl #2
 c004f64:	e1a0a30c 	lsl	sl, ip, #6
 c004f68:	e1a07301 	lsl	r7, r1, #6
 c004f6c:	e1a00300 	lsl	r0, r0, #6
 c004f70:	e1a01305 	lsl	r1, r5, #6
 c004f74:	e28acc0a 	add	ip, sl, #2560	; 0xa00
 c004f78:	e2805c0a 	add	r5, r0, #2560	; 0xa00
 c004f7c:	e281ac0a 	add	sl, r1, #2560	; 0xa00
 c004f80:	e1a03303 	lsl	r3, r3, #6
 c004f84:	e2833c0a 	add	r3, r3, #2560	; 0xa00
 c004f88:	e1a000a5 	lsr	r0, r5, #1
 c004f8c:	e1a010aa 	lsr	r1, sl, #1
 c004f90:	e1a06306 	lsl	r6, r6, #6
 c004f94:	e1a09309 	lsl	r9, r9, #6
 c004f98:	e2844c0a 	add	r4, r4, #2560	; 0xa00
 c004f9c:	e1a0c0ac 	lsr	ip, ip, #1
 c004fa0:	e1a050a3 	lsr	r5, r3, #1
 c004fa4:	e28cc6c3 	add	ip, ip, #204472320	; 0xc300000
 c004fa8:	e28006c3 	add	r0, r0, #204472320	; 0xc300000
 c004fac:	e2877c0a 	add	r7, r7, #2560	; 0xa00
 c004fb0:	e2866c0a 	add	r6, r6, #2560	; 0xa00
 c004fb4:	e2899c0a 	add	r9, r9, #2560	; 0xa00
 c004fb8:	e1a040a4 	lsr	r4, r4, #1
 c004fbc:	e28116c3 	add	r1, r1, #204472320	; 0xc300000
 c004fc0:	e28c3c96 	add	r3, ip, #38400	; 0x9600
 c004fc4:	e1a070a7 	lsr	r7, r7, #1
 c004fc8:	e28446c3 	add	r4, r4, #204472320	; 0xc300000
 c004fcc:	e280cc96 	add	ip, r0, #38400	; 0x9600
 c004fd0:	e1a060a6 	lsr	r6, r6, #1
 c004fd4:	e1a090a9 	lsr	r9, r9, #1
 c004fd8:	e28556c3 	add	r5, r5, #204472320	; 0xc300000
 c004fdc:	e2810c96 	add	r0, r1, #38400	; 0x9600
 c004fe0:	e287a6c3 	add	sl, r7, #204472320	; 0xc300000
 c004fe4:	e28666c3 	add	r6, r6, #204472320	; 0xc300000
 c004fe8:	e2847c96 	add	r7, r4, #38400	; 0x9600
 c004fec:	e28996c3 	add	r9, r9, #204472320	; 0xc300000
 c004ff0:	e2854c96 	add	r4, r5, #38400	; 0x9600
 c004ff4:	e58d3008 	str	r3, [sp, #8]
 c004ff8:	e58dc00c 	str	ip, [sp, #12]
 c004ffc:	e58d0010 	str	r0, [sp, #16]
 c005000:	e58d8000 	str	r8, [sp]
 c005004:	e59d3018 	ldr	r3, [sp, #24]
 c005008:	e58d7004 	str	r7, [sp, #4]
 c00500c:	e58d4014 	str	r4, [sp, #20]
 c005010:	e28aac96 	add	sl, sl, #38400	; 0x9600
 c005014:	e2866c96 	add	r6, r6, #38400	; 0x9600
 c005018:	e2899c96 	add	r9, r9, #38400	; 0x9600
 c00501c:	e3a0420f 	mov	r4, #-268435456	; 0xf0000000
 c005020:	e1a07008 	mov	r7, r8
*			pucChar   -- ASCII character string
* ret:		none
* modify:
* comment:
*********************************************************************************************/
void Lcd_DspAscII6x8(INT16U usX0, INT16U usY0,INT8U ForeColor, INT8U* pucChar)
 c005024:	e58d701c 	str	r7, [sp, #28]
  			ucTemp = g_auc_Ascii6x8[(*pucChar) * 8 + i];
  			for( j = 0; j < 8; j++ )
  			{
  				if( (ucTemp & (0x80 >> j)) != 0 )
  				{
  					LCD_PutPixel(usX0 + i, usY0 + 8 - j, (INT8U)ForeColor);
 c005028:	e1e00003 	mvn	r0, r3
* ret:		none
* modify:
* comment:
*********************************************************************************************/
void Lcd_DspAscII6x8(INT16U usX0, INT16U usY0,INT8U ForeColor, INT8U* pucChar)
{
 c00502c:	e3a0c000 	mov	ip, #0

	while( *pucChar != 0 )
	{
		for( i=0; i < 8; i++ )
		{
  			ucTemp = g_auc_Ascii6x8[(*pucChar) * 8 + i];
 c005030:	e59d5000 	ldr	r5, [sp]
 c005034:	e5d57000 	ldrb	r7, [r5]
 c005038:	e08c1187 	add	r1, ip, r7, lsl #3
  			for( j = 0; j < 8; j++ )
  			{
  				if( (ucTemp & (0x80 >> j)) != 0 )
 c00503c:	e59f71e0 	ldr	r7, [pc, #480]	; c005224 <Lcd_DspAscII6x8+0x31c>
 c005040:	e7d71001 	ldrb	r1, [r7, r1]
 c005044:	e3110080 	tst	r1, #128	; 0x80
 c005048:	0a000008 	beq	c005070 <Lcd_DspAscII6x8+0x168>
  				{
  					LCD_PutPixel(usX0 + i, usY0 + 8 - j, (INT8U)ForeColor);
 c00504c:	e1a051a3 	lsr	r5, r3, #3
 c005050:	e79a8105 	ldr	r8, [sl, r5, lsl #2]
 c005054:	e2037007 	and	r7, r3, #7
 c005058:	e1a07107 	lsl	r7, r7, #2
 c00505c:	e1c87734 	bic	r7, r8, r4, lsr r7
 c005060:	e2008007 	and	r8, r0, #7
 c005064:	e1a08108 	lsl	r8, r8, #2
 c005068:	e1877812 	orr	r7, r7, r2, lsl r8
 c00506c:	e78a7105 	str	r7, [sl, r5, lsl #2]
		for( i=0; i < 8; i++ )
		{
  			ucTemp = g_auc_Ascii6x8[(*pucChar) * 8 + i];
  			for( j = 0; j < 8; j++ )
  			{
  				if( (ucTemp & (0x80 >> j)) != 0 )
 c005070:	e3110040 	tst	r1, #64	; 0x40
 c005074:	0a000008 	beq	c00509c <Lcd_DspAscII6x8+0x194>
  				{
  					LCD_PutPixel(usX0 + i, usY0 + 8 - j, (INT8U)ForeColor);
 c005078:	e1a051a3 	lsr	r5, r3, #3
 c00507c:	e7968105 	ldr	r8, [r6, r5, lsl #2]
 c005080:	e2037007 	and	r7, r3, #7
 c005084:	e1a07107 	lsl	r7, r7, #2
 c005088:	e1c87734 	bic	r7, r8, r4, lsr r7
 c00508c:	e2008007 	and	r8, r0, #7
 c005090:	e1a08108 	lsl	r8, r8, #2
 c005094:	e1877812 	orr	r7, r7, r2, lsl r8
 c005098:	e7867105 	str	r7, [r6, r5, lsl #2]
		for( i=0; i < 8; i++ )
		{
  			ucTemp = g_auc_Ascii6x8[(*pucChar) * 8 + i];
  			for( j = 0; j < 8; j++ )
  			{
  				if( (ucTemp & (0x80 >> j)) != 0 )
 c00509c:	e3110020 	tst	r1, #32
 c0050a0:	0a000008 	beq	c0050c8 <Lcd_DspAscII6x8+0x1c0>
  				{
  					LCD_PutPixel(usX0 + i, usY0 + 8 - j, (INT8U)ForeColor);
 c0050a4:	e1a051a3 	lsr	r5, r3, #3
 c0050a8:	e7998105 	ldr	r8, [r9, r5, lsl #2]
 c0050ac:	e2037007 	and	r7, r3, #7
 c0050b0:	e1a07107 	lsl	r7, r7, #2
 c0050b4:	e1c87734 	bic	r7, r8, r4, lsr r7
 c0050b8:	e2008007 	and	r8, r0, #7
 c0050bc:	e1a08108 	lsl	r8, r8, #2
 c0050c0:	e1877812 	orr	r7, r7, r2, lsl r8
 c0050c4:	e7897105 	str	r7, [r9, r5, lsl #2]
		for( i=0; i < 8; i++ )
		{
  			ucTemp = g_auc_Ascii6x8[(*pucChar) * 8 + i];
  			for( j = 0; j < 8; j++ )
  			{
  				if( (ucTemp & (0x80 >> j)) != 0 )
 c0050c8:	e3110010 	tst	r1, #16
 c0050cc:	0a00000a 	beq	c0050fc <Lcd_DspAscII6x8+0x1f4>
  				{
  					LCD_PutPixel(usX0 + i, usY0 + 8 - j, (INT8U)ForeColor);
 c0050d0:	e59d8004 	ldr	r8, [sp, #4]
 c0050d4:	e1a051a3 	lsr	r5, r3, #3
 c0050d8:	e7988105 	ldr	r8, [r8, r5, lsl #2]
 c0050dc:	e2037007 	and	r7, r3, #7
 c0050e0:	e1a07107 	lsl	r7, r7, #2
 c0050e4:	e1c87734 	bic	r7, r8, r4, lsr r7
 c0050e8:	e2008007 	and	r8, r0, #7
 c0050ec:	e1a08108 	lsl	r8, r8, #2
 c0050f0:	e1877812 	orr	r7, r7, r2, lsl r8
 c0050f4:	e59d8004 	ldr	r8, [sp, #4]
 c0050f8:	e7887105 	str	r7, [r8, r5, lsl #2]
		for( i=0; i < 8; i++ )
		{
  			ucTemp = g_auc_Ascii6x8[(*pucChar) * 8 + i];
  			for( j = 0; j < 8; j++ )
  			{
  				if( (ucTemp & (0x80 >> j)) != 0 )
 c0050fc:	e3110008 	tst	r1, #8
 c005100:	0a00000a 	beq	c005130 <Lcd_DspAscII6x8+0x228>
  				{
  					LCD_PutPixel(usX0 + i, usY0 + 8 - j, (INT8U)ForeColor);
 c005104:	e59d8008 	ldr	r8, [sp, #8]
 c005108:	e1a051a3 	lsr	r5, r3, #3
 c00510c:	e7988105 	ldr	r8, [r8, r5, lsl #2]
 c005110:	e2037007 	and	r7, r3, #7
 c005114:	e1a07107 	lsl	r7, r7, #2
 c005118:	e1c87734 	bic	r7, r8, r4, lsr r7
 c00511c:	e2008007 	and	r8, r0, #7
 c005120:	e1a08108 	lsl	r8, r8, #2
 c005124:	e1877812 	orr	r7, r7, r2, lsl r8
 c005128:	e59d8008 	ldr	r8, [sp, #8]
 c00512c:	e7887105 	str	r7, [r8, r5, lsl #2]
		for( i=0; i < 8; i++ )
		{
  			ucTemp = g_auc_Ascii6x8[(*pucChar) * 8 + i];
  			for( j = 0; j < 8; j++ )
  			{
  				if( (ucTemp & (0x80 >> j)) != 0 )
 c005130:	e3110004 	tst	r1, #4
 c005134:	0a00000a 	beq	c005164 <Lcd_DspAscII6x8+0x25c>
  				{
  					LCD_PutPixel(usX0 + i, usY0 + 8 - j, (INT8U)ForeColor);
 c005138:	e59d800c 	ldr	r8, [sp, #12]
 c00513c:	e1a051a3 	lsr	r5, r3, #3
 c005140:	e7988105 	ldr	r8, [r8, r5, lsl #2]
 c005144:	e2037007 	and	r7, r3, #7
 c005148:	e1a07107 	lsl	r7, r7, #2
 c00514c:	e1c87734 	bic	r7, r8, r4, lsr r7
 c005150:	e2008007 	and	r8, r0, #7
 c005154:	e1a08108 	lsl	r8, r8, #2
 c005158:	e1877812 	orr	r7, r7, r2, lsl r8
 c00515c:	e59d800c 	ldr	r8, [sp, #12]
 c005160:	e7887105 	str	r7, [r8, r5, lsl #2]
		for( i=0; i < 8; i++ )
		{
  			ucTemp = g_auc_Ascii6x8[(*pucChar) * 8 + i];
  			for( j = 0; j < 8; j++ )
  			{
  				if( (ucTemp & (0x80 >> j)) != 0 )
 c005164:	e3110002 	tst	r1, #2
 c005168:	0a00000a 	beq	c005198 <Lcd_DspAscII6x8+0x290>
  				{
  					LCD_PutPixel(usX0 + i, usY0 + 8 - j, (INT8U)ForeColor);
 c00516c:	e59d8010 	ldr	r8, [sp, #16]
 c005170:	e1a051a3 	lsr	r5, r3, #3
 c005174:	e7988105 	ldr	r8, [r8, r5, lsl #2]
 c005178:	e2037007 	and	r7, r3, #7
 c00517c:	e1a07107 	lsl	r7, r7, #2
 c005180:	e1c87734 	bic	r7, r8, r4, lsr r7
 c005184:	e2008007 	and	r8, r0, #7
 c005188:	e1a08108 	lsl	r8, r8, #2
 c00518c:	e1877812 	orr	r7, r7, r2, lsl r8
 c005190:	e59d8010 	ldr	r8, [sp, #16]
 c005194:	e7887105 	str	r7, [r8, r5, lsl #2]
		for( i=0; i < 8; i++ )
		{
  			ucTemp = g_auc_Ascii6x8[(*pucChar) * 8 + i];
  			for( j = 0; j < 8; j++ )
  			{
  				if( (ucTemp & (0x80 >> j)) != 0 )
 c005198:	e3110001 	tst	r1, #1
 c00519c:	0a00000a 	beq	c0051cc <Lcd_DspAscII6x8+0x2c4>
  				{
  					LCD_PutPixel(usX0 + i, usY0 + 8 - j, (INT8U)ForeColor);
 c0051a0:	e59d5014 	ldr	r5, [sp, #20]
 c0051a4:	e1a011a3 	lsr	r1, r3, #3
 c0051a8:	e7957101 	ldr	r7, [r5, r1, lsl #2]
 c0051ac:	e2038007 	and	r8, r3, #7
 c0051b0:	e1a05108 	lsl	r5, r8, #2
 c0051b4:	e1c75534 	bic	r5, r7, r4, lsr r5
 c0051b8:	e2008007 	and	r8, r0, #7
 c0051bc:	e1a07108 	lsl	r7, r8, #2
 c0051c0:	e1855712 	orr	r5, r5, r2, lsl r7
 c0051c4:	e59d7014 	ldr	r7, [sp, #20]
 c0051c8:	e7875101 	str	r5, [r7, r1, lsl #2]
	INT32U i,j;
	INT8U  ucTemp;

	while( *pucChar != 0 )
	{
		for( i=0; i < 8; i++ )
 c0051cc:	e28cc001 	add	ip, ip, #1
 c0051d0:	e35c0008 	cmp	ip, #8
 c0051d4:	e2833001 	add	r3, r3, #1
 c0051d8:	e2400001 	sub	r0, r0, #1
 c0051dc:	1affff93 	bne	c005030 <Lcd_DspAscII6x8+0x128>
void Lcd_DspAscII6x8(INT16U usX0, INT16U usY0,INT8U ForeColor, INT8U* pucChar)
{
	INT32U i,j;
	INT8U  ucTemp;

	while( *pucChar != 0 )
 c0051e0:	e59d801c 	ldr	r8, [sp, #28]
	{
		for( i=0; i < 8; i++ )
 c0051e4:	e59dc000 	ldr	ip, [sp]
void Lcd_DspAscII6x8(INT16U usX0, INT16U usY0,INT8U ForeColor, INT8U* pucChar)
{
	INT32U i,j;
	INT8U  ucTemp;

	while( *pucChar != 0 )
 c0051e8:	e5d83001 	ldrb	r3, [r8, #1]
	{
		for( i=0; i < 8; i++ )
 c0051ec:	e28c0001 	add	r0, ip, #1
void Lcd_DspAscII6x8(INT16U usX0, INT16U usY0,INT8U ForeColor, INT8U* pucChar)
{
	INT32U i,j;
	INT8U  ucTemp;

	while( *pucChar != 0 )
 c0051f0:	e3530000 	cmp	r3, #0
	{
		for( i=0; i < 8; i++ )
 c0051f4:	e58d0000 	str	r0, [sp]
void Lcd_DspAscII6x8(INT16U usX0, INT16U usY0,INT8U ForeColor, INT8U* pucChar)
{
	INT32U i,j;
	INT8U  ucTemp;

	while( *pucChar != 0 )
 c0051f8:	0a000006 	beq	c005218 <Lcd_DspAscII6x8+0x310>
  				{
  					LCD_PutPixel(usX0 + i, usY0 + 8 - j, (INT8U)ForeColor);
  				}
  			}
		}
		usX0 += XWIDTH;
 c0051fc:	e59d8018 	ldr	r8, [sp, #24]
 c005200:	e2887006 	add	r7, r8, #6
 c005204:	e1a01807 	lsl	r1, r7, #16
 c005208:	e1a03821 	lsr	r3, r1, #16
 c00520c:	e58d3018 	str	r3, [sp, #24]
 c005210:	e59d7000 	ldr	r7, [sp]
 c005214:	eaffff82 	b	c005024 <Lcd_DspAscII6x8+0x11c>
		pucChar++;
	}
}
 c005218:	e28dd024 	add	sp, sp, #36	; 0x24
 c00521c:	e8bd07f0 	pop	{r4, r5, r6, r7, r8, r9, sl}
 c005220:	e12fff1e 	bx	lr
 c005224:	0c00b0d0 	.word	0x0c00b0d0

0c005228 <ReverseLine>:
*********************************************************************************************/
void ReverseLine(INT32U ulHeight, INT32U ulY)
{
	INT32U i, j, temp;
	
	for( i = 0; i < ulHeight; i++ )
 c005228:	e3500000 	cmp	r0, #0
			temp = *(INT32U*)(LCD_VIRTUAL_BUFFER + (ulY+i)*SCR_XSIZE/2 + j*4);
			temp ^= 0xFFFFFFFF;
			*(INT32U*)(LCD_VIRTUAL_BUFFER + (ulY+i)*SCR_XSIZE/2 + j*4) = temp;
		}
	}
}
 c00522c:	10811101 	addne	r1, r1, r1, lsl #2
* ret:		none
* modify:
* comment:		
*********************************************************************************************/
void ReverseLine(INT32U ulHeight, INT32U ulY)
{
 c005230:	e92d0030 	push	{r4, r5}
			temp = *(INT32U*)(LCD_VIRTUAL_BUFFER + (ulY+i)*SCR_XSIZE/2 + j*4);
			temp ^= 0xFFFFFFFF;
			*(INT32U*)(LCD_VIRTUAL_BUFFER + (ulY+i)*SCR_XSIZE/2 + j*4) = temp;
		}
	}
}
 c005234:	11a05301 	lslne	r5, r1, #6
*********************************************************************************************/
void ReverseLine(INT32U ulHeight, INT32U ulY)
{
	INT32U i, j, temp;
	
	for( i = 0; i < ulHeight; i++ )
 c005238:	13a04000 	movne	r4, #0
 c00523c:	0a000018 	beq	c0052a4 <ReverseLine+0x7c>
			temp = *(INT32U*)(LCD_VIRTUAL_BUFFER + (ulY+i)*SCR_XSIZE/2 + j*4);
			temp ^= 0xFFFFFFFF;
			*(INT32U*)(LCD_VIRTUAL_BUFFER + (ulY+i)*SCR_XSIZE/2 + j*4) = temp;
		}
	}
}
 c005240:	e1a020a5 	lsr	r2, r5, #1
*			ulY -- line's Y-coordinate
* ret:		none
* modify:
* comment:		
*********************************************************************************************/
void ReverseLine(INT32U ulHeight, INT32U ulY)
 c005244:	e59fc060 	ldr	ip, [pc, #96]	; c0052ac <ReverseLine+0x84>
			temp = *(INT32U*)(LCD_VIRTUAL_BUFFER + (ulY+i)*SCR_XSIZE/2 + j*4);
			temp ^= 0xFFFFFFFF;
			*(INT32U*)(LCD_VIRTUAL_BUFFER + (ulY+i)*SCR_XSIZE/2 + j*4) = temp;
		}
	}
}
 c005248:	e28236c3 	add	r3, r2, #204472320	; 0xc300000
 c00524c:	e2833c96 	add	r3, r3, #38400	; 0x9600
*			ulY -- line's Y-coordinate
* ret:		none
* modify:
* comment:		
*********************************************************************************************/
void ReverseLine(INT32U ulHeight, INT32U ulY)
 c005250:	e082c00c 	add	ip, r2, ip
	
	for( i = 0; i < ulHeight; i++ )
	{
		for( j = 0; j < (SCR_XSIZE/4/2) ; j++ )
		{
			temp = *(INT32U*)(LCD_VIRTUAL_BUFFER + (ulY+i)*SCR_XSIZE/2 + j*4);
 c005254:	e5931000 	ldr	r1, [r3]
 c005258:	e1a02003 	mov	r2, r3
			temp ^= 0xFFFFFFFF;
 c00525c:	e1e01001 	mvn	r1, r1
			*(INT32U*)(LCD_VIRTUAL_BUFFER + (ulY+i)*SCR_XSIZE/2 + j*4) = temp;
 c005260:	e4821004 	str	r1, [r2], #4
	
	for( i = 0; i < ulHeight; i++ )
	{
		for( j = 0; j < (SCR_XSIZE/4/2) ; j++ )
		{
			temp = *(INT32U*)(LCD_VIRTUAL_BUFFER + (ulY+i)*SCR_XSIZE/2 + j*4);
 c005264:	e5931004 	ldr	r1, [r3, #4]
			temp ^= 0xFFFFFFFF;
 c005268:	e1e01001 	mvn	r1, r1
			*(INT32U*)(LCD_VIRTUAL_BUFFER + (ulY+i)*SCR_XSIZE/2 + j*4) = temp;
 c00526c:	e5821000 	str	r1, [r2]
	
	for( i = 0; i < ulHeight; i++ )
	{
		for( j = 0; j < (SCR_XSIZE/4/2) ; j++ )
		{
			temp = *(INT32U*)(LCD_VIRTUAL_BUFFER + (ulY+i)*SCR_XSIZE/2 + j*4);
 c005270:	e5921004 	ldr	r1, [r2, #4]
 c005274:	e593200c 	ldr	r2, [r3, #12]
			temp ^= 0xFFFFFFFF;
 c005278:	e1e01001 	mvn	r1, r1
			*(INT32U*)(LCD_VIRTUAL_BUFFER + (ulY+i)*SCR_XSIZE/2 + j*4) = temp;
 c00527c:	e5831008 	str	r1, [r3, #8]
	
	for( i = 0; i < ulHeight; i++ )
	{
		for( j = 0; j < (SCR_XSIZE/4/2) ; j++ )
		{
			temp = *(INT32U*)(LCD_VIRTUAL_BUFFER + (ulY+i)*SCR_XSIZE/2 + j*4);
 c005280:	e2833010 	add	r3, r3, #16
			temp ^= 0xFFFFFFFF;
 c005284:	e1e02002 	mvn	r2, r2
{
	INT32U i, j, temp;
	
	for( i = 0; i < ulHeight; i++ )
	{
		for( j = 0; j < (SCR_XSIZE/4/2) ; j++ )
 c005288:	e153000c 	cmp	r3, ip
		{
			temp = *(INT32U*)(LCD_VIRTUAL_BUFFER + (ulY+i)*SCR_XSIZE/2 + j*4);
			temp ^= 0xFFFFFFFF;
			*(INT32U*)(LCD_VIRTUAL_BUFFER + (ulY+i)*SCR_XSIZE/2 + j*4) = temp;
 c00528c:	e5032004 	str	r2, [r3, #-4]
{
	INT32U i, j, temp;
	
	for( i = 0; i < ulHeight; i++ )
	{
		for( j = 0; j < (SCR_XSIZE/4/2) ; j++ )
 c005290:	1affffef 	bne	c005254 <ReverseLine+0x2c>
*********************************************************************************************/
void ReverseLine(INT32U ulHeight, INT32U ulY)
{
	INT32U i, j, temp;
	
	for( i = 0; i < ulHeight; i++ )
 c005294:	e2844001 	add	r4, r4, #1
 c005298:	e1540000 	cmp	r4, r0
 c00529c:	e2855d05 	add	r5, r5, #320	; 0x140
 c0052a0:	1affffe6 	bne	c005240 <ReverseLine+0x18>
			temp = *(INT32U*)(LCD_VIRTUAL_BUFFER + (ulY+i)*SCR_XSIZE/2 + j*4);
			temp ^= 0xFFFFFFFF;
			*(INT32U*)(LCD_VIRTUAL_BUFFER + (ulY+i)*SCR_XSIZE/2 + j*4) = temp;
		}
	}
}
 c0052a4:	e8bd0030 	pop	{r4, r5}
 c0052a8:	e12fff1e 	bx	lr
 c0052ac:	0c3096a0 	.word	0x0c3096a0

0c0052b0 <Lcd_Dma_Trans>:
	//#define LCD_VIRTUAL_BUFFER	(0xc400000)
	//#define LCD_ACTIVE_BUFFER	(LCD_VIRTUAL_BUFFER+(SCR_XSIZE*SCR_YSIZE/2))	//DMA ON
	//#define LCD_ACTIVE_BUFFER	LCD_VIRTUAL_BUFFER								//DMA OFF
	//#define LCD_BUF_SIZE		(SCR_XSIZE*SCR_YSIZE/2)
	//So the Lcd Buffer Low area is from LCD_VIRTUAL_BUFFER to (LCD_ACTIVE_BUFFER+(SCR_XSIZE*SCR_YSIZE/2))
	rNCACHBE1=(((unsigned)(LCD_ACTIVE_BUFFER)>>12) <<16 )|((unsigned)(LCD_VIRTUAL_BUFFER)>>12);
 c0052b0:	e59f1038 	ldr	r1, [pc, #56]	; c0052f0 <Lcd_Dma_Trans+0x40>
 c0052b4:	e3a0c507 	mov	ip, #29360128	; 0x1c00000
 c0052b8:	e58c1008 	str	r1, [ip, #8]
  	rZDISRC0=(DW<<30)|(1<<28)     |LCD_VIRTUAL_BUFFER; // inc
 c0052bc:	e59f0030 	ldr	r0, [pc, #48]	; c0052f4 <Lcd_Dma_Trans+0x44>
  	rZDIDES0=( 2<<30)|(1<<28)     |LCD_ACTIVE_BUFFER; // inc
 c0052c0:	e59f2030 	ldr	r2, [pc, #48]	; c0052f8 <Lcd_Dma_Trans+0x48>
    rZDICNT0=( 2<<28)|(1<<26)     |(3<<22)     |(0<<20)      |(LCD_BUF_SIZE);
 c0052c4:	e59fc030 	ldr	ip, [pc, #48]	; c0052fc <Lcd_Dma_Trans+0x4c>
	//#define LCD_ACTIVE_BUFFER	(LCD_VIRTUAL_BUFFER+(SCR_XSIZE*SCR_YSIZE/2))	//DMA ON
	//#define LCD_ACTIVE_BUFFER	LCD_VIRTUAL_BUFFER								//DMA OFF
	//#define LCD_BUF_SIZE		(SCR_XSIZE*SCR_YSIZE/2)
	//So the Lcd Buffer Low area is from LCD_VIRTUAL_BUFFER to (LCD_ACTIVE_BUFFER+(SCR_XSIZE*SCR_YSIZE/2))
	rNCACHBE1=(((unsigned)(LCD_ACTIVE_BUFFER)>>12) <<16 )|((unsigned)(LCD_VIRTUAL_BUFFER)>>12);
  	rZDISRC0=(DW<<30)|(1<<28)     |LCD_VIRTUAL_BUFFER; // inc
 c0052c8:	e3a0377a 	mov	r3, #31981568	; 0x1e80000
 c0052cc:	e5830004 	str	r0, [r3, #4]
  	rZDIDES0=( 2<<30)|(1<<28)     |LCD_ACTIVE_BUFFER; // inc
 c0052d0:	e5832008 	str	r2, [r3, #8]
    rZDICNT0=( 2<<28)|(1<<26)     |(3<<22)     |(0<<20)      |(LCD_BUF_SIZE);
 c0052d4:	e583c00c 	str	ip, [r3, #12]
        //           |            |            |             |------------>Int. whenever transferred
        //           |            |            |-------------------->Write time on the fly
        //           |            |---------------------------->Block(4-word) transfer mode
        //           |------------------------------------>whole service
	    //reEnable ZDMA transfer
  	rZDICNT0 |= (1<<20);		//after ES3
 c0052d8:	e593100c 	ldr	r1, [r3, #12]
    rZDCON0=0x1; // start!!!  
 c0052dc:	e3a02001 	mov	r2, #1
        //           |            |            |             |------------>Int. whenever transferred
        //           |            |            |-------------------->Write time on the fly
        //           |            |---------------------------->Block(4-word) transfer mode
        //           |------------------------------------>whole service
	    //reEnable ZDMA transfer
  	rZDICNT0 |= (1<<20);		//after ES3
 c0052e0:	e3810601 	orr	r0, r1, #1048576	; 0x100000
 c0052e4:	e583000c 	str	r0, [r3, #12]
    rZDCON0=0x1; // start!!!  
 c0052e8:	e5832000 	str	r2, [r3]

	//Delay(500);
	//while(ucZdma0Done);		//wait for DMA finish
}
 c0052ec:	e12fff1e 	bx	lr
 c0052f0:	c300c309 	.word	0xc300c309
 c0052f4:	1c309600 	.word	0x1c309600
 c0052f8:	9c300000 	.word	0x9c300000
 c0052fc:	24c09600 	.word	0x24c09600

0c005300 <leds_on>:
void Led_Display(int LedStatus)
{
	led_state = LedStatus;

	if ((LedStatus & 0x01) == 0x01)
		rPDATB = rPDATB & 0x5ff; /* poner a 0 el bit 9 del puerto B */
 c005300:	e59f302c 	ldr	r3, [pc, #44]	; c005334 <leds_on+0x34>
 c005304:	e59fc02c 	ldr	ip, [pc, #44]	; c005338 <leds_on+0x38>
 c005308:	e593100c 	ldr	r1, [r3, #12]
 c00530c:	e001000c 	and	r0, r1, ip
 c005310:	e583000c 	str	r0, [r3, #12]
	else
		rPDATB = rPDATB | 0x200; /* poner a 1 el bit 9 del puerto B */

	if ((LedStatus & 0x02) == 0x02)
		rPDATB = rPDATB & 0x3ff; /* poner a 0 el bit 10 del puerto B */
 c005314:	e593200c 	ldr	r2, [r3, #12]

}

void Led_Display(int LedStatus)
{
	led_state = LedStatus;
 c005318:	e59f101c 	ldr	r1, [pc, #28]	; c00533c <leds_on+0x3c>
		rPDATB = rPDATB & 0x5ff; /* poner a 0 el bit 9 del puerto B */
	else
		rPDATB = rPDATB | 0x200; /* poner a 1 el bit 9 del puerto B */

	if ((LedStatus & 0x02) == 0x02)
		rPDATB = rPDATB & 0x3ff; /* poner a 0 el bit 10 del puerto B */
 c00531c:	e1a0cb02 	lsl	ip, r2, #22
 c005320:	e1a02b2c 	lsr	r2, ip, #22

}

void Led_Display(int LedStatus)
{
	led_state = LedStatus;
 c005324:	e3a00003 	mov	r0, #3
 c005328:	e5810000 	str	r0, [r1]
		rPDATB = rPDATB & 0x5ff; /* poner a 0 el bit 9 del puerto B */
	else
		rPDATB = rPDATB | 0x200; /* poner a 1 el bit 9 del puerto B */

	if ((LedStatus & 0x02) == 0x02)
		rPDATB = rPDATB & 0x3ff; /* poner a 0 el bit 10 del puerto B */
 c00532c:	e583200c 	str	r2, [r3, #12]

/*--- codigo de las funciones ---*/
void leds_on()
{
	Led_Display(0x3);
}
 c005330:	e12fff1e 	bx	lr
 c005334:	01d20000 	.word	0x01d20000
 c005338:	000005ff 	.word	0x000005ff
 c00533c:	0c00cdf4 	.word	0x0c00cdf4

0c005340 <leds_off>:
	led_state = LedStatus;

	if ((LedStatus & 0x01) == 0x01)
		rPDATB = rPDATB & 0x5ff; /* poner a 0 el bit 9 del puerto B */
	else
		rPDATB = rPDATB | 0x200; /* poner a 1 el bit 9 del puerto B */
 c005340:	e59f3024 	ldr	r3, [pc, #36]	; c00536c <leds_off+0x2c>
 c005344:	e593000c 	ldr	r0, [r3, #12]
 c005348:	e3802c02 	orr	r2, r0, #512	; 0x200
 c00534c:	e583200c 	str	r2, [r3, #12]

	if ((LedStatus & 0x02) == 0x02)
		rPDATB = rPDATB & 0x3ff; /* poner a 0 el bit 10 del puerto B */
	else
		rPDATB = rPDATB | 0x400; /* poner a 1 el bit 10 del puerto B */
 c005350:	e593c00c 	ldr	ip, [r3, #12]

}

void Led_Display(int LedStatus)
{
	led_state = LedStatus;
 c005354:	e59f1014 	ldr	r1, [pc, #20]	; c005370 <leds_off+0x30>
		rPDATB = rPDATB | 0x200; /* poner a 1 el bit 9 del puerto B */

	if ((LedStatus & 0x02) == 0x02)
		rPDATB = rPDATB & 0x3ff; /* poner a 0 el bit 10 del puerto B */
	else
		rPDATB = rPDATB | 0x400; /* poner a 1 el bit 10 del puerto B */
 c005358:	e38c2b01 	orr	r2, ip, #1024	; 0x400

}

void Led_Display(int LedStatus)
{
	led_state = LedStatus;
 c00535c:	e3a00000 	mov	r0, #0
 c005360:	e5810000 	str	r0, [r1]
		rPDATB = rPDATB | 0x200; /* poner a 1 el bit 9 del puerto B */

	if ((LedStatus & 0x02) == 0x02)
		rPDATB = rPDATB & 0x3ff; /* poner a 0 el bit 10 del puerto B */
	else
		rPDATB = rPDATB | 0x400; /* poner a 1 el bit 10 del puerto B */
 c005364:	e583200c 	str	r2, [r3, #12]
}

void leds_off()
{
	Led_Display(0x0);
}
 c005368:	e12fff1e 	bx	lr
 c00536c:	01d20000 	.word	0x01d20000
 c005370:	0c00cdf4 	.word	0x0c00cdf4

0c005374 <led1_on>:
void Led_Display(int LedStatus)
{
	led_state = LedStatus;

	if ((LedStatus & 0x01) == 0x01)
		rPDATB = rPDATB & 0x5ff; /* poner a 0 el bit 9 del puerto B */
 c005374:	e59f3038 	ldr	r3, [pc, #56]	; c0053b4 <led1_on+0x40>
	Led_Display(0x0);
}

void led1_on()
{
	led_state = led_state | 0x1;
 c005378:	e59f1038 	ldr	r1, [pc, #56]	; c0053b8 <led1_on+0x44>
void Led_Display(int LedStatus)
{
	led_state = LedStatus;

	if ((LedStatus & 0x01) == 0x01)
		rPDATB = rPDATB & 0x5ff; /* poner a 0 el bit 9 del puerto B */
 c00537c:	e593c00c 	ldr	ip, [r3, #12]
	Led_Display(0x0);
}

void led1_on()
{
	led_state = led_state | 0x1;
 c005380:	e5910000 	ldr	r0, [r1]
void Led_Display(int LedStatus)
{
	led_state = LedStatus;

	if ((LedStatus & 0x01) == 0x01)
		rPDATB = rPDATB & 0x5ff; /* poner a 0 el bit 9 del puerto B */
 c005384:	e59f2030 	ldr	r2, [pc, #48]	; c0053bc <led1_on+0x48>
	Led_Display(0x0);
}

void led1_on()
{
	led_state = led_state | 0x1;
 c005388:	e3800001 	orr	r0, r0, #1
void Led_Display(int LedStatus)
{
	led_state = LedStatus;

	if ((LedStatus & 0x01) == 0x01)
		rPDATB = rPDATB & 0x5ff; /* poner a 0 el bit 9 del puerto B */
 c00538c:	e00cc002 	and	ip, ip, r2
	Led_Display(0x0);
}

void led1_on()
{
	led_state = led_state | 0x1;
 c005390:	e5810000 	str	r0, [r1]
void Led_Display(int LedStatus)
{
	led_state = LedStatus;

	if ((LedStatus & 0x01) == 0x01)
		rPDATB = rPDATB & 0x5ff; /* poner a 0 el bit 9 del puerto B */
 c005394:	e583c00c 	str	ip, [r3, #12]
	else
		rPDATB = rPDATB | 0x200; /* poner a 1 el bit 9 del puerto B */

	if ((LedStatus & 0x02) == 0x02)
		rPDATB = rPDATB & 0x3ff; /* poner a 0 el bit 10 del puerto B */
 c005398:	e593200c 	ldr	r2, [r3, #12]
	if ((LedStatus & 0x01) == 0x01)
		rPDATB = rPDATB & 0x5ff; /* poner a 0 el bit 9 del puerto B */
	else
		rPDATB = rPDATB | 0x200; /* poner a 1 el bit 9 del puerto B */

	if ((LedStatus & 0x02) == 0x02)
 c00539c:	e3100002 	tst	r0, #2
		rPDATB = rPDATB & 0x3ff; /* poner a 0 el bit 10 del puerto B */
 c0053a0:	11a02b02 	lslne	r2, r2, #22
 c0053a4:	11a02b22 	lsrne	r2, r2, #22
	else
		rPDATB = rPDATB | 0x400; /* poner a 1 el bit 10 del puerto B */
 c0053a8:	03822b01 	orreq	r2, r2, #1024	; 0x400
 c0053ac:	e583200c 	str	r2, [r3, #12]
 c0053b0:	e12fff1e 	bx	lr
 c0053b4:	01d20000 	.word	0x01d20000
 c0053b8:	0c00cdf4 	.word	0x0c00cdf4
 c0053bc:	000005ff 	.word	0x000005ff

0c0053c0 <led1_off>:
	led_state = LedStatus;

	if ((LedStatus & 0x01) == 0x01)
		rPDATB = rPDATB & 0x5ff; /* poner a 0 el bit 9 del puerto B */
	else
		rPDATB = rPDATB | 0x200; /* poner a 1 el bit 9 del puerto B */
 c0053c0:	e59f3034 	ldr	r3, [pc, #52]	; c0053fc <led1_off+0x3c>
	Led_Display(led_state);
}

void led1_off()
{
	led_state = led_state & 0xfe;
 c0053c4:	e59f2034 	ldr	r2, [pc, #52]	; c005400 <led1_off+0x40>
	led_state = LedStatus;

	if ((LedStatus & 0x01) == 0x01)
		rPDATB = rPDATB & 0x5ff; /* poner a 0 el bit 9 del puerto B */
	else
		rPDATB = rPDATB | 0x200; /* poner a 1 el bit 9 del puerto B */
 c0053c8:	e593000c 	ldr	r0, [r3, #12]
	Led_Display(led_state);
}

void led1_off()
{
	led_state = led_state & 0xfe;
 c0053cc:	e5921000 	ldr	r1, [r2]
	led_state = LedStatus;

	if ((LedStatus & 0x01) == 0x01)
		rPDATB = rPDATB & 0x5ff; /* poner a 0 el bit 9 del puerto B */
	else
		rPDATB = rPDATB | 0x200; /* poner a 1 el bit 9 del puerto B */
 c0053d0:	e3800c02 	orr	r0, r0, #512	; 0x200
	Led_Display(led_state);
}

void led1_off()
{
	led_state = led_state & 0xfe;
 c0053d4:	e201c0fe 	and	ip, r1, #254	; 0xfe
 c0053d8:	e582c000 	str	ip, [r2]
	led_state = LedStatus;

	if ((LedStatus & 0x01) == 0x01)
		rPDATB = rPDATB & 0x5ff; /* poner a 0 el bit 9 del puerto B */
	else
		rPDATB = rPDATB | 0x200; /* poner a 1 el bit 9 del puerto B */
 c0053dc:	e583000c 	str	r0, [r3, #12]

	if ((LedStatus & 0x02) == 0x02)
		rPDATB = rPDATB & 0x3ff; /* poner a 0 el bit 10 del puerto B */
 c0053e0:	e593200c 	ldr	r2, [r3, #12]
	if ((LedStatus & 0x01) == 0x01)
		rPDATB = rPDATB & 0x5ff; /* poner a 0 el bit 9 del puerto B */
	else
		rPDATB = rPDATB | 0x200; /* poner a 1 el bit 9 del puerto B */

	if ((LedStatus & 0x02) == 0x02)
 c0053e4:	e3110002 	tst	r1, #2
		rPDATB = rPDATB & 0x3ff; /* poner a 0 el bit 10 del puerto B */
 c0053e8:	11a02b02 	lslne	r2, r2, #22
 c0053ec:	11a02b22 	lsrne	r2, r2, #22
	else
		rPDATB = rPDATB | 0x400; /* poner a 1 el bit 10 del puerto B */
 c0053f0:	03822b01 	orreq	r2, r2, #1024	; 0x400
 c0053f4:	e583200c 	str	r2, [r3, #12]
 c0053f8:	e12fff1e 	bx	lr
 c0053fc:	01d20000 	.word	0x01d20000
 c005400:	0c00cdf4 	.word	0x0c00cdf4

0c005404 <led2_on>:
	Led_Display(led_state);
}

void led2_on()
{
	led_state = led_state | 0x2;
 c005404:	e59f3048 	ldr	r3, [pc, #72]	; c005454 <led2_on+0x50>
 c005408:	e5932000 	ldr	r2, [r3]
 c00540c:	e382c002 	orr	ip, r2, #2

void Led_Display(int LedStatus)
{
	led_state = LedStatus;

	if ((LedStatus & 0x01) == 0x01)
 c005410:	e31c0001 	tst	ip, #1
	Led_Display(led_state);
}

void led2_on()
{
	led_state = led_state | 0x2;
 c005414:	e583c000 	str	ip, [r3]
	led_state = LedStatus;

	if ((LedStatus & 0x01) == 0x01)
		rPDATB = rPDATB & 0x5ff; /* poner a 0 el bit 9 del puerto B */
	else
		rPDATB = rPDATB | 0x200; /* poner a 1 el bit 9 del puerto B */
 c005418:	059f3038 	ldreq	r3, [pc, #56]	; c005458 <led2_on+0x54>
void Led_Display(int LedStatus)
{
	led_state = LedStatus;

	if ((LedStatus & 0x01) == 0x01)
		rPDATB = rPDATB & 0x5ff; /* poner a 0 el bit 9 del puerto B */
 c00541c:	159fc034 	ldrne	ip, [pc, #52]	; c005458 <led2_on+0x54>
	else
		rPDATB = rPDATB | 0x200; /* poner a 1 el bit 9 del puerto B */
 c005420:	0593c00c 	ldreq	ip, [r3, #12]
void Led_Display(int LedStatus)
{
	led_state = LedStatus;

	if ((LedStatus & 0x01) == 0x01)
		rPDATB = rPDATB & 0x5ff; /* poner a 0 el bit 9 del puerto B */
 c005424:	159c100c 	ldrne	r1, [ip, #12]
 c005428:	159f302c 	ldrne	r3, [pc, #44]	; c00545c <led2_on+0x58>
	else
		rPDATB = rPDATB | 0x200; /* poner a 1 el bit 9 del puerto B */
 c00542c:	038ccc02 	orreq	ip, ip, #512	; 0x200
void Led_Display(int LedStatus)
{
	led_state = LedStatus;

	if ((LedStatus & 0x01) == 0x01)
		rPDATB = rPDATB & 0x5ff; /* poner a 0 el bit 9 del puerto B */
 c005430:	10013003 	andne	r3, r1, r3
 c005434:	158c300c 	strne	r3, [ip, #12]
	else
		rPDATB = rPDATB | 0x200; /* poner a 1 el bit 9 del puerto B */
 c005438:	0583c00c 	streq	ip, [r3, #12]

	if ((LedStatus & 0x02) == 0x02)
		rPDATB = rPDATB & 0x3ff; /* poner a 0 el bit 10 del puerto B */
 c00543c:	e59f3014 	ldr	r3, [pc, #20]	; c005458 <led2_on+0x54>
 c005440:	e593100c 	ldr	r1, [r3, #12]
 c005444:	e1a00b01 	lsl	r0, r1, #22
 c005448:	e1a02b20 	lsr	r2, r0, #22
 c00544c:	e583200c 	str	r2, [r3, #12]

void led2_on()
{
	led_state = led_state | 0x2;
	Led_Display(led_state);
}
 c005450:	e12fff1e 	bx	lr
 c005454:	0c00cdf4 	.word	0x0c00cdf4
 c005458:	01d20000 	.word	0x01d20000
 c00545c:	000005ff 	.word	0x000005ff

0c005460 <led2_off>:

void led2_off()
{
	led_state = led_state & 0xfd;
 c005460:	e59f2044 	ldr	r2, [pc, #68]	; c0054ac <led2_off+0x4c>
 c005464:	e592c000 	ldr	ip, [r2]

void Led_Display(int LedStatus)
{
	led_state = LedStatus;

	if ((LedStatus & 0x01) == 0x01)
 c005468:	e31c0001 	tst	ip, #1
	Led_Display(led_state);
}

void led2_off()
{
	led_state = led_state & 0xfd;
 c00546c:	e20c10fd 	and	r1, ip, #253	; 0xfd
 c005470:	e5821000 	str	r1, [r2]
void Led_Display(int LedStatus)
{
	led_state = LedStatus;

	if ((LedStatus & 0x01) == 0x01)
		rPDATB = rPDATB & 0x5ff; /* poner a 0 el bit 9 del puerto B */
 c005474:	159fc034 	ldrne	ip, [pc, #52]	; c0054b0 <led2_off+0x50>
	else
		rPDATB = rPDATB | 0x200; /* poner a 1 el bit 9 del puerto B */
 c005478:	059f2030 	ldreq	r2, [pc, #48]	; c0054b0 <led2_off+0x50>
void Led_Display(int LedStatus)
{
	led_state = LedStatus;

	if ((LedStatus & 0x01) == 0x01)
		rPDATB = rPDATB & 0x5ff; /* poner a 0 el bit 9 del puerto B */
 c00547c:	159c100c 	ldrne	r1, [ip, #12]
	else
		rPDATB = rPDATB | 0x200; /* poner a 1 el bit 9 del puerto B */
 c005480:	0592c00c 	ldreq	ip, [r2, #12]
void Led_Display(int LedStatus)
{
	led_state = LedStatus;

	if ((LedStatus & 0x01) == 0x01)
		rPDATB = rPDATB & 0x5ff; /* poner a 0 el bit 9 del puerto B */
 c005484:	159f2028 	ldrne	r2, [pc, #40]	; c0054b4 <led2_off+0x54>
	else
		rPDATB = rPDATB | 0x200; /* poner a 1 el bit 9 del puerto B */
 c005488:	038ccc02 	orreq	ip, ip, #512	; 0x200
void Led_Display(int LedStatus)
{
	led_state = LedStatus;

	if ((LedStatus & 0x01) == 0x01)
		rPDATB = rPDATB & 0x5ff; /* poner a 0 el bit 9 del puerto B */
 c00548c:	10012002 	andne	r2, r1, r2
 c005490:	158c200c 	strne	r2, [ip, #12]
	else
		rPDATB = rPDATB | 0x200; /* poner a 1 el bit 9 del puerto B */
 c005494:	0582c00c 	streq	ip, [r2, #12]

	if ((LedStatus & 0x02) == 0x02)
		rPDATB = rPDATB & 0x3ff; /* poner a 0 el bit 10 del puerto B */
	else
		rPDATB = rPDATB | 0x400; /* poner a 1 el bit 10 del puerto B */
 c005498:	e59f3010 	ldr	r3, [pc, #16]	; c0054b0 <led2_off+0x50>
 c00549c:	e593000c 	ldr	r0, [r3, #12]
 c0054a0:	e3802b01 	orr	r2, r0, #1024	; 0x400
 c0054a4:	e583200c 	str	r2, [r3, #12]

void led2_off()
{
	led_state = led_state & 0xfd;
	Led_Display(led_state);
}
 c0054a8:	e12fff1e 	bx	lr
 c0054ac:	0c00cdf4 	.word	0x0c00cdf4
 c0054b0:	01d20000 	.word	0x01d20000
 c0054b4:	000005ff 	.word	0x000005ff

0c0054b8 <leds_switch>:

void leds_switch()
{
	led_state ^= 0x03;
 c0054b8:	e59f2050 	ldr	r2, [pc, #80]	; c005510 <leds_switch+0x58>
 c0054bc:	e5923000 	ldr	r3, [r2]
 c0054c0:	e223c003 	eor	ip, r3, #3

void Led_Display(int LedStatus)
{
	led_state = LedStatus;

	if ((LedStatus & 0x01) == 0x01)
 c0054c4:	e31c0001 	tst	ip, #1
	Led_Display(led_state);
}

void leds_switch()
{
	led_state ^= 0x03;
 c0054c8:	e582c000 	str	ip, [r2]
void Led_Display(int LedStatus)
{
	led_state = LedStatus;

	if ((LedStatus & 0x01) == 0x01)
		rPDATB = rPDATB & 0x5ff; /* poner a 0 el bit 9 del puerto B */
 c0054cc:	159f1040 	ldrne	r1, [pc, #64]	; c005514 <leds_switch+0x5c>
	else
		rPDATB = rPDATB | 0x200; /* poner a 1 el bit 9 del puerto B */
 c0054d0:	059f203c 	ldreq	r2, [pc, #60]	; c005514 <leds_switch+0x5c>
void Led_Display(int LedStatus)
{
	led_state = LedStatus;

	if ((LedStatus & 0x01) == 0x01)
		rPDATB = rPDATB & 0x5ff; /* poner a 0 el bit 9 del puerto B */
 c0054d4:	1591000c 	ldrne	r0, [r1, #12]
	else
		rPDATB = rPDATB | 0x200; /* poner a 1 el bit 9 del puerto B */
 c0054d8:	0592100c 	ldreq	r1, [r2, #12]
void Led_Display(int LedStatus)
{
	led_state = LedStatus;

	if ((LedStatus & 0x01) == 0x01)
		rPDATB = rPDATB & 0x5ff; /* poner a 0 el bit 9 del puerto B */
 c0054dc:	159f2034 	ldrne	r2, [pc, #52]	; c005518 <leds_switch+0x60>
	else
		rPDATB = rPDATB | 0x200; /* poner a 1 el bit 9 del puerto B */
 c0054e0:	03811c02 	orreq	r1, r1, #512	; 0x200
void Led_Display(int LedStatus)
{
	led_state = LedStatus;

	if ((LedStatus & 0x01) == 0x01)
		rPDATB = rPDATB & 0x5ff; /* poner a 0 el bit 9 del puerto B */
 c0054e4:	10002002 	andne	r2, r0, r2
 c0054e8:	1581200c 	strne	r2, [r1, #12]
	else
		rPDATB = rPDATB | 0x200; /* poner a 1 el bit 9 del puerto B */
 c0054ec:	0582100c 	streq	r1, [r2, #12]

	if ((LedStatus & 0x02) == 0x02)
		rPDATB = rPDATB & 0x3ff; /* poner a 0 el bit 10 del puerto B */
 c0054f0:	e59f301c 	ldr	r3, [pc, #28]	; c005514 <leds_switch+0x5c>
 c0054f4:	e593200c 	ldr	r2, [r3, #12]
	if ((LedStatus & 0x01) == 0x01)
		rPDATB = rPDATB & 0x5ff; /* poner a 0 el bit 9 del puerto B */
	else
		rPDATB = rPDATB | 0x200; /* poner a 1 el bit 9 del puerto B */

	if ((LedStatus & 0x02) == 0x02)
 c0054f8:	e31c0002 	tst	ip, #2
		rPDATB = rPDATB & 0x3ff; /* poner a 0 el bit 10 del puerto B */
 c0054fc:	11a02b02 	lslne	r2, r2, #22
 c005500:	11a02b22 	lsrne	r2, r2, #22
	else
		rPDATB = rPDATB | 0x400; /* poner a 1 el bit 10 del puerto B */
 c005504:	03822b01 	orreq	r2, r2, #1024	; 0x400
 c005508:	e583200c 	str	r2, [r3, #12]
 c00550c:	e12fff1e 	bx	lr
 c005510:	0c00cdf4 	.word	0x0c00cdf4
 c005514:	01d20000 	.word	0x01d20000
 c005518:	000005ff 	.word	0x000005ff

0c00551c <Led_Display>:

}

void Led_Display(int LedStatus)
{
	led_state = LedStatus;
 c00551c:	e59fc048 	ldr	ip, [pc, #72]	; c00556c <Led_Display+0x50>

	if ((LedStatus & 0x01) == 0x01)
 c005520:	e3100001 	tst	r0, #1

}

void Led_Display(int LedStatus)
{
	led_state = LedStatus;
 c005524:	e58c0000 	str	r0, [ip]

	if ((LedStatus & 0x01) == 0x01)
		rPDATB = rPDATB & 0x5ff; /* poner a 0 el bit 9 del puerto B */
 c005528:	159f2040 	ldrne	r2, [pc, #64]	; c005570 <Led_Display+0x54>
	else
		rPDATB = rPDATB | 0x200; /* poner a 1 el bit 9 del puerto B */
 c00552c:	059fc03c 	ldreq	ip, [pc, #60]	; c005570 <Led_Display+0x54>
void Led_Display(int LedStatus)
{
	led_state = LedStatus;

	if ((LedStatus & 0x01) == 0x01)
		rPDATB = rPDATB & 0x5ff; /* poner a 0 el bit 9 del puerto B */
 c005530:	1592100c 	ldrne	r1, [r2, #12]
	else
		rPDATB = rPDATB | 0x200; /* poner a 1 el bit 9 del puerto B */
 c005534:	059c200c 	ldreq	r2, [ip, #12]
void Led_Display(int LedStatus)
{
	led_state = LedStatus;

	if ((LedStatus & 0x01) == 0x01)
		rPDATB = rPDATB & 0x5ff; /* poner a 0 el bit 9 del puerto B */
 c005538:	159fc034 	ldrne	ip, [pc, #52]	; c005574 <Led_Display+0x58>
	else
		rPDATB = rPDATB | 0x200; /* poner a 1 el bit 9 del puerto B */
 c00553c:	03822c02 	orreq	r2, r2, #512	; 0x200
void Led_Display(int LedStatus)
{
	led_state = LedStatus;

	if ((LedStatus & 0x01) == 0x01)
		rPDATB = rPDATB & 0x5ff; /* poner a 0 el bit 9 del puerto B */
 c005540:	1001c00c 	andne	ip, r1, ip
 c005544:	1582c00c 	strne	ip, [r2, #12]
	else
		rPDATB = rPDATB | 0x200; /* poner a 1 el bit 9 del puerto B */
 c005548:	058c200c 	streq	r2, [ip, #12]

	if ((LedStatus & 0x02) == 0x02)
		rPDATB = rPDATB & 0x3ff; /* poner a 0 el bit 10 del puerto B */
 c00554c:	e59f301c 	ldr	r3, [pc, #28]	; c005570 <Led_Display+0x54>
 c005550:	e593200c 	ldr	r2, [r3, #12]
	if ((LedStatus & 0x01) == 0x01)
		rPDATB = rPDATB & 0x5ff; /* poner a 0 el bit 9 del puerto B */
	else
		rPDATB = rPDATB | 0x200; /* poner a 1 el bit 9 del puerto B */

	if ((LedStatus & 0x02) == 0x02)
 c005554:	e3100002 	tst	r0, #2
		rPDATB = rPDATB & 0x3ff; /* poner a 0 el bit 10 del puerto B */
 c005558:	11a02b02 	lslne	r2, r2, #22
 c00555c:	11a02b22 	lsrne	r2, r2, #22
	else
		rPDATB = rPDATB | 0x400; /* poner a 1 el bit 10 del puerto B */
 c005560:	03822b01 	orreq	r2, r2, #1024	; 0x400
 c005564:	e583200c 	str	r2, [r3, #12]
 c005568:	e12fff1e 	bx	lr
 c00556c:	0c00cdf4 	.word	0x0c00cdf4
 c005570:	01d20000 	.word	0x01d20000
 c005574:	000005ff 	.word	0x000005ff

0c005578 <modo_usuario>:

/*
 * Cambia a modo usuario
 */
void modo_usuario(){
	__asm__ volatile("mrs r0, cpsr");		// Copiamos el cpsr al spsr
 c005578:	e10f0000 	mrs	r0, CPSR
	__asm__ volatile("msr spsr, r0");		// Reasignamos módulo C del cpsr, asignamos
 c00557c:	e169f000 	msr	SPSR_fc, r0
	__asm__ volatile("msr cpsr_c, 0x10");	// a bits de modo el modo usuario.
 c005580:	e321f010 	msr	CPSR_c, #16
}
 c005584:	e12fff1e 	bx	lr

0c005588 <Main>:

/*
 * Inicializa sistema y perifericos, y lanza el juego.
 */
void Main(void)
{
 c005588:	e1a0c00d 	mov	ip, sp
 c00558c:	e92dd800 	push	{fp, ip, lr, pc}
 c005590:	e24cb004 	sub	fp, ip, #4
	/* --- Inicialización del sistema --- */
	sys_init();	// (placa, interrupciones y puertos)
 c005594:	ebffedd7 	bl	c000cf8 <sys_init>

	/* --- Inicialización de la cola de eventos --- */
	cola_ini();
 c005598:	ebfff2a8 	bl	c002040 <cola_ini>

	/* --- Configuracion de ISR de Excepciones --- */
	exception_init();
 c00559c:	ebfff300 	bl	c0021a4 <exception_init>

	/* --- Inicialización de los dispositivos --- */
	button_iniciar();
 c0055a0:	ebfff270 	bl	c001f68 <button_iniciar>
	D8Led_init();
 c0055a4:	ebffede9 	bl	c000d50 <D8Led_init>
	timer2_inicializar();
 c0055a8:	eb0010fd 	bl	c0099a4 <timer2_inicializar>
	Lcd_Init();
 c0055ac:	ebfff41b 	bl	c002620 <Lcd_Init>
	touchpad_init();
 c0055b0:	eb001253 	bl	c009f04 <touchpad_init>

	/* --- Iniciamos los timers --- */
	timer_init();
 c0055b4:	eb0010c5 	bl	c0098d0 <timer_init>
	timer2_empezar();
 c0055b8:	eb00111c 	bl	c009a30 <timer2_empezar>

/*
 * Cambia a modo usuario
 */
void modo_usuario(){
	__asm__ volatile("mrs r0, cpsr");		// Copiamos el cpsr al spsr
 c0055bc:	e10f0000 	mrs	r0, CPSR
	__asm__ volatile("msr spsr, r0");		// Reasignamos módulo C del cpsr, asignamos
 c0055c0:	e169f000 	msr	SPSR_fc, r0
	__asm__ volatile("msr cpsr_c, 0x10");	// a bits de modo el modo usuario.
 c0055c4:	e321f010 	msr	CPSR_c, #16


	/* --- Modo usuario --- */
	modo_usuario();
	/* --- Juego --- */
	reversi_main();
 c0055c8:	eb001081 	bl	c0097d4 <reversi_main>




}
 c0055cc:	e24bd00c 	sub	sp, fp, #12
 c0055d0:	e89d6800 	ldm	sp, {fp, sp, lr}
 c0055d4:	e12fff1e 	bx	lr

0c0055d8 <Pantalla_final>:

/*--- codigo de las funciones ---*/
/*
 * Pantalla fin de partida
 */
void Pantalla_final(){
 c0055d8:	e1a0c00d 	mov	ip, sp
 c0055dc:	e92dd830 	push	{r4, r5, fp, ip, lr, pc}
 c0055e0:	e24cb004 	sub	fp, ip, #4
 c0055e4:	e24dd008 	sub	sp, sp, #8
	if(primeraImpresion==1){
 c0055e8:	e59f4100 	ldr	r4, [pc, #256]	; c0056f0 <Pantalla_final+0x118>
 c0055ec:	e5943000 	ldr	r3, [r4]
 c0055f0:	e3530001 	cmp	r3, #1
 c0055f4:	0a000002 	beq	c005604 <Pantalla_final+0x2c>
		// Boton pantalla inicial
		Lcd_Draw_Box(100, 170, 220, 202, 15);
		static char e[]="Salir";
		Lcd_DspAscII6x8(145,178,BLACK,e);
	}
}
 c0055f8:	e24bd014 	sub	sp, fp, #20
 c0055fc:	e89d6830 	ldm	sp, {r4, r5, fp, sp, lr}
 c005600:	e12fff1e 	bx	lr
/*
 * Pantalla fin de partida
 */
void Pantalla_final(){
	if(primeraImpresion==1){
		primeraImpresion=0;
 c005604:	e3a00000 	mov	r0, #0

		// Resultado negras y blancas
		static char snum[10];
		static char b[]="Negras";
		Lcd_DspAscII6x8(84,92,BLACK,b);
		itoa(negras,snum);
 c005608:	e59f50e4 	ldr	r5, [pc, #228]	; c0056f4 <Pantalla_final+0x11c>
/*
 * Pantalla fin de partida
 */
void Pantalla_final(){
	if(primeraImpresion==1){
		primeraImpresion=0;
 c00560c:	e5840000 	str	r0, [r4]
		Lcd_Clr();
 c005610:	ebfff45d 	bl	c00278c <Lcd_Clr>

		// Leyenda fin del juego
		static char a[]="Fin del juego";
		Lcd_DspAscII8x16(118,70,BLACK,a);
 c005614:	e2843004 	add	r3, r4, #4
 c005618:	e3a00076 	mov	r0, #118	; 0x76
 c00561c:	e3a01046 	mov	r1, #70	; 0x46
 c005620:	e3a0200f 	mov	r2, #15
 c005624:	ebfffc95 	bl	c004880 <Lcd_DspAscII8x16>

		// Resultado negras y blancas
		static char snum[10];
		static char b[]="Negras";
		Lcd_DspAscII6x8(84,92,BLACK,b);
 c005628:	e2843014 	add	r3, r4, #20
 c00562c:	e3a0200f 	mov	r2, #15
 c005630:	e3a00054 	mov	r0, #84	; 0x54
 c005634:	e3a0105c 	mov	r1, #92	; 0x5c
 c005638:	ebfffe32 	bl	c004f08 <Lcd_DspAscII6x8>
		itoa(negras,snum);
 c00563c:	e1a01005 	mov	r1, r5
 c005640:	e4910004 	ldr	r0, [r1], #4
 c005644:	ebfff2f2 	bl	c002214 <itoa>
		Lcd_DspAscII8x16(96,102,BLACK,snum);
 c005648:	e2853004 	add	r3, r5, #4
 c00564c:	e3a00060 	mov	r0, #96	; 0x60
 c005650:	e3a01066 	mov	r1, #102	; 0x66
 c005654:	e3a0200f 	mov	r2, #15
 c005658:	ebfffc88 	bl	c004880 <Lcd_DspAscII8x16>
		static char c[]="Blancas";
		Lcd_DspAscII6x8(194,92,BLACK,c);
 c00565c:	e284301c 	add	r3, r4, #28
 c005660:	e3a0200f 	mov	r2, #15
 c005664:	e3a000c2 	mov	r0, #194	; 0xc2
 c005668:	e3a0105c 	mov	r1, #92	; 0x5c
 c00566c:	ebfffe25 	bl	c004f08 <Lcd_DspAscII6x8>
		itoa(blancas,snum);
 c005670:	e5950010 	ldr	r0, [r5, #16]
 c005674:	e2851004 	add	r1, r5, #4
 c005678:	ebfff2e5 	bl	c002214 <itoa>
		Lcd_DspAscII8x16(212,102,BLACK,snum);
 c00567c:	e2853004 	add	r3, r5, #4
 c005680:	e3a000d4 	mov	r0, #212	; 0xd4
 c005684:	e3a01066 	mov	r1, #102	; 0x66
 c005688:	e3a0200f 	mov	r2, #15
 c00568c:	ebfffc7b 	bl	c004880 <Lcd_DspAscII8x16>

		// Boton jugar de nuevo
		Lcd_Draw_Box(100, 130, 220, 162, 15);
 c005690:	e3a0500f 	mov	r5, #15
 c005694:	e3a00064 	mov	r0, #100	; 0x64
 c005698:	e3a01082 	mov	r1, #130	; 0x82
 c00569c:	e3a020dc 	mov	r2, #220	; 0xdc
 c0056a0:	e3a030a2 	mov	r3, #162	; 0xa2
 c0056a4:	e58d5000 	str	r5, [sp]
 c0056a8:	ebfff643 	bl	c002fbc <Lcd_Draw_Box>
		static char d[]="Volver a jugar";
		Lcd_DspAscII6x8(118,138,BLACK,d);
 c0056ac:	e1a02005 	mov	r2, r5
 c0056b0:	e2843024 	add	r3, r4, #36	; 0x24
 c0056b4:	e3a00076 	mov	r0, #118	; 0x76
 c0056b8:	e3a0108a 	mov	r1, #138	; 0x8a
 c0056bc:	ebfffe11 	bl	c004f08 <Lcd_DspAscII6x8>

		// Boton pantalla inicial
		Lcd_Draw_Box(100, 170, 220, 202, 15);
 c0056c0:	e3a00064 	mov	r0, #100	; 0x64
 c0056c4:	e3a010aa 	mov	r1, #170	; 0xaa
 c0056c8:	e3a020dc 	mov	r2, #220	; 0xdc
 c0056cc:	e3a030ca 	mov	r3, #202	; 0xca
 c0056d0:	e58d5000 	str	r5, [sp]
 c0056d4:	ebfff638 	bl	c002fbc <Lcd_Draw_Box>
		static char e[]="Salir";
		Lcd_DspAscII6x8(145,178,BLACK,e);
 c0056d8:	e3a00091 	mov	r0, #145	; 0x91
 c0056dc:	e3a010b2 	mov	r1, #178	; 0xb2
 c0056e0:	e1a02005 	mov	r2, r5
 c0056e4:	e2843034 	add	r3, r4, #52	; 0x34
 c0056e8:	ebfffe06 	bl	c004f08 <Lcd_DspAscII6x8>
 c0056ec:	eaffffc1 	b	c0055f8 <Pantalla_final+0x20>
 c0056f0:	0c00ae48 	.word	0x0c00ae48
 c0056f4:	0c00cdf8 	.word	0x0c00cdf8

0c0056f8 <Pantalla_calibrar>:
}
/*
 * Pantalla de calibrado
 * Dibuja un cuadrado en la esquina que corresponda
 */
void Pantalla_calibrar(){
 c0056f8:	e1a0c00d 	mov	ip, sp
 c0056fc:	e92dd830 	push	{r4, r5, fp, ip, lr, pc}
 c005700:	e24cb004 	sub	fp, ip, #4
 c005704:	e24dd008 	sub	sp, sp, #8
	if(primeraImpresion==1){
 c005708:	e59f5128 	ldr	r5, [pc, #296]	; c005838 <Pantalla_calibrar+0x140>
 c00570c:	e5953000 	ldr	r3, [r5]
 c005710:	e3530001 	cmp	r3, #1
 c005714:	0a000019 	beq	c005780 <Pantalla_calibrar+0x88>
		Lcd_DspAscII6x8(88,116,BLACK,a);

		// Cuadrado arriba izq
		Lcd_Draw_Box(0, 0, 20, 20, 15);
	}else{
		if(esquina==1){
 c005718:	e59f011c 	ldr	r0, [pc, #284]	; c00583c <Pantalla_calibrar+0x144>
 c00571c:	e5903014 	ldr	r3, [r0, #20]
 c005720:	e3530001 	cmp	r3, #1
 c005724:	0a000025 	beq	c0057c0 <Pantalla_calibrar+0xc8>
			// Cuadrado arriba der (eliminamos anterior)
			LcdClrRect(0, 0, 20, 20, 0);
			Lcd_Draw_Box(299, 0, 319, 20, 15);
		}else if(esquina==2){
 c005728:	e3530002 	cmp	r3, #2
 c00572c:	0a000032 	beq	c0057fc <Pantalla_calibrar+0x104>
			// Cuadrado abajo izq (eliminamos anterior)
			LcdClrRect(299, 0, 319, 20, 0);
			Lcd_Draw_Box(0, 219, 20, 239, 15);
		}else if(esquina==3){
 c005730:	e3530003 	cmp	r3, #3
 c005734:	0a000002 	beq	c005744 <Pantalla_calibrar+0x4c>
			// Cuadrado abajo der (eliminamos anterior)
			LcdClrRect(0, 219, 20, 239, 0);
			Lcd_Draw_Box(299, 219, 319, 239, 15);
		}
	}
}
 c005738:	e24bd014 	sub	sp, fp, #20
 c00573c:	e89d6830 	ldm	sp, {r4, r5, fp, sp, lr}
 c005740:	e12fff1e 	bx	lr
			// Cuadrado abajo izq (eliminamos anterior)
			LcdClrRect(299, 0, 319, 20, 0);
			Lcd_Draw_Box(0, 219, 20, 239, 15);
		}else if(esquina==3){
			// Cuadrado abajo der (eliminamos anterior)
			LcdClrRect(0, 219, 20, 239, 0);
 c005744:	e3a0e000 	mov	lr, #0
 c005748:	e1a0000e 	mov	r0, lr
 c00574c:	e3a010db 	mov	r1, #219	; 0xdb
 c005750:	e3a02014 	mov	r2, #20
 c005754:	e3a030ef 	mov	r3, #239	; 0xef
 c005758:	e58de000 	str	lr, [sp]
 c00575c:	ebfff418 	bl	c0027c4 <LcdClrRect>
			Lcd_Draw_Box(299, 219, 319, 239, 15);
 c005760:	e3a0c00f 	mov	ip, #15
 c005764:	e59f00d4 	ldr	r0, [pc, #212]	; c005840 <Pantalla_calibrar+0x148>
 c005768:	e3a010db 	mov	r1, #219	; 0xdb
 c00576c:	e59f20d0 	ldr	r2, [pc, #208]	; c005844 <Pantalla_calibrar+0x14c>
 c005770:	e3a030ef 	mov	r3, #239	; 0xef
 c005774:	e58dc000 	str	ip, [sp]
 c005778:	ebfff60f 	bl	c002fbc <Lcd_Draw_Box>
 c00577c:	eaffffed 	b	c005738 <Pantalla_calibrar+0x40>
 * Pantalla de calibrado
 * Dibuja un cuadrado en la esquina que corresponda
 */
void Pantalla_calibrar(){
	if(primeraImpresion==1){
		primeraImpresion=0;
 c005780:	e3a04000 	mov	r4, #0
 c005784:	e5854000 	str	r4, [r5]
		Lcd_Clr();
 c005788:	ebfff3ff 	bl	c00278c <Lcd_Clr>

		// Leyenda Haz click
		static char a[]="Haz click en el cuadrado";
		Lcd_DspAscII6x8(88,116,BLACK,a);
 c00578c:	e285303c 	add	r3, r5, #60	; 0x3c
 c005790:	e3a00058 	mov	r0, #88	; 0x58
 c005794:	e3a01074 	mov	r1, #116	; 0x74
 c005798:	e3a0200f 	mov	r2, #15
 c00579c:	ebfffdd9 	bl	c004f08 <Lcd_DspAscII6x8>

		// Cuadrado arriba izq
		Lcd_Draw_Box(0, 0, 20, 20, 15);
 c0057a0:	e3a02014 	mov	r2, #20
 c0057a4:	e3a0c00f 	mov	ip, #15
 c0057a8:	e1a00004 	mov	r0, r4
 c0057ac:	e1a01004 	mov	r1, r4
 c0057b0:	e1a03002 	mov	r3, r2
 c0057b4:	e58dc000 	str	ip, [sp]
 c0057b8:	ebfff5ff 	bl	c002fbc <Lcd_Draw_Box>
 c0057bc:	eaffffdd 	b	c005738 <Pantalla_calibrar+0x40>
	}else{
		if(esquina==1){
			// Cuadrado arriba der (eliminamos anterior)
			LcdClrRect(0, 0, 20, 20, 0);
 c0057c0:	e3a04000 	mov	r4, #0
 c0057c4:	e3a02014 	mov	r2, #20
 c0057c8:	e1a00004 	mov	r0, r4
 c0057cc:	e1a01004 	mov	r1, r4
 c0057d0:	e1a03002 	mov	r3, r2
 c0057d4:	e58d4000 	str	r4, [sp]
 c0057d8:	ebfff3f9 	bl	c0027c4 <LcdClrRect>
			Lcd_Draw_Box(299, 0, 319, 20, 15);
 c0057dc:	e3a0c00f 	mov	ip, #15
 c0057e0:	e59f0058 	ldr	r0, [pc, #88]	; c005840 <Pantalla_calibrar+0x148>
 c0057e4:	e1a01004 	mov	r1, r4
 c0057e8:	e59f2054 	ldr	r2, [pc, #84]	; c005844 <Pantalla_calibrar+0x14c>
 c0057ec:	e3a03014 	mov	r3, #20
 c0057f0:	e58dc000 	str	ip, [sp]
 c0057f4:	ebfff5f0 	bl	c002fbc <Lcd_Draw_Box>
 c0057f8:	eaffffce 	b	c005738 <Pantalla_calibrar+0x40>
		}else if(esquina==2){
			// Cuadrado abajo izq (eliminamos anterior)
			LcdClrRect(299, 0, 319, 20, 0);
 c0057fc:	e3a04000 	mov	r4, #0
 c005800:	e1a01004 	mov	r1, r4
 c005804:	e59f0034 	ldr	r0, [pc, #52]	; c005840 <Pantalla_calibrar+0x148>
 c005808:	e59f2034 	ldr	r2, [pc, #52]	; c005844 <Pantalla_calibrar+0x14c>
 c00580c:	e3a03014 	mov	r3, #20
 c005810:	e58d4000 	str	r4, [sp]
 c005814:	ebfff3ea 	bl	c0027c4 <LcdClrRect>
			Lcd_Draw_Box(0, 219, 20, 239, 15);
 c005818:	e3a0c00f 	mov	ip, #15
 c00581c:	e1a00004 	mov	r0, r4
 c005820:	e3a010db 	mov	r1, #219	; 0xdb
 c005824:	e3a02014 	mov	r2, #20
 c005828:	e3a030ef 	mov	r3, #239	; 0xef
 c00582c:	e58dc000 	str	ip, [sp]
 c005830:	ebfff5e1 	bl	c002fbc <Lcd_Draw_Box>
 c005834:	eaffffbf 	b	c005738 <Pantalla_calibrar+0x40>
 c005838:	0c00ae48 	.word	0x0c00ae48
 c00583c:	0c00cdf8 	.word	0x0c00cdf8
 c005840:	0000012b 	.word	0x0000012b
 c005844:	0000013f 	.word	0x0000013f

0c005848 <Pantalla_inicial>:
	}
}
/*
 * Pantalla inicial
 */
void Pantalla_inicial(){
 c005848:	e1a0c00d 	mov	ip, sp
 c00584c:	e92dd870 	push	{r4, r5, r6, fp, ip, lr, pc}
 c005850:	e24cb004 	sub	fp, ip, #4
 c005854:	e24dd00c 	sub	sp, sp, #12
	if(primeraImpresion==1){
 c005858:	e59f40e0 	ldr	r4, [pc, #224]	; c005940 <Pantalla_inicial+0xf8>
 c00585c:	e5943000 	ldr	r3, [r4]
 c005860:	e3530001 	cmp	r3, #1
 c005864:	0a000002 	beq	c005874 <Pantalla_inicial+0x2c>
		static char g[]="Pulse la pantalla para efectuar el movimiento";
		Lcd_DspAscII6x8(0,220,BLACK,g);
		static char h[]=" seleccionado";
		Lcd_DspAscII6x8(0,230,BLACK,h);
	}
}
 c005868:	e24bd018 	sub	sp, fp, #24
 c00586c:	e89d6870 	ldm	sp, {r4, r5, r6, fp, sp, lr}
 c005870:	e12fff1e 	bx	lr
/*
 * Pantalla inicial
 */
void Pantalla_inicial(){
	if(primeraImpresion==1){
		primeraImpresion=0;
 c005874:	e3a06000 	mov	r6, #0
 c005878:	e5846000 	str	r6, [r4]
		Lcd_Clr();
 c00587c:	ebfff3c2 	bl	c00278c <Lcd_Clr>

		// Titulo y leyenda Toque para jugar
		static char a[]="Reversi 8";
		Lcd_DspAscII8x16(124,90,BLACK,a);
 c005880:	e2843058 	add	r3, r4, #88	; 0x58
 c005884:	e3a0007c 	mov	r0, #124	; 0x7c
 c005888:	e3a0105a 	mov	r1, #90	; 0x5a
 c00588c:	e3a0200f 	mov	r2, #15
 c005890:	ebfffbfa 	bl	c004880 <Lcd_DspAscII8x16>
		static char b[]="Toque para jugar";
		Lcd_DspAscII8x16(96,122,BLACK,b);
 c005894:	e3a0200f 	mov	r2, #15
 c005898:	e2843064 	add	r3, r4, #100	; 0x64
 c00589c:	e3a00060 	mov	r0, #96	; 0x60
 c0058a0:	e3a0107a 	mov	r1, #122	; 0x7a

		// Boton calibrar
		Lcd_Draw_Box(236, 2, 317, 50, 15);
 c0058a4:	e1a05002 	mov	r5, r2

		// Titulo y leyenda Toque para jugar
		static char a[]="Reversi 8";
		Lcd_DspAscII8x16(124,90,BLACK,a);
		static char b[]="Toque para jugar";
		Lcd_DspAscII8x16(96,122,BLACK,b);
 c0058a8:	ebfffbf4 	bl	c004880 <Lcd_DspAscII8x16>

		// Boton calibrar
		Lcd_Draw_Box(236, 2, 317, 50, 15);
 c0058ac:	e3a000ec 	mov	r0, #236	; 0xec
 c0058b0:	e3a01002 	mov	r1, #2
 c0058b4:	e59f2088 	ldr	r2, [pc, #136]	; c005944 <Pantalla_inicial+0xfc>
 c0058b8:	e3a03032 	mov	r3, #50	; 0x32
 c0058bc:	e58d5000 	str	r5, [sp]
 c0058c0:	ebfff5bd 	bl	c002fbc <Lcd_Draw_Box>
		static char c[]="Calibrar";
		Lcd_DspAscII6x8(246,12,BLACK,c);
 c0058c4:	e1a02005 	mov	r2, r5
 c0058c8:	e2843078 	add	r3, r4, #120	; 0x78
 c0058cc:	e3a000f6 	mov	r0, #246	; 0xf6
 c0058d0:	e3a0100c 	mov	r1, #12
 c0058d4:	ebfffd8b 	bl	c004f08 <Lcd_DspAscII6x8>
		static char d[]="pantalla";
		Lcd_DspAscII6x8(246,30,BLACK,d);
 c0058d8:	e1a02005 	mov	r2, r5
 c0058dc:	e2843084 	add	r3, r4, #132	; 0x84
 c0058e0:	e3a0101e 	mov	r1, #30
 c0058e4:	e3a000f6 	mov	r0, #246	; 0xf6
 c0058e8:	ebfffd86 	bl	c004f08 <Lcd_DspAscII6x8>

		// Instrucciones
		static char e[]="Instrucciones:";
		Lcd_DspAscII6x8(0,200,BLACK,e);
 c0058ec:	e1a00006 	mov	r0, r6
 c0058f0:	e1a02005 	mov	r2, r5
 c0058f4:	e2843090 	add	r3, r4, #144	; 0x90
 c0058f8:	e3a010c8 	mov	r1, #200	; 0xc8
 c0058fc:	ebfffd81 	bl	c004f08 <Lcd_DspAscII6x8>
		static char f[]="Pulse los botones para seleccionar fila y columna";
		Lcd_DspAscII6x8(0,210,BLACK,f);
 c005900:	e1a00006 	mov	r0, r6
 c005904:	e1a02005 	mov	r2, r5
 c005908:	e28430a0 	add	r3, r4, #160	; 0xa0
 c00590c:	e3a010d2 	mov	r1, #210	; 0xd2
 c005910:	ebfffd7c 	bl	c004f08 <Lcd_DspAscII6x8>
		static char g[]="Pulse la pantalla para efectuar el movimiento";
		Lcd_DspAscII6x8(0,220,BLACK,g);
 c005914:	e1a00006 	mov	r0, r6
 c005918:	e1a02005 	mov	r2, r5
 c00591c:	e28430d4 	add	r3, r4, #212	; 0xd4
 c005920:	e3a010dc 	mov	r1, #220	; 0xdc
 c005924:	ebfffd77 	bl	c004f08 <Lcd_DspAscII6x8>
		static char h[]=" seleccionado";
		Lcd_DspAscII6x8(0,230,BLACK,h);
 c005928:	e1a00006 	mov	r0, r6
 c00592c:	e3a010e6 	mov	r1, #230	; 0xe6
 c005930:	e1a02005 	mov	r2, r5
 c005934:	e2843f41 	add	r3, r4, #260	; 0x104
 c005938:	ebfffd72 	bl	c004f08 <Lcd_DspAscII6x8>
 c00593c:	eaffffc9 	b	c005868 <Pantalla_inicial+0x20>
 c005940:	0c00ae48 	.word	0x0c00ae48
 c005944:	0000013d 	.word	0x0000013d

0c005948 <Pantalla_juego>:
	}
}
/*
 * Pantalla de juego
 */
void Pantalla_juego(){
 c005948:	e1a0c00d 	mov	ip, sp
 c00594c:	e92ddff0 	push	{r4, r5, r6, r7, r8, r9, sl, fp, ip, lr, pc}
 c005950:	e24cb004 	sub	fp, ip, #4
 c005954:	e24dd00c 	sub	sp, sp, #12
	int i,j;
	static char snum[10];
	if(primeraImpresion==1){
 c005958:	e59f8f8c 	ldr	r8, [pc, #3980]	; c0068ec <Pantalla_juego+0xfa4>
 c00595c:	e5987000 	ldr	r7, [r8]
 c005960:	e3570001 	cmp	r7, #1
 c005964:	0a0001d7 	beq	c0060c8 <Pantalla_juego+0x780>
		oldcMov=cMov;						// guardamos la ficha de debajo
		BitmapView(120+(cMov*25),10+(fMov*25),Stru_Bitmap_fichaGris);

	}else{
		//Calculamos ttotal
		unsigned int tactual=timer2_leer()/1000000;
 c005968:	eb001046 	bl	c009a88 <timer2_leer>
 c00596c:	e59f5f7c 	ldr	r5, [pc, #3964]	; c0068f0 <Pantalla_juego+0xfa8>
 c005970:	e08c2095 	umull	r2, ip, r5, r0
		if(tactual < tanterior){
 c005974:	e59f5f78 	ldr	r5, [pc, #3960]	; c0068f4 <Pantalla_juego+0xfac>
 c005978:	e5951028 	ldr	r1, [r5, #40]	; 0x28
		oldcMov=cMov;						// guardamos la ficha de debajo
		BitmapView(120+(cMov*25),10+(fMov*25),Stru_Bitmap_fichaGris);

	}else{
		//Calculamos ttotal
		unsigned int tactual=timer2_leer()/1000000;
 c00597c:	e1a0c92c 	lsr	ip, ip, #18
		if(tactual < tanterior){
 c005980:	e15c0001 	cmp	ip, r1
			contador_multiplicador++;
 c005984:	35951024 	ldrcc	r1, [r5, #36]	; 0x24
 c005988:	32811001 	addcc	r1, r1, #1
 c00598c:	35851024 	strcc	r1, [r5, #36]	; 0x24
		}
		tanterior=tactual;
		ttotal=(CONTADOR_COMPARADOR*contador_multiplicador)+tactual-tinicio_juego;
 c005990:	e5956024 	ldr	r6, [r5, #36]	; 0x24
 c005994:	e5952030 	ldr	r2, [r5, #48]	; 0x30
 c005998:	e0864286 	add	r4, r6, r6, lsl #5
 c00599c:	e0863084 	add	r3, r6, r4, lsl #1
 c0059a0:	e0620083 	rsb	r0, r2, r3, lsl #1
 c0059a4:	e080e00c 	add	lr, r0, ip

		//Tiempos
		static char snum[10];
		LcdClrRect(0, 21, 100, 37, 0);		// eliminamos numero anterior
 c0059a8:	e3a04000 	mov	r4, #0
		//Calculamos ttotal
		unsigned int tactual=timer2_leer()/1000000;
		if(tactual < tanterior){
			contador_multiplicador++;
		}
		tanterior=tactual;
 c0059ac:	e59f6f40 	ldr	r6, [pc, #3904]	; c0068f4 <Pantalla_juego+0xfac>
 c0059b0:	e585c028 	str	ip, [r5, #40]	; 0x28
		ttotal=(CONTADOR_COMPARADOR*contador_multiplicador)+tactual-tinicio_juego;
 c0059b4:	e585e02c 	str	lr, [r5, #44]	; 0x2c

		//Tiempos
		static char snum[10];
		LcdClrRect(0, 21, 100, 37, 0);		// eliminamos numero anterior
 c0059b8:	e3a02064 	mov	r2, #100	; 0x64
 c0059bc:	e3a03025 	mov	r3, #37	; 0x25
 c0059c0:	e1a00004 	mov	r0, r4
 c0059c4:	e3a01015 	mov	r1, #21
 c0059c8:	e58d4000 	str	r4, [sp]
 c0059cc:	ebfff37c 	bl	c0027c4 <LcdClrRect>
		itoa(ttotal,snum);					// convertimos int a char
 c0059d0:	e28610d8 	add	r1, r6, #216	; 0xd8
 c0059d4:	e595002c 	ldr	r0, [r5, #44]	; 0x2c
 c0059d8:	ebfff20d 	bl	c002214 <itoa>
		Lcd_DspAscII8x16(0,21,BLACK,snum);	// escribimos numero
 c0059dc:	e1a00004 	mov	r0, r4
 c0059e0:	e3a01015 	mov	r1, #21
 c0059e4:	e3a0200f 	mov	r2, #15
 c0059e8:	e28630d8 	add	r3, r6, #216	; 0xd8
 c0059ec:	ebfffba3 	bl	c004880 <Lcd_DspAscII8x16>
		LcdClrRect(0, 57, 100, 73, 0);
 c0059f0:	e3a02064 	mov	r2, #100	; 0x64
 c0059f4:	e3a03049 	mov	r3, #73	; 0x49
 c0059f8:	e1a00004 	mov	r0, r4
 c0059fc:	e3a01039 	mov	r1, #57	; 0x39
 c005a00:	e58d4000 	str	r4, [sp]
 c005a04:	ebfff36e 	bl	c0027c4 <LcdClrRect>
		itoa(tcalculos,snum);
 c005a08:	e28610d8 	add	r1, r6, #216	; 0xd8
 c005a0c:	e5950018 	ldr	r0, [r5, #24]
 c005a10:	ebfff1ff 	bl	c002214 <itoa>
		Lcd_DspAscII8x16(0,57,BLACK,snum);
 c005a14:	e1a00004 	mov	r0, r4
 c005a18:	e3a01039 	mov	r1, #57	; 0x39
 c005a1c:	e3a0200f 	mov	r2, #15
 c005a20:	e28630d8 	add	r3, r6, #216	; 0xd8
 c005a24:	ebfffb95 	bl	c004880 <Lcd_DspAscII8x16>
		LcdClrRect(0, 93, 100, 109, 0);
 c005a28:	e3a02064 	mov	r2, #100	; 0x64
 c005a2c:	e3a0306d 	mov	r3, #109	; 0x6d
 c005a30:	e1a00004 	mov	r0, r4
 c005a34:	e3a0105d 	mov	r1, #93	; 0x5d
 c005a38:	e58d4000 	str	r4, [sp]
 c005a3c:	ebfff360 	bl	c0027c4 <LcdClrRect>
		itoa(tvolteos,snum);
 c005a40:	e28610d8 	add	r1, r6, #216	; 0xd8
 c005a44:	e595001c 	ldr	r0, [r5, #28]
 c005a48:	ebfff1f1 	bl	c002214 <itoa>
		Lcd_DspAscII8x16(0,93,BLACK,snum);
 c005a4c:	e1a00004 	mov	r0, r4
 c005a50:	e3a0105d 	mov	r1, #93	; 0x5d
 c005a54:	e3a0200f 	mov	r2, #15
 c005a58:	e28630d8 	add	r3, r6, #216	; 0xd8
 c005a5c:	ebfffb87 	bl	c004880 <Lcd_DspAscII8x16>
		LcdClrRect(0, 129, 100,145, 0);
 c005a60:	e3a02064 	mov	r2, #100	; 0x64
 c005a64:	e3a03091 	mov	r3, #145	; 0x91
 c005a68:	e1a00004 	mov	r0, r4
 c005a6c:	e3a01081 	mov	r1, #129	; 0x81
 c005a70:	e58d4000 	str	r4, [sp]
 c005a74:	ebfff352 	bl	c0027c4 <LcdClrRect>
		itoa(nvolteos,snum);
 c005a78:	e28610d8 	add	r1, r6, #216	; 0xd8
 c005a7c:	e5950020 	ldr	r0, [r5, #32]
 c005a80:	ebfff1e3 	bl	c002214 <itoa>
		Lcd_DspAscII8x16(0,129,BLACK,snum);
 c005a84:	e3a01081 	mov	r1, #129	; 0x81
 c005a88:	e3a0200f 	mov	r2, #15
 c005a8c:	e28630d8 	add	r3, r6, #216	; 0xd8
 c005a90:	e1a00004 	mov	r0, r4
 c005a94:	ebfffb79 	bl	c004880 <Lcd_DspAscII8x16>

		//UNDER FICHA GRIS
		if((fMov!=oldfMov)|(cMov!=oldcMov)){	// Restauramos la ficha debajo de la ficha gris
 c005a98:	e59530d0 	ldr	r3, [r5, #208]	; 0xd0
 c005a9c:	e59520d4 	ldr	r2, [r5, #212]	; 0xd4
 c005aa0:	e2851084 	add	r1, r5, #132	; 0x84
 c005aa4:	e8911002 	ldm	r1, {r1, ip}
 c005aa8:	e1510003 	cmp	r1, r3
 c005aac:	015c0002 	cmpeq	ip, r2
 c005ab0:	1a0003bb 	bne	c0069a4 <Pantalla_juego+0x105c>
				BitmapView(120+(oldcMov*25),10+(oldfMov*25),Stru_Bitmap_fichaNegra);
			}
		}

		//FICHAS - matriz de cambios del tablero
		if(ncambios>0){
 c005ab4:	e5950080 	ldr	r0, [r5, #128]	; 0x80
 c005ab8:	e3500000 	cmp	r0, #0
 c005abc:	da0000f4 	ble	c005e94 <Pantalla_juego+0x54c>
 c005ac0:	e59f4e30 	ldr	r4, [pc, #3632]	; c0068f8 <Pantalla_juego+0xfb0>
			for (i = 0; i < DIM; i++){
				for (j = 0; j < DIM; j++){
					if(cambios[i][j] == 1){
						LcdClrRect(120+(j*25),10+(i*25),120+23+(j*25),10+23+(i*25), 0);
						BitmapView(120+(j*25),10+(i*25),Stru_Bitmap_fichaBlanca);
 c005ac4:	e59f8e64 	ldr	r8, [pc, #3684]	; c006930 <Pantalla_juego+0xfe8>
						cambios[i][j]=0;
						ncambios--;
					}else if(cambios[i][j] == 2){
						LcdClrRect(120+(j*25),10+(i*25),120+23+(j*25),10+23+(i*25), 0);
						BitmapView(120+(j*25),10+(i*25),Stru_Bitmap_fichaNegra);
 c005ac8:	e59fae5c 	ldr	sl, [pc, #3676]	; c00692c <Pantalla_juego+0xfe4>
				BitmapView(120+(oldcMov*25),10+(oldfMov*25),Stru_Bitmap_fichaNegra);
			}
		}

		//FICHAS - matriz de cambios del tablero
		if(ncambios>0){
 c005acc:	e3a07021 	mov	r7, #33	; 0x21
 c005ad0:	e3a0600a 	mov	r6, #10
 c005ad4:	ea00002d 	b	c005b90 <Pantalla_juego+0x248>
					if(cambios[i][j] == 1){
						LcdClrRect(120+(j*25),10+(i*25),120+23+(j*25),10+23+(i*25), 0);
						BitmapView(120+(j*25),10+(i*25),Stru_Bitmap_fichaBlanca);
						cambios[i][j]=0;
						ncambios--;
					}else if(cambios[i][j] == 2){
 c005ad8:	e3530002 	cmp	r3, #2
 c005adc:	0a00016c 	beq	c006094 <Pantalla_juego+0x74c>

		//FICHAS - matriz de cambios del tablero
		if(ncambios>0){
			for (i = 0; i < DIM; i++){
				for (j = 0; j < DIM; j++){
					if(cambios[i][j] == 1){
 c005ae0:	e5d43001 	ldrb	r3, [r4, #1]
 c005ae4:	e3530001 	cmp	r3, #1
 c005ae8:	0a000043 	beq	c005bfc <Pantalla_juego+0x2b4>
						LcdClrRect(120+(j*25),10+(i*25),120+23+(j*25),10+23+(i*25), 0);
						BitmapView(120+(j*25),10+(i*25),Stru_Bitmap_fichaBlanca);
						cambios[i][j]=0;
						ncambios--;
					}else if(cambios[i][j] == 2){
 c005aec:	e3530002 	cmp	r3, #2
 c005af0:	0a00015a 	beq	c006060 <Pantalla_juego+0x718>

		//FICHAS - matriz de cambios del tablero
		if(ncambios>0){
			for (i = 0; i < DIM; i++){
				for (j = 0; j < DIM; j++){
					if(cambios[i][j] == 1){
 c005af4:	e5d43002 	ldrb	r3, [r4, #2]
 c005af8:	e3530001 	cmp	r3, #1
 c005afc:	0a000056 	beq	c005c5c <Pantalla_juego+0x314>
						LcdClrRect(120+(j*25),10+(i*25),120+23+(j*25),10+23+(i*25), 0);
						BitmapView(120+(j*25),10+(i*25),Stru_Bitmap_fichaBlanca);
						cambios[i][j]=0;
						ncambios--;
					}else if(cambios[i][j] == 2){
 c005b00:	e3530002 	cmp	r3, #2
 c005b04:	0a000148 	beq	c00602c <Pantalla_juego+0x6e4>

		//FICHAS - matriz de cambios del tablero
		if(ncambios>0){
			for (i = 0; i < DIM; i++){
				for (j = 0; j < DIM; j++){
					if(cambios[i][j] == 1){
 c005b08:	e5d43003 	ldrb	r3, [r4, #3]
 c005b0c:	e3530001 	cmp	r3, #1
 c005b10:	0a000069 	beq	c005cbc <Pantalla_juego+0x374>
						LcdClrRect(120+(j*25),10+(i*25),120+23+(j*25),10+23+(i*25), 0);
						BitmapView(120+(j*25),10+(i*25),Stru_Bitmap_fichaBlanca);
						cambios[i][j]=0;
						ncambios--;
					}else if(cambios[i][j] == 2){
 c005b14:	e3530002 	cmp	r3, #2
 c005b18:	0a000136 	beq	c005ff8 <Pantalla_juego+0x6b0>

		//FICHAS - matriz de cambios del tablero
		if(ncambios>0){
			for (i = 0; i < DIM; i++){
				for (j = 0; j < DIM; j++){
					if(cambios[i][j] == 1){
 c005b1c:	e5d43004 	ldrb	r3, [r4, #4]
 c005b20:	e3530001 	cmp	r3, #1
 c005b24:	0a00007c 	beq	c005d1c <Pantalla_juego+0x3d4>
						LcdClrRect(120+(j*25),10+(i*25),120+23+(j*25),10+23+(i*25), 0);
						BitmapView(120+(j*25),10+(i*25),Stru_Bitmap_fichaBlanca);
						cambios[i][j]=0;
						ncambios--;
					}else if(cambios[i][j] == 2){
 c005b28:	e3530002 	cmp	r3, #2
 c005b2c:	0a000124 	beq	c005fc4 <Pantalla_juego+0x67c>

		//FICHAS - matriz de cambios del tablero
		if(ncambios>0){
			for (i = 0; i < DIM; i++){
				for (j = 0; j < DIM; j++){
					if(cambios[i][j] == 1){
 c005b30:	e5d43005 	ldrb	r3, [r4, #5]
 c005b34:	e3530001 	cmp	r3, #1
 c005b38:	0a00008f 	beq	c005d7c <Pantalla_juego+0x434>
						LcdClrRect(120+(j*25),10+(i*25),120+23+(j*25),10+23+(i*25), 0);
						BitmapView(120+(j*25),10+(i*25),Stru_Bitmap_fichaBlanca);
						cambios[i][j]=0;
						ncambios--;
					}else if(cambios[i][j] == 2){
 c005b3c:	e3530002 	cmp	r3, #2
 c005b40:	0a000112 	beq	c005f90 <Pantalla_juego+0x648>

		//FICHAS - matriz de cambios del tablero
		if(ncambios>0){
			for (i = 0; i < DIM; i++){
				for (j = 0; j < DIM; j++){
					if(cambios[i][j] == 1){
 c005b44:	e5d43006 	ldrb	r3, [r4, #6]
 c005b48:	e3530001 	cmp	r3, #1
 c005b4c:	0a0000a2 	beq	c005ddc <Pantalla_juego+0x494>
						LcdClrRect(120+(j*25),10+(i*25),120+23+(j*25),10+23+(i*25), 0);
						BitmapView(120+(j*25),10+(i*25),Stru_Bitmap_fichaBlanca);
						cambios[i][j]=0;
						ncambios--;
					}else if(cambios[i][j] == 2){
 c005b50:	e3530002 	cmp	r3, #2
 c005b54:	0a000100 	beq	c005f5c <Pantalla_juego+0x614>

		//FICHAS - matriz de cambios del tablero
		if(ncambios>0){
			for (i = 0; i < DIM; i++){
				for (j = 0; j < DIM; j++){
					if(cambios[i][j] == 1){
 c005b58:	e5d43007 	ldrb	r3, [r4, #7]
 c005b5c:	e3530001 	cmp	r3, #1
 c005b60:	0a0000b5 	beq	c005e3c <Pantalla_juego+0x4f4>
						LcdClrRect(120+(j*25),10+(i*25),120+23+(j*25),10+23+(i*25), 0);
						BitmapView(120+(j*25),10+(i*25),Stru_Bitmap_fichaBlanca);
						cambios[i][j]=0;
						ncambios--;
					}else if(cambios[i][j] == 2){
 c005b64:	e3530002 	cmp	r3, #2
 c005b68:	0a0000ee 	beq	c005f28 <Pantalla_juego+0x5e0>
				for (j = 0; j < DIM; j++){
					if(cambios[i][j] == 1){
						LcdClrRect(120+(j*25),10+(i*25),120+23+(j*25),10+23+(i*25), 0);
						BitmapView(120+(j*25),10+(i*25),Stru_Bitmap_fichaBlanca);
						cambios[i][j]=0;
						ncambios--;
 c005b6c:	e2862019 	add	r2, r6, #25
 c005b70:	e1a06802 	lsl	r6, r2, #16
 c005b74:	e2871019 	add	r1, r7, #25
 c005b78:	e1a06826 	lsr	r6, r6, #16
 c005b7c:	e1a07801 	lsl	r7, r1, #16
			}
		}

		//FICHAS - matriz de cambios del tablero
		if(ncambios>0){
			for (i = 0; i < DIM; i++){
 c005b80:	e35600d2 	cmp	r6, #210	; 0xd2
				for (j = 0; j < DIM; j++){
					if(cambios[i][j] == 1){
						LcdClrRect(120+(j*25),10+(i*25),120+23+(j*25),10+23+(i*25), 0);
						BitmapView(120+(j*25),10+(i*25),Stru_Bitmap_fichaBlanca);
						cambios[i][j]=0;
						ncambios--;
 c005b84:	e2844008 	add	r4, r4, #8
 c005b88:	e1a07827 	lsr	r7, r7, #16
			}
		}

		//FICHAS - matriz de cambios del tablero
		if(ncambios>0){
			for (i = 0; i < DIM; i++){
 c005b8c:	0a0000c0 	beq	c005e94 <Pantalla_juego+0x54c>
				for (j = 0; j < DIM; j++){
					if(cambios[i][j] == 1){
 c005b90:	e5d43000 	ldrb	r3, [r4]
 c005b94:	e3530001 	cmp	r3, #1
 c005b98:	1affffce 	bne	c005ad8 <Pantalla_juego+0x190>
						LcdClrRect(120+(j*25),10+(i*25),120+23+(j*25),10+23+(i*25), 0);
 c005b9c:	e1a03806 	lsl	r3, r6, #16
 c005ba0:	e1a0e807 	lsl	lr, r7, #16
 c005ba4:	e1a01843 	asr	r1, r3, #16
 c005ba8:	e3a00078 	mov	r0, #120	; 0x78
 c005bac:	e3a0208f 	mov	r2, #143	; 0x8f
 c005bb0:	e1a0384e 	asr	r3, lr, #16
 c005bb4:	e3a09000 	mov	r9, #0
 c005bb8:	e58d9000 	str	r9, [sp]
 c005bbc:	ebfff300 	bl	c0027c4 <LcdClrRect>
						BitmapView(120+(j*25),10+(i*25),Stru_Bitmap_fichaBlanca);
 c005bc0:	e59f1d34 	ldr	r1, [pc, #3380]	; c0068fc <Pantalla_juego+0xfb4>
 c005bc4:	e898000c 	ldm	r8, {r2, r3}
 c005bc8:	e8910003 	ldm	r1, {r0, r1}
 c005bcc:	e1a0e00d 	mov	lr, sp
 c005bd0:	e88e0003 	stm	lr, {r0, r1}
 c005bd4:	e3a00078 	mov	r0, #120	; 0x78
 c005bd8:	e1a01006 	mov	r1, r6
 c005bdc:	ebffec66 	bl	c000d7c <BitmapView>
						cambios[i][j]=0;
						ncambios--;
 c005be0:	e595c080 	ldr	ip, [r5, #128]	; 0x80

		//FICHAS - matriz de cambios del tablero
		if(ncambios>0){
			for (i = 0; i < DIM; i++){
				for (j = 0; j < DIM; j++){
					if(cambios[i][j] == 1){
 c005be4:	e5d43001 	ldrb	r3, [r4, #1]
						LcdClrRect(120+(j*25),10+(i*25),120+23+(j*25),10+23+(i*25), 0);
						BitmapView(120+(j*25),10+(i*25),Stru_Bitmap_fichaBlanca);
						cambios[i][j]=0;
						ncambios--;
 c005be8:	e24c0001 	sub	r0, ip, #1

		//FICHAS - matriz de cambios del tablero
		if(ncambios>0){
			for (i = 0; i < DIM; i++){
				for (j = 0; j < DIM; j++){
					if(cambios[i][j] == 1){
 c005bec:	e3530001 	cmp	r3, #1
						LcdClrRect(120+(j*25),10+(i*25),120+23+(j*25),10+23+(i*25), 0);
						BitmapView(120+(j*25),10+(i*25),Stru_Bitmap_fichaBlanca);
						cambios[i][j]=0;
 c005bf0:	e5c49000 	strb	r9, [r4]
						ncambios--;
 c005bf4:	e5850080 	str	r0, [r5, #128]	; 0x80

		//FICHAS - matriz de cambios del tablero
		if(ncambios>0){
			for (i = 0; i < DIM; i++){
				for (j = 0; j < DIM; j++){
					if(cambios[i][j] == 1){
 c005bf8:	1affffbb 	bne	c005aec <Pantalla_juego+0x1a4>
						LcdClrRect(120+(j*25),10+(i*25),120+23+(j*25),10+23+(i*25), 0);
 c005bfc:	e1a0e806 	lsl	lr, r6, #16
 c005c00:	e1a0c807 	lsl	ip, r7, #16
 c005c04:	e3a00091 	mov	r0, #145	; 0x91
 c005c08:	e1a0184e 	asr	r1, lr, #16
 c005c0c:	e3a020a8 	mov	r2, #168	; 0xa8
 c005c10:	e1a0384c 	asr	r3, ip, #16
 c005c14:	e3a09000 	mov	r9, #0
 c005c18:	e58d9000 	str	r9, [sp]
 c005c1c:	ebfff2e8 	bl	c0027c4 <LcdClrRect>
						BitmapView(120+(j*25),10+(i*25),Stru_Bitmap_fichaBlanca);
 c005c20:	e59f0cd4 	ldr	r0, [pc, #3284]	; c0068fc <Pantalla_juego+0xfb4>
 c005c24:	e898000c 	ldm	r8, {r2, r3}
 c005c28:	e8900003 	ldm	r0, {r0, r1}
 c005c2c:	e1a0c00d 	mov	ip, sp
 c005c30:	e88c0003 	stm	ip, {r0, r1}
 c005c34:	e3a00091 	mov	r0, #145	; 0x91
 c005c38:	e1a01006 	mov	r1, r6
 c005c3c:	ebffec4e 	bl	c000d7c <BitmapView>
						cambios[i][j]=0;
						ncambios--;
 c005c40:	e5953080 	ldr	r3, [r5, #128]	; 0x80
 c005c44:	e2432001 	sub	r2, r3, #1

		//FICHAS - matriz de cambios del tablero
		if(ncambios>0){
			for (i = 0; i < DIM; i++){
				for (j = 0; j < DIM; j++){
					if(cambios[i][j] == 1){
 c005c48:	e5d43002 	ldrb	r3, [r4, #2]
 c005c4c:	e3530001 	cmp	r3, #1
						LcdClrRect(120+(j*25),10+(i*25),120+23+(j*25),10+23+(i*25), 0);
						BitmapView(120+(j*25),10+(i*25),Stru_Bitmap_fichaBlanca);
						cambios[i][j]=0;
 c005c50:	e5c49001 	strb	r9, [r4, #1]
						ncambios--;
 c005c54:	e5852080 	str	r2, [r5, #128]	; 0x80

		//FICHAS - matriz de cambios del tablero
		if(ncambios>0){
			for (i = 0; i < DIM; i++){
				for (j = 0; j < DIM; j++){
					if(cambios[i][j] == 1){
 c005c58:	1affffa8 	bne	c005b00 <Pantalla_juego+0x1b8>
						LcdClrRect(120+(j*25),10+(i*25),120+23+(j*25),10+23+(i*25), 0);
 c005c5c:	e1a0c806 	lsl	ip, r6, #16
 c005c60:	e1a03807 	lsl	r3, r7, #16
 c005c64:	e3a000aa 	mov	r0, #170	; 0xaa
 c005c68:	e1a0184c 	asr	r1, ip, #16
 c005c6c:	e3a020c1 	mov	r2, #193	; 0xc1
 c005c70:	e1a03843 	asr	r3, r3, #16
 c005c74:	e3a09000 	mov	r9, #0
 c005c78:	e58d9000 	str	r9, [sp]
 c005c7c:	ebfff2d0 	bl	c0027c4 <LcdClrRect>
						BitmapView(120+(j*25),10+(i*25),Stru_Bitmap_fichaBlanca);
 c005c80:	e59f0c74 	ldr	r0, [pc, #3188]	; c0068fc <Pantalla_juego+0xfb4>
 c005c84:	e898000c 	ldm	r8, {r2, r3}
 c005c88:	e8900003 	ldm	r0, {r0, r1}
 c005c8c:	e1a0e00d 	mov	lr, sp
 c005c90:	e88e0003 	stm	lr, {r0, r1}
 c005c94:	e1a01006 	mov	r1, r6
 c005c98:	e3a000aa 	mov	r0, #170	; 0xaa
 c005c9c:	ebffec36 	bl	c000d7c <BitmapView>
						cambios[i][j]=0;
						ncambios--;
 c005ca0:	e5952080 	ldr	r2, [r5, #128]	; 0x80

		//FICHAS - matriz de cambios del tablero
		if(ncambios>0){
			for (i = 0; i < DIM; i++){
				for (j = 0; j < DIM; j++){
					if(cambios[i][j] == 1){
 c005ca4:	e5d43003 	ldrb	r3, [r4, #3]
						LcdClrRect(120+(j*25),10+(i*25),120+23+(j*25),10+23+(i*25), 0);
						BitmapView(120+(j*25),10+(i*25),Stru_Bitmap_fichaBlanca);
						cambios[i][j]=0;
						ncambios--;
 c005ca8:	e2421001 	sub	r1, r2, #1

		//FICHAS - matriz de cambios del tablero
		if(ncambios>0){
			for (i = 0; i < DIM; i++){
				for (j = 0; j < DIM; j++){
					if(cambios[i][j] == 1){
 c005cac:	e3530001 	cmp	r3, #1
						LcdClrRect(120+(j*25),10+(i*25),120+23+(j*25),10+23+(i*25), 0);
						BitmapView(120+(j*25),10+(i*25),Stru_Bitmap_fichaBlanca);
						cambios[i][j]=0;
 c005cb0:	e5c49002 	strb	r9, [r4, #2]
						ncambios--;
 c005cb4:	e5851080 	str	r1, [r5, #128]	; 0x80

		//FICHAS - matriz de cambios del tablero
		if(ncambios>0){
			for (i = 0; i < DIM; i++){
				for (j = 0; j < DIM; j++){
					if(cambios[i][j] == 1){
 c005cb8:	1affff95 	bne	c005b14 <Pantalla_juego+0x1cc>
						LcdClrRect(120+(j*25),10+(i*25),120+23+(j*25),10+23+(i*25), 0);
 c005cbc:	e1a02806 	lsl	r2, r6, #16
 c005cc0:	e1a0e807 	lsl	lr, r7, #16
 c005cc4:	e1a01842 	asr	r1, r2, #16
 c005cc8:	e3a000c3 	mov	r0, #195	; 0xc3
 c005ccc:	e3a020da 	mov	r2, #218	; 0xda
 c005cd0:	e1a0384e 	asr	r3, lr, #16
 c005cd4:	e3a09000 	mov	r9, #0
 c005cd8:	e58d9000 	str	r9, [sp]
 c005cdc:	ebfff2b8 	bl	c0027c4 <LcdClrRect>
						BitmapView(120+(j*25),10+(i*25),Stru_Bitmap_fichaBlanca);
 c005ce0:	e59f1c14 	ldr	r1, [pc, #3092]	; c0068fc <Pantalla_juego+0xfb4>
 c005ce4:	e898000c 	ldm	r8, {r2, r3}
 c005ce8:	e8910003 	ldm	r1, {r0, r1}
 c005cec:	e1a0c00d 	mov	ip, sp
 c005cf0:	e88c0003 	stm	ip, {r0, r1}
 c005cf4:	e3a000c3 	mov	r0, #195	; 0xc3
 c005cf8:	e1a01006 	mov	r1, r6
 c005cfc:	ebffec1e 	bl	c000d7c <BitmapView>
						cambios[i][j]=0;
						ncambios--;
 c005d00:	e5953080 	ldr	r3, [r5, #128]	; 0x80
 c005d04:	e2430001 	sub	r0, r3, #1

		//FICHAS - matriz de cambios del tablero
		if(ncambios>0){
			for (i = 0; i < DIM; i++){
				for (j = 0; j < DIM; j++){
					if(cambios[i][j] == 1){
 c005d08:	e5d43004 	ldrb	r3, [r4, #4]
 c005d0c:	e3530001 	cmp	r3, #1
						LcdClrRect(120+(j*25),10+(i*25),120+23+(j*25),10+23+(i*25), 0);
						BitmapView(120+(j*25),10+(i*25),Stru_Bitmap_fichaBlanca);
						cambios[i][j]=0;
 c005d10:	e5c49003 	strb	r9, [r4, #3]
						ncambios--;
 c005d14:	e5850080 	str	r0, [r5, #128]	; 0x80

		//FICHAS - matriz de cambios del tablero
		if(ncambios>0){
			for (i = 0; i < DIM; i++){
				for (j = 0; j < DIM; j++){
					if(cambios[i][j] == 1){
 c005d18:	1affff82 	bne	c005b28 <Pantalla_juego+0x1e0>
						LcdClrRect(120+(j*25),10+(i*25),120+23+(j*25),10+23+(i*25), 0);
 c005d1c:	e1a0c806 	lsl	ip, r6, #16
 c005d20:	e1a03807 	lsl	r3, r7, #16
 c005d24:	e3a000dc 	mov	r0, #220	; 0xdc
 c005d28:	e1a0184c 	asr	r1, ip, #16
 c005d2c:	e3a020f3 	mov	r2, #243	; 0xf3
 c005d30:	e1a03843 	asr	r3, r3, #16
 c005d34:	e3a09000 	mov	r9, #0
 c005d38:	e58d9000 	str	r9, [sp]
 c005d3c:	ebfff2a0 	bl	c0027c4 <LcdClrRect>
						BitmapView(120+(j*25),10+(i*25),Stru_Bitmap_fichaBlanca);
 c005d40:	e59f0bb4 	ldr	r0, [pc, #2996]	; c0068fc <Pantalla_juego+0xfb4>
 c005d44:	e898000c 	ldm	r8, {r2, r3}
 c005d48:	e8900003 	ldm	r0, {r0, r1}
 c005d4c:	e1a0e00d 	mov	lr, sp
 c005d50:	e88e0003 	stm	lr, {r0, r1}
 c005d54:	e1a01006 	mov	r1, r6
 c005d58:	e3a000dc 	mov	r0, #220	; 0xdc
 c005d5c:	ebffec06 	bl	c000d7c <BitmapView>
						cambios[i][j]=0;
						ncambios--;
 c005d60:	e5952080 	ldr	r2, [r5, #128]	; 0x80

		//FICHAS - matriz de cambios del tablero
		if(ncambios>0){
			for (i = 0; i < DIM; i++){
				for (j = 0; j < DIM; j++){
					if(cambios[i][j] == 1){
 c005d64:	e5d43005 	ldrb	r3, [r4, #5]
						LcdClrRect(120+(j*25),10+(i*25),120+23+(j*25),10+23+(i*25), 0);
						BitmapView(120+(j*25),10+(i*25),Stru_Bitmap_fichaBlanca);
						cambios[i][j]=0;
						ncambios--;
 c005d68:	e2421001 	sub	r1, r2, #1

		//FICHAS - matriz de cambios del tablero
		if(ncambios>0){
			for (i = 0; i < DIM; i++){
				for (j = 0; j < DIM; j++){
					if(cambios[i][j] == 1){
 c005d6c:	e3530001 	cmp	r3, #1
						LcdClrRect(120+(j*25),10+(i*25),120+23+(j*25),10+23+(i*25), 0);
						BitmapView(120+(j*25),10+(i*25),Stru_Bitmap_fichaBlanca);
						cambios[i][j]=0;
 c005d70:	e5c49004 	strb	r9, [r4, #4]
						ncambios--;
 c005d74:	e5851080 	str	r1, [r5, #128]	; 0x80

		//FICHAS - matriz de cambios del tablero
		if(ncambios>0){
			for (i = 0; i < DIM; i++){
				for (j = 0; j < DIM; j++){
					if(cambios[i][j] == 1){
 c005d78:	1affff6f 	bne	c005b3c <Pantalla_juego+0x1f4>
						LcdClrRect(120+(j*25),10+(i*25),120+23+(j*25),10+23+(i*25), 0);
 c005d7c:	e1a02806 	lsl	r2, r6, #16
 c005d80:	e1a0e807 	lsl	lr, r7, #16
 c005d84:	e1a01842 	asr	r1, r2, #16
 c005d88:	e3a000f5 	mov	r0, #245	; 0xf5
 c005d8c:	e3a02f43 	mov	r2, #268	; 0x10c
 c005d90:	e1a0384e 	asr	r3, lr, #16
 c005d94:	e3a09000 	mov	r9, #0
 c005d98:	e58d9000 	str	r9, [sp]
 c005d9c:	ebfff288 	bl	c0027c4 <LcdClrRect>
						BitmapView(120+(j*25),10+(i*25),Stru_Bitmap_fichaBlanca);
 c005da0:	e59f1b54 	ldr	r1, [pc, #2900]	; c0068fc <Pantalla_juego+0xfb4>
 c005da4:	e898000c 	ldm	r8, {r2, r3}
 c005da8:	e8910003 	ldm	r1, {r0, r1}
 c005dac:	e1a0c00d 	mov	ip, sp
 c005db0:	e88c0003 	stm	ip, {r0, r1}
 c005db4:	e3a000f5 	mov	r0, #245	; 0xf5
 c005db8:	e1a01006 	mov	r1, r6
 c005dbc:	ebffebee 	bl	c000d7c <BitmapView>
						cambios[i][j]=0;
						ncambios--;
 c005dc0:	e5953080 	ldr	r3, [r5, #128]	; 0x80
 c005dc4:	e2430001 	sub	r0, r3, #1

		//FICHAS - matriz de cambios del tablero
		if(ncambios>0){
			for (i = 0; i < DIM; i++){
				for (j = 0; j < DIM; j++){
					if(cambios[i][j] == 1){
 c005dc8:	e5d43006 	ldrb	r3, [r4, #6]
 c005dcc:	e3530001 	cmp	r3, #1
						LcdClrRect(120+(j*25),10+(i*25),120+23+(j*25),10+23+(i*25), 0);
						BitmapView(120+(j*25),10+(i*25),Stru_Bitmap_fichaBlanca);
						cambios[i][j]=0;
 c005dd0:	e5c49005 	strb	r9, [r4, #5]
						ncambios--;
 c005dd4:	e5850080 	str	r0, [r5, #128]	; 0x80

		//FICHAS - matriz de cambios del tablero
		if(ncambios>0){
			for (i = 0; i < DIM; i++){
				for (j = 0; j < DIM; j++){
					if(cambios[i][j] == 1){
 c005dd8:	1affff5c 	bne	c005b50 <Pantalla_juego+0x208>
						LcdClrRect(120+(j*25),10+(i*25),120+23+(j*25),10+23+(i*25), 0);
 c005ddc:	e1a0c806 	lsl	ip, r6, #16
 c005de0:	e1a03807 	lsl	r3, r7, #16
 c005de4:	e59f0b14 	ldr	r0, [pc, #2836]	; c006900 <Pantalla_juego+0xfb8>
 c005de8:	e1a0184c 	asr	r1, ip, #16
 c005dec:	e59f2b10 	ldr	r2, [pc, #2832]	; c006904 <Pantalla_juego+0xfbc>
 c005df0:	e1a03843 	asr	r3, r3, #16
 c005df4:	e3a09000 	mov	r9, #0
 c005df8:	e58d9000 	str	r9, [sp]
 c005dfc:	ebfff270 	bl	c0027c4 <LcdClrRect>
						BitmapView(120+(j*25),10+(i*25),Stru_Bitmap_fichaBlanca);
 c005e00:	e59f0af4 	ldr	r0, [pc, #2804]	; c0068fc <Pantalla_juego+0xfb4>
 c005e04:	e898000c 	ldm	r8, {r2, r3}
 c005e08:	e8900003 	ldm	r0, {r0, r1}
 c005e0c:	e1a0e00d 	mov	lr, sp
 c005e10:	e88e0003 	stm	lr, {r0, r1}
 c005e14:	e1a01006 	mov	r1, r6
 c005e18:	e59f0ae0 	ldr	r0, [pc, #2784]	; c006900 <Pantalla_juego+0xfb8>
 c005e1c:	ebffebd6 	bl	c000d7c <BitmapView>
						cambios[i][j]=0;
						ncambios--;
 c005e20:	e5952080 	ldr	r2, [r5, #128]	; 0x80

		//FICHAS - matriz de cambios del tablero
		if(ncambios>0){
			for (i = 0; i < DIM; i++){
				for (j = 0; j < DIM; j++){
					if(cambios[i][j] == 1){
 c005e24:	e5d43007 	ldrb	r3, [r4, #7]
						LcdClrRect(120+(j*25),10+(i*25),120+23+(j*25),10+23+(i*25), 0);
						BitmapView(120+(j*25),10+(i*25),Stru_Bitmap_fichaBlanca);
						cambios[i][j]=0;
						ncambios--;
 c005e28:	e2421001 	sub	r1, r2, #1

		//FICHAS - matriz de cambios del tablero
		if(ncambios>0){
			for (i = 0; i < DIM; i++){
				for (j = 0; j < DIM; j++){
					if(cambios[i][j] == 1){
 c005e2c:	e3530001 	cmp	r3, #1
						LcdClrRect(120+(j*25),10+(i*25),120+23+(j*25),10+23+(i*25), 0);
						BitmapView(120+(j*25),10+(i*25),Stru_Bitmap_fichaBlanca);
						cambios[i][j]=0;
 c005e30:	e5c49006 	strb	r9, [r4, #6]
						ncambios--;
 c005e34:	e5851080 	str	r1, [r5, #128]	; 0x80

		//FICHAS - matriz de cambios del tablero
		if(ncambios>0){
			for (i = 0; i < DIM; i++){
				for (j = 0; j < DIM; j++){
					if(cambios[i][j] == 1){
 c005e38:	1affff49 	bne	c005b64 <Pantalla_juego+0x21c>
						LcdClrRect(120+(j*25),10+(i*25),120+23+(j*25),10+23+(i*25), 0);
 c005e3c:	e1a02806 	lsl	r2, r6, #16
 c005e40:	e1a0e807 	lsl	lr, r7, #16
 c005e44:	e1a01842 	asr	r1, r2, #16
 c005e48:	e59f0ab8 	ldr	r0, [pc, #2744]	; c006908 <Pantalla_juego+0xfc0>
 c005e4c:	e59f2ab8 	ldr	r2, [pc, #2744]	; c00690c <Pantalla_juego+0xfc4>
 c005e50:	e1a0384e 	asr	r3, lr, #16
 c005e54:	e3a09000 	mov	r9, #0
 c005e58:	e58d9000 	str	r9, [sp]
 c005e5c:	ebfff258 	bl	c0027c4 <LcdClrRect>
						BitmapView(120+(j*25),10+(i*25),Stru_Bitmap_fichaBlanca);
 c005e60:	e59f1a94 	ldr	r1, [pc, #2708]	; c0068fc <Pantalla_juego+0xfb4>
 c005e64:	e898000c 	ldm	r8, {r2, r3}
 c005e68:	e8910003 	ldm	r1, {r0, r1}
 c005e6c:	e1a0c00d 	mov	ip, sp
 c005e70:	e88c0003 	stm	ip, {r0, r1}
 c005e74:	e59f0a8c 	ldr	r0, [pc, #2700]	; c006908 <Pantalla_juego+0xfc0>
 c005e78:	e1a01006 	mov	r1, r6
 c005e7c:	ebffebbe 	bl	c000d7c <BitmapView>
						cambios[i][j]=0;
						ncambios--;
 c005e80:	e5953080 	ldr	r3, [r5, #128]	; 0x80
 c005e84:	e2430001 	sub	r0, r3, #1
			for (i = 0; i < DIM; i++){
				for (j = 0; j < DIM; j++){
					if(cambios[i][j] == 1){
						LcdClrRect(120+(j*25),10+(i*25),120+23+(j*25),10+23+(i*25), 0);
						BitmapView(120+(j*25),10+(i*25),Stru_Bitmap_fichaBlanca);
						cambios[i][j]=0;
 c005e88:	e5c49007 	strb	r9, [r4, #7]
						ncambios--;
 c005e8c:	e5850080 	str	r0, [r5, #128]	; 0x80
 c005e90:	eaffff35 	b	c005b6c <Pantalla_juego+0x224>
				}
			}
		}

		//FICHA GRIS
		if((fMov!=oldfMov)|(cMov!=oldcMov)){
 c005e94:	e59540d4 	ldr	r4, [r5, #212]	; 0xd4
 c005e98:	e595c084 	ldr	ip, [r5, #132]	; 0x84
 c005e9c:	e5952088 	ldr	r2, [r5, #136]	; 0x88
 c005ea0:	e59500d0 	ldr	r0, [r5, #208]	; 0xd0
 c005ea4:	e15c0000 	cmp	ip, r0
 c005ea8:	01520004 	cmpeq	r2, r4
 c005eac:	e59f4a40 	ldr	r4, [pc, #2624]	; c0068f4 <Pantalla_juego+0xfac>
 c005eb0:	1a000002 	bne	c005ec0 <Pantalla_juego+0x578>
			oldfMov=fMov;						// colocamos la ficha gris,
			oldcMov=cMov;						// guardamos su posicion,
			underGris=toblerone[fMov][cMov];	// guardamos la ficha de debajo
		}
	}
}
 c005eb4:	e24bd028 	sub	sp, fp, #40	; 0x28
 c005eb8:	e89d6ff0 	ldm	sp, {r4, r5, r6, r7, r8, r9, sl, fp, sp, lr}
 c005ebc:	e12fff1e 	bx	lr
			}
		}

		//FICHA GRIS
		if((fMov!=oldfMov)|(cMov!=oldcMov)){
			BitmapView(120+(cMov*25),10+(fMov*25),Stru_Bitmap_fichaGris);
 c005ec0:	e59f3a48 	ldr	r3, [pc, #2632]	; c006910 <Pantalla_juego+0xfc8>
 c005ec4:	e08c010c 	add	r0, ip, ip, lsl #2
 c005ec8:	e2831008 	add	r1, r3, #8
 c005ecc:	e0822102 	add	r2, r2, r2, lsl #2
 c005ed0:	e080c100 	add	ip, r0, r0, lsl #2
 c005ed4:	e8910003 	ldm	r1, {r0, r1}
 c005ed8:	e082e102 	add	lr, r2, r2, lsl #2
 c005edc:	e1a0200d 	mov	r2, sp
 c005ee0:	e8820003 	stm	r2, {r0, r1}
 c005ee4:	e28ee078 	add	lr, lr, #120	; 0x78
 c005ee8:	e28cc00a 	add	ip, ip, #10
 c005eec:	e1a0c80c 	lsl	ip, ip, #16
 c005ef0:	e1a0e80e 	lsl	lr, lr, #16
 c005ef4:	e893000c 	ldm	r3, {r2, r3}
 c005ef8:	e1a0182c 	lsr	r1, ip, #16
 c005efc:	e1a0082e 	lsr	r0, lr, #16
 c005f00:	ebffeb9d 	bl	c000d7c <BitmapView>
			oldfMov=fMov;						// colocamos la ficha gris,
 c005f04:	e2842084 	add	r2, r4, #132	; 0x84
 c005f08:	e892000c 	ldm	r2, {r2, r3}
			oldcMov=cMov;						// guardamos su posicion,
			underGris=toblerone[fMov][cMov];	// guardamos la ficha de debajo
 c005f0c:	e0840182 	add	r0, r4, r2, lsl #3
 c005f10:	e0801003 	add	r1, r0, r3
 c005f14:	e5d1c090 	ldrb	ip, [r1, #144]	; 0x90
		}

		//FICHA GRIS
		if((fMov!=oldfMov)|(cMov!=oldcMov)){
			BitmapView(120+(cMov*25),10+(fMov*25),Stru_Bitmap_fichaGris);
			oldfMov=fMov;						// colocamos la ficha gris,
 c005f18:	e58420d0 	str	r2, [r4, #208]	; 0xd0
			oldcMov=cMov;						// guardamos su posicion,
 c005f1c:	e58430d4 	str	r3, [r4, #212]	; 0xd4
			underGris=toblerone[fMov][cMov];	// guardamos la ficha de debajo
 c005f20:	e5c4c08c 	strb	ip, [r4, #140]	; 0x8c
 c005f24:	eaffffe2 	b	c005eb4 <Pantalla_juego+0x56c>
						LcdClrRect(120+(j*25),10+(i*25),120+23+(j*25),10+23+(i*25), 0);
						BitmapView(120+(j*25),10+(i*25),Stru_Bitmap_fichaBlanca);
						cambios[i][j]=0;
						ncambios--;
					}else if(cambios[i][j] == 2){
						LcdClrRect(120+(j*25),10+(i*25),120+23+(j*25),10+23+(i*25), 0);
 c005f28:	e1a0c806 	lsl	ip, r6, #16
 c005f2c:	e1a03807 	lsl	r3, r7, #16
 c005f30:	e59f09d0 	ldr	r0, [pc, #2512]	; c006908 <Pantalla_juego+0xfc0>
 c005f34:	e1a0184c 	asr	r1, ip, #16
 c005f38:	e59f29cc 	ldr	r2, [pc, #2508]	; c00690c <Pantalla_juego+0xfc4>
 c005f3c:	e1a03843 	asr	r3, r3, #16
 c005f40:	e3a09000 	mov	r9, #0
 c005f44:	e58d9000 	str	r9, [sp]
 c005f48:	ebfff21d 	bl	c0027c4 <LcdClrRect>
						BitmapView(120+(j*25),10+(i*25),Stru_Bitmap_fichaNegra);
 c005f4c:	e59f09d4 	ldr	r0, [pc, #2516]	; c006928 <Pantalla_juego+0xfe0>
 c005f50:	e89a000c 	ldm	sl, {r2, r3}
 c005f54:	e8900003 	ldm	r0, {r0, r1}
 c005f58:	eaffffc3 	b	c005e6c <Pantalla_juego+0x524>
						LcdClrRect(120+(j*25),10+(i*25),120+23+(j*25),10+23+(i*25), 0);
						BitmapView(120+(j*25),10+(i*25),Stru_Bitmap_fichaBlanca);
						cambios[i][j]=0;
						ncambios--;
					}else if(cambios[i][j] == 2){
						LcdClrRect(120+(j*25),10+(i*25),120+23+(j*25),10+23+(i*25), 0);
 c005f5c:	e1a02806 	lsl	r2, r6, #16
 c005f60:	e1a0e807 	lsl	lr, r7, #16
 c005f64:	e1a01842 	asr	r1, r2, #16
 c005f68:	e59f0990 	ldr	r0, [pc, #2448]	; c006900 <Pantalla_juego+0xfb8>
 c005f6c:	e59f2990 	ldr	r2, [pc, #2448]	; c006904 <Pantalla_juego+0xfbc>
 c005f70:	e1a0384e 	asr	r3, lr, #16
 c005f74:	e3a09000 	mov	r9, #0
 c005f78:	e58d9000 	str	r9, [sp]
 c005f7c:	ebfff210 	bl	c0027c4 <LcdClrRect>
						BitmapView(120+(j*25),10+(i*25),Stru_Bitmap_fichaNegra);
 c005f80:	e59f19a0 	ldr	r1, [pc, #2464]	; c006928 <Pantalla_juego+0xfe0>
 c005f84:	e89a000c 	ldm	sl, {r2, r3}
 c005f88:	e8910003 	ldm	r1, {r0, r1}
 c005f8c:	eaffff9e 	b	c005e0c <Pantalla_juego+0x4c4>
						LcdClrRect(120+(j*25),10+(i*25),120+23+(j*25),10+23+(i*25), 0);
						BitmapView(120+(j*25),10+(i*25),Stru_Bitmap_fichaBlanca);
						cambios[i][j]=0;
						ncambios--;
					}else if(cambios[i][j] == 2){
						LcdClrRect(120+(j*25),10+(i*25),120+23+(j*25),10+23+(i*25), 0);
 c005f90:	e1a0c806 	lsl	ip, r6, #16
 c005f94:	e1a03807 	lsl	r3, r7, #16
 c005f98:	e3a000f5 	mov	r0, #245	; 0xf5
 c005f9c:	e1a0184c 	asr	r1, ip, #16
 c005fa0:	e3a02f43 	mov	r2, #268	; 0x10c
 c005fa4:	e1a03843 	asr	r3, r3, #16
 c005fa8:	e3a09000 	mov	r9, #0
 c005fac:	e58d9000 	str	r9, [sp]
 c005fb0:	ebfff203 	bl	c0027c4 <LcdClrRect>
						BitmapView(120+(j*25),10+(i*25),Stru_Bitmap_fichaNegra);
 c005fb4:	e59f096c 	ldr	r0, [pc, #2412]	; c006928 <Pantalla_juego+0xfe0>
 c005fb8:	e89a000c 	ldm	sl, {r2, r3}
 c005fbc:	e8900003 	ldm	r0, {r0, r1}
 c005fc0:	eaffff79 	b	c005dac <Pantalla_juego+0x464>
						LcdClrRect(120+(j*25),10+(i*25),120+23+(j*25),10+23+(i*25), 0);
						BitmapView(120+(j*25),10+(i*25),Stru_Bitmap_fichaBlanca);
						cambios[i][j]=0;
						ncambios--;
					}else if(cambios[i][j] == 2){
						LcdClrRect(120+(j*25),10+(i*25),120+23+(j*25),10+23+(i*25), 0);
 c005fc4:	e1a02806 	lsl	r2, r6, #16
 c005fc8:	e1a0e807 	lsl	lr, r7, #16
 c005fcc:	e1a01842 	asr	r1, r2, #16
 c005fd0:	e3a000dc 	mov	r0, #220	; 0xdc
 c005fd4:	e3a020f3 	mov	r2, #243	; 0xf3
 c005fd8:	e1a0384e 	asr	r3, lr, #16
 c005fdc:	e3a09000 	mov	r9, #0
 c005fe0:	e58d9000 	str	r9, [sp]
 c005fe4:	ebfff1f6 	bl	c0027c4 <LcdClrRect>
						BitmapView(120+(j*25),10+(i*25),Stru_Bitmap_fichaNegra);
 c005fe8:	e59f1938 	ldr	r1, [pc, #2360]	; c006928 <Pantalla_juego+0xfe0>
 c005fec:	e89a000c 	ldm	sl, {r2, r3}
 c005ff0:	e8910003 	ldm	r1, {r0, r1}
 c005ff4:	eaffff54 	b	c005d4c <Pantalla_juego+0x404>
						LcdClrRect(120+(j*25),10+(i*25),120+23+(j*25),10+23+(i*25), 0);
						BitmapView(120+(j*25),10+(i*25),Stru_Bitmap_fichaBlanca);
						cambios[i][j]=0;
						ncambios--;
					}else if(cambios[i][j] == 2){
						LcdClrRect(120+(j*25),10+(i*25),120+23+(j*25),10+23+(i*25), 0);
 c005ff8:	e1a0c806 	lsl	ip, r6, #16
 c005ffc:	e1a03807 	lsl	r3, r7, #16
 c006000:	e3a000c3 	mov	r0, #195	; 0xc3
 c006004:	e1a0184c 	asr	r1, ip, #16
 c006008:	e3a020da 	mov	r2, #218	; 0xda
 c00600c:	e1a03843 	asr	r3, r3, #16
 c006010:	e3a09000 	mov	r9, #0
 c006014:	e58d9000 	str	r9, [sp]
 c006018:	ebfff1e9 	bl	c0027c4 <LcdClrRect>
						BitmapView(120+(j*25),10+(i*25),Stru_Bitmap_fichaNegra);
 c00601c:	e59f0904 	ldr	r0, [pc, #2308]	; c006928 <Pantalla_juego+0xfe0>
 c006020:	e89a000c 	ldm	sl, {r2, r3}
 c006024:	e8900003 	ldm	r0, {r0, r1}
 c006028:	eaffff2f 	b	c005cec <Pantalla_juego+0x3a4>
						LcdClrRect(120+(j*25),10+(i*25),120+23+(j*25),10+23+(i*25), 0);
						BitmapView(120+(j*25),10+(i*25),Stru_Bitmap_fichaBlanca);
						cambios[i][j]=0;
						ncambios--;
					}else if(cambios[i][j] == 2){
						LcdClrRect(120+(j*25),10+(i*25),120+23+(j*25),10+23+(i*25), 0);
 c00602c:	e1a02806 	lsl	r2, r6, #16
 c006030:	e1a0e807 	lsl	lr, r7, #16
 c006034:	e1a01842 	asr	r1, r2, #16
 c006038:	e3a000aa 	mov	r0, #170	; 0xaa
 c00603c:	e3a020c1 	mov	r2, #193	; 0xc1
 c006040:	e1a0384e 	asr	r3, lr, #16
 c006044:	e3a09000 	mov	r9, #0
 c006048:	e58d9000 	str	r9, [sp]
 c00604c:	ebfff1dc 	bl	c0027c4 <LcdClrRect>
						BitmapView(120+(j*25),10+(i*25),Stru_Bitmap_fichaNegra);
 c006050:	e59f18d0 	ldr	r1, [pc, #2256]	; c006928 <Pantalla_juego+0xfe0>
 c006054:	e89a000c 	ldm	sl, {r2, r3}
 c006058:	e8910003 	ldm	r1, {r0, r1}
 c00605c:	eaffff0a 	b	c005c8c <Pantalla_juego+0x344>
						LcdClrRect(120+(j*25),10+(i*25),120+23+(j*25),10+23+(i*25), 0);
						BitmapView(120+(j*25),10+(i*25),Stru_Bitmap_fichaBlanca);
						cambios[i][j]=0;
						ncambios--;
					}else if(cambios[i][j] == 2){
						LcdClrRect(120+(j*25),10+(i*25),120+23+(j*25),10+23+(i*25), 0);
 c006060:	e1a01806 	lsl	r1, r6, #16
 c006064:	e1a03807 	lsl	r3, r7, #16
 c006068:	e3a00091 	mov	r0, #145	; 0x91
 c00606c:	e1a01841 	asr	r1, r1, #16
 c006070:	e3a020a8 	mov	r2, #168	; 0xa8
 c006074:	e1a03843 	asr	r3, r3, #16
 c006078:	e3a09000 	mov	r9, #0
 c00607c:	e58d9000 	str	r9, [sp]
 c006080:	ebfff1cf 	bl	c0027c4 <LcdClrRect>
						BitmapView(120+(j*25),10+(i*25),Stru_Bitmap_fichaNegra);
 c006084:	e59f289c 	ldr	r2, [pc, #2204]	; c006928 <Pantalla_juego+0xfe0>
 c006088:	e8920003 	ldm	r2, {r0, r1}
 c00608c:	e89a000c 	ldm	sl, {r2, r3}
 c006090:	eafffee5 	b	c005c2c <Pantalla_juego+0x2e4>
						LcdClrRect(120+(j*25),10+(i*25),120+23+(j*25),10+23+(i*25), 0);
						BitmapView(120+(j*25),10+(i*25),Stru_Bitmap_fichaBlanca);
						cambios[i][j]=0;
						ncambios--;
					}else if(cambios[i][j] == 2){
						LcdClrRect(120+(j*25),10+(i*25),120+23+(j*25),10+23+(i*25), 0);
 c006094:	e1a02806 	lsl	r2, r6, #16
 c006098:	e1a0c807 	lsl	ip, r7, #16
 c00609c:	e1a01842 	asr	r1, r2, #16
 c0060a0:	e3a00078 	mov	r0, #120	; 0x78
 c0060a4:	e3a0208f 	mov	r2, #143	; 0x8f
 c0060a8:	e1a0384c 	asr	r3, ip, #16
 c0060ac:	e3a09000 	mov	r9, #0
 c0060b0:	e58d9000 	str	r9, [sp]
 c0060b4:	ebfff1c2 	bl	c0027c4 <LcdClrRect>
						BitmapView(120+(j*25),10+(i*25),Stru_Bitmap_fichaNegra);
 c0060b8:	e59f3868 	ldr	r3, [pc, #2152]	; c006928 <Pantalla_juego+0xfe0>
 c0060bc:	e8930003 	ldm	r3, {r0, r1}
 c0060c0:	e89a000c 	ldm	sl, {r2, r3}
 c0060c4:	eafffec0 	b	c005bcc <Pantalla_juego+0x284>
	static char snum[10];
	if(primeraImpresion==1){
		primeraImpresion=0;
		Lcd_Clr();
		// Inicializamos tiempos de la partida
		tcalculos=0, tvolteos=0, nvolteos=0;
 c0060c8:	e59f4824 	ldr	r4, [pc, #2084]	; c0068f4 <Pantalla_juego+0xfac>
 */
void Pantalla_juego(){
	int i,j;
	static char snum[10];
	if(primeraImpresion==1){
		primeraImpresion=0;
 c0060cc:	e3a06000 	mov	r6, #0
 c0060d0:	e5886000 	str	r6, [r8]
		Lcd_Clr();
 c0060d4:	ebfff1ac 	bl	c00278c <Lcd_Clr>
		// Inicializamos tiempos de la partida
		tcalculos=0, tvolteos=0, nvolteos=0;
 c0060d8:	e5846018 	str	r6, [r4, #24]
 c0060dc:	e584601c 	str	r6, [r4, #28]
 c0060e0:	e5846020 	str	r6, [r4, #32]
		contador_multiplicador=0, tanterior=0, ttotal=0;
 c0060e4:	e5846024 	str	r6, [r4, #36]	; 0x24
 c0060e8:	e5846028 	str	r6, [r4, #40]	; 0x28
 c0060ec:	e584602c 	str	r6, [r4, #44]	; 0x2c
		tinicio_juego=timer2_leer()/1000000;
 c0060f0:	eb000e64 	bl	c009a88 <timer2_leer>
 c0060f4:	e59f37f4 	ldr	r3, [pc, #2036]	; c0068f0 <Pantalla_juego+0xfa8>
 c0060f8:	e0852093 	umull	r2, r5, r3, r0
 c0060fc:	e1a0c925 	lsr	ip, r5, #18
 c006100:	e584c030 	str	ip, [r4, #48]	; 0x30
		contador_multiplicador=0;

		// Tiempos
		static char a[]="Tiempo total";
		Lcd_DspAscII6x8(0,9,BLACK,a);
 c006104:	e2883f45 	add	r3, r8, #276	; 0x114
 c006108:	e1a00006 	mov	r0, r6
 c00610c:	e3a01009 	mov	r1, #9
 c006110:	e3a0200f 	mov	r2, #15
		Lcd_Clr();
		// Inicializamos tiempos de la partida
		tcalculos=0, tvolteos=0, nvolteos=0;
		contador_multiplicador=0, tanterior=0, ttotal=0;
		tinicio_juego=timer2_leer()/1000000;
		contador_multiplicador=0;
 c006114:	e5846024 	str	r6, [r4, #36]	; 0x24

		// Tiempos
		static char a[]="Tiempo total";
		Lcd_DspAscII6x8(0,9,BLACK,a);
 c006118:	ebfffb7a 	bl	c004f08 <Lcd_DspAscII6x8>
		static char b[]="Tiempo calculos";
		Lcd_DspAscII6x8(0,45,BLACK,b);
 c00611c:	e1a00006 	mov	r0, r6
 c006120:	e2883f49 	add	r3, r8, #292	; 0x124
 c006124:	e3a0102d 	mov	r1, #45	; 0x2d
 c006128:	e3a0200f 	mov	r2, #15
 c00612c:	ebfffb75 	bl	c004f08 <Lcd_DspAscII6x8>
		static char c[]="Tiempo volteos";
		Lcd_DspAscII6x8(0,81,BLACK,c);
 c006130:	e1a00006 	mov	r0, r6
 c006134:	e2883f4d 	add	r3, r8, #308	; 0x134
 c006138:	e3a01051 	mov	r1, #81	; 0x51
 c00613c:	e3a0200f 	mov	r2, #15
 c006140:	ebfffb70 	bl	c004f08 <Lcd_DspAscII6x8>
		static char d[]="Numero volteos";
		Lcd_DspAscII6x8(0,117,BLACK,d);
 c006144:	e2883f51 	add	r3, r8, #324	; 0x144
 c006148:	e1a00006 	mov	r0, r6
 c00614c:	e3a0200f 	mov	r2, #15
 c006150:	e3a01075 	mov	r1, #117	; 0x75
 c006154:	ebfffb6b 	bl	c004f08 <Lcd_DspAscII6x8>
		itoa(ttotal,snum);
 c006158:	e2841034 	add	r1, r4, #52	; 0x34
 c00615c:	e594002c 	ldr	r0, [r4, #44]	; 0x2c
 c006160:	ebfff02b 	bl	c002214 <itoa>
		Lcd_DspAscII6x8(0,21,BLACK,snum);
 c006164:	e1a00006 	mov	r0, r6
 c006168:	e3a0200f 	mov	r2, #15
 c00616c:	e2843034 	add	r3, r4, #52	; 0x34
 c006170:	e3a01015 	mov	r1, #21
 c006174:	ebfffb63 	bl	c004f08 <Lcd_DspAscII6x8>
		itoa(tcalculos,snum);
 c006178:	e2841034 	add	r1, r4, #52	; 0x34
 c00617c:	e5940018 	ldr	r0, [r4, #24]
 c006180:	ebfff023 	bl	c002214 <itoa>
		Lcd_DspAscII6x8(0,57,BLACK,snum);
 c006184:	e1a00006 	mov	r0, r6
 c006188:	e3a0200f 	mov	r2, #15
 c00618c:	e2843034 	add	r3, r4, #52	; 0x34
 c006190:	e3a01039 	mov	r1, #57	; 0x39
 c006194:	ebfffb5b 	bl	c004f08 <Lcd_DspAscII6x8>
		itoa(tvolteos,snum);
 c006198:	e2841034 	add	r1, r4, #52	; 0x34
 c00619c:	e594001c 	ldr	r0, [r4, #28]
 c0061a0:	ebfff01b 	bl	c002214 <itoa>
		Lcd_DspAscII6x8(0,93,BLACK,snum);
 c0061a4:	e1a00006 	mov	r0, r6
 c0061a8:	e3a0200f 	mov	r2, #15
 c0061ac:	e2843034 	add	r3, r4, #52	; 0x34
 c0061b0:	e3a0105d 	mov	r1, #93	; 0x5d
 c0061b4:	ebfffb53 	bl	c004f08 <Lcd_DspAscII6x8>
		itoa(nvolteos,snum);
 c0061b8:	e2841034 	add	r1, r4, #52	; 0x34
 c0061bc:	e5940020 	ldr	r0, [r4, #32]
 c0061c0:	ebfff013 	bl	c002214 <itoa>
		Lcd_DspAscII6x8(0,129,BLACK,snum);
 c0061c4:	e1a00006 	mov	r0, r6
 c0061c8:	e3a0200f 	mov	r2, #15
 c0061cc:	e3a01081 	mov	r1, #129	; 0x81
 c0061d0:	e2843034 	add	r3, r4, #52	; 0x34

		//Boton abandonar
		Lcd_Draw_Box(0,211,117,239,BLACK);
 c0061d4:	e1a05002 	mov	r5, r2
		itoa(tcalculos,snum);
		Lcd_DspAscII6x8(0,57,BLACK,snum);
		itoa(tvolteos,snum);
		Lcd_DspAscII6x8(0,93,BLACK,snum);
		itoa(nvolteos,snum);
		Lcd_DspAscII6x8(0,129,BLACK,snum);
 c0061d8:	ebfffb4a 	bl	c004f08 <Lcd_DspAscII6x8>

		//Boton abandonar
		Lcd_Draw_Box(0,211,117,239,BLACK);
 c0061dc:	e1a00006 	mov	r0, r6
 c0061e0:	e3a010d3 	mov	r1, #211	; 0xd3
 c0061e4:	e3a02075 	mov	r2, #117	; 0x75
 c0061e8:	e3a030ef 	mov	r3, #239	; 0xef
 c0061ec:	e58d5000 	str	r5, [sp]
 c0061f0:	ebfff371 	bl	c002fbc <Lcd_Draw_Box>
		static char e[]="Abandonar";
		Lcd_DspAscII6x8(31,221,BLACK,e);
 c0061f4:	e1a02005 	mov	r2, r5
 c0061f8:	e2883f55 	add	r3, r8, #340	; 0x154
 c0061fc:	e3a0001f 	mov	r0, #31
 c006200:	e3a010dd 	mov	r1, #221	; 0xdd
 c006204:	ebfffb3f 	bl	c004f08 <Lcd_DspAscII6x8>

		//Boton jugar
		Lcd_Draw_Box(119,211,319,239,BLACK);
 c006208:	e3a00077 	mov	r0, #119	; 0x77
 c00620c:	e3a010d3 	mov	r1, #211	; 0xd3
 c006210:	e59f26fc 	ldr	r2, [pc, #1788]	; c006914 <Pantalla_juego+0xfcc>
 c006214:	e3a030ef 	mov	r3, #239	; 0xef
 c006218:	e58d5000 	str	r5, [sp]
 c00621c:	ebfff366 	bl	c002fbc <Lcd_Draw_Box>
		static char f[]="Jugar";
		Lcd_DspAscII6x8(204,221,BLACK,f);
 c006220:	e1a02005 	mov	r2, r5
 c006224:	e2883e16 	add	r3, r8, #352	; 0x160
 c006228:	e3a010dd 	mov	r1, #221	; 0xdd
 c00622c:	e3a000cc 	mov	r0, #204	; 0xcc
 c006230:	ebfffb34 	bl	c004f08 <Lcd_DspAscII6x8>

		//Numeros filas y columnas
		for (i = 0; i < DIM; i++){
			itoa(i,snum);
 c006234:	e1a00006 	mov	r0, r6
 c006238:	e2841034 	add	r1, r4, #52	; 0x34
 c00623c:	ebffeff4 	bl	c002214 <itoa>
			Lcd_DspAscII6x8(128+25*i,0,BLACK,snum);
 c006240:	e1a02005 	mov	r2, r5
 c006244:	e2843034 	add	r3, r4, #52	; 0x34
 c006248:	e1a01006 	mov	r1, r6
 c00624c:	e3a00080 	mov	r0, #128	; 0x80
 c006250:	ebfffb2c 	bl	c004f08 <Lcd_DspAscII6x8>
		static char f[]="Jugar";
		Lcd_DspAscII6x8(204,221,BLACK,f);

		//Numeros filas y columnas
		for (i = 0; i < DIM; i++){
			itoa(i,snum);
 c006254:	e1a00007 	mov	r0, r7
 c006258:	e2841034 	add	r1, r4, #52	; 0x34
 c00625c:	ebffefec 	bl	c002214 <itoa>
			Lcd_DspAscII6x8(128+25*i,0,BLACK,snum);
 c006260:	e1a02005 	mov	r2, r5
 c006264:	e2843034 	add	r3, r4, #52	; 0x34
 c006268:	e1a01006 	mov	r1, r6
 c00626c:	e3a00099 	mov	r0, #153	; 0x99
 c006270:	ebfffb24 	bl	c004f08 <Lcd_DspAscII6x8>
		static char f[]="Jugar";
		Lcd_DspAscII6x8(204,221,BLACK,f);

		//Numeros filas y columnas
		for (i = 0; i < DIM; i++){
			itoa(i,snum);
 c006274:	e3a00002 	mov	r0, #2
 c006278:	e2841034 	add	r1, r4, #52	; 0x34
 c00627c:	ebffefe4 	bl	c002214 <itoa>
			Lcd_DspAscII6x8(128+25*i,0,BLACK,snum);
 c006280:	e1a02005 	mov	r2, r5
 c006284:	e2843034 	add	r3, r4, #52	; 0x34
 c006288:	e1a01006 	mov	r1, r6
 c00628c:	e3a000b2 	mov	r0, #178	; 0xb2
 c006290:	ebfffb1c 	bl	c004f08 <Lcd_DspAscII6x8>
		static char f[]="Jugar";
		Lcd_DspAscII6x8(204,221,BLACK,f);

		//Numeros filas y columnas
		for (i = 0; i < DIM; i++){
			itoa(i,snum);
 c006294:	e3a00003 	mov	r0, #3
 c006298:	e2841034 	add	r1, r4, #52	; 0x34
 c00629c:	ebffefdc 	bl	c002214 <itoa>
			Lcd_DspAscII6x8(128+25*i,0,BLACK,snum);
 c0062a0:	e1a02005 	mov	r2, r5
 c0062a4:	e2843034 	add	r3, r4, #52	; 0x34
 c0062a8:	e1a01006 	mov	r1, r6
 c0062ac:	e3a000cb 	mov	r0, #203	; 0xcb
 c0062b0:	ebfffb14 	bl	c004f08 <Lcd_DspAscII6x8>
		static char f[]="Jugar";
		Lcd_DspAscII6x8(204,221,BLACK,f);

		//Numeros filas y columnas
		for (i = 0; i < DIM; i++){
			itoa(i,snum);
 c0062b4:	e3a00004 	mov	r0, #4
 c0062b8:	e2841034 	add	r1, r4, #52	; 0x34
 c0062bc:	ebffefd4 	bl	c002214 <itoa>
			Lcd_DspAscII6x8(128+25*i,0,BLACK,snum);
 c0062c0:	e1a02005 	mov	r2, r5
 c0062c4:	e2843034 	add	r3, r4, #52	; 0x34
 c0062c8:	e1a01006 	mov	r1, r6
 c0062cc:	e3a000e4 	mov	r0, #228	; 0xe4
 c0062d0:	ebfffb0c 	bl	c004f08 <Lcd_DspAscII6x8>
		static char f[]="Jugar";
		Lcd_DspAscII6x8(204,221,BLACK,f);

		//Numeros filas y columnas
		for (i = 0; i < DIM; i++){
			itoa(i,snum);
 c0062d4:	e3a00005 	mov	r0, #5
 c0062d8:	e2841034 	add	r1, r4, #52	; 0x34
 c0062dc:	ebffefcc 	bl	c002214 <itoa>
			Lcd_DspAscII6x8(128+25*i,0,BLACK,snum);
 c0062e0:	e1a02005 	mov	r2, r5
 c0062e4:	e2843034 	add	r3, r4, #52	; 0x34
 c0062e8:	e1a01006 	mov	r1, r6
 c0062ec:	e3a000fd 	mov	r0, #253	; 0xfd
 c0062f0:	ebfffb04 	bl	c004f08 <Lcd_DspAscII6x8>
		static char f[]="Jugar";
		Lcd_DspAscII6x8(204,221,BLACK,f);

		//Numeros filas y columnas
		for (i = 0; i < DIM; i++){
			itoa(i,snum);
 c0062f4:	e3a00006 	mov	r0, #6
 c0062f8:	e2841034 	add	r1, r4, #52	; 0x34
 c0062fc:	ebffefc4 	bl	c002214 <itoa>
			Lcd_DspAscII6x8(128+25*i,0,BLACK,snum);
 c006300:	e1a02005 	mov	r2, r5
 c006304:	e2843034 	add	r3, r4, #52	; 0x34
 c006308:	e1a01006 	mov	r1, r6
 c00630c:	e59f0604 	ldr	r0, [pc, #1540]	; c006918 <Pantalla_juego+0xfd0>
 c006310:	ebfffafc 	bl	c004f08 <Lcd_DspAscII6x8>
		static char f[]="Jugar";
		Lcd_DspAscII6x8(204,221,BLACK,f);

		//Numeros filas y columnas
		for (i = 0; i < DIM; i++){
			itoa(i,snum);
 c006314:	e3a00007 	mov	r0, #7
 c006318:	e2841034 	add	r1, r4, #52	; 0x34
 c00631c:	ebffefbc 	bl	c002214 <itoa>
			Lcd_DspAscII6x8(128+25*i,0,BLACK,snum);
 c006320:	e1a02005 	mov	r2, r5
 c006324:	e2843034 	add	r3, r4, #52	; 0x34
 c006328:	e1a01006 	mov	r1, r6
 c00632c:	e59f05e8 	ldr	r0, [pc, #1512]	; c00691c <Pantalla_juego+0xfd4>
 c006330:	ebfffaf4 	bl	c004f08 <Lcd_DspAscII6x8>
		}
		for (i = 0; i < DIM; i++){
			itoa(i,snum);
 c006334:	e1a00006 	mov	r0, r6
 c006338:	e2841034 	add	r1, r4, #52	; 0x34
 c00633c:	ebffefb4 	bl	c002214 <itoa>
			Lcd_DspAscII6x8(112,17+25*i,BLACK,snum);
 c006340:	e1a02005 	mov	r2, r5
 c006344:	e2843034 	add	r3, r4, #52	; 0x34
 c006348:	e3a01011 	mov	r1, #17
 c00634c:	e3a00070 	mov	r0, #112	; 0x70
 c006350:	ebfffaec 	bl	c004f08 <Lcd_DspAscII6x8>
		for (i = 0; i < DIM; i++){
			itoa(i,snum);
			Lcd_DspAscII6x8(128+25*i,0,BLACK,snum);
		}
		for (i = 0; i < DIM; i++){
			itoa(i,snum);
 c006354:	e1a00007 	mov	r0, r7
 c006358:	e2841034 	add	r1, r4, #52	; 0x34
 c00635c:	ebffefac 	bl	c002214 <itoa>
			Lcd_DspAscII6x8(112,17+25*i,BLACK,snum);
 c006360:	e1a02005 	mov	r2, r5
 c006364:	e2843034 	add	r3, r4, #52	; 0x34
 c006368:	e3a00070 	mov	r0, #112	; 0x70
 c00636c:	e3a0102a 	mov	r1, #42	; 0x2a
 c006370:	ebfffae4 	bl	c004f08 <Lcd_DspAscII6x8>
		for (i = 0; i < DIM; i++){
			itoa(i,snum);
			Lcd_DspAscII6x8(128+25*i,0,BLACK,snum);
		}
		for (i = 0; i < DIM; i++){
			itoa(i,snum);
 c006374:	e3a00002 	mov	r0, #2
 c006378:	e2841034 	add	r1, r4, #52	; 0x34
 c00637c:	ebffefa4 	bl	c002214 <itoa>
			Lcd_DspAscII6x8(112,17+25*i,BLACK,snum);
 c006380:	e1a02005 	mov	r2, r5
 c006384:	e2843034 	add	r3, r4, #52	; 0x34
 c006388:	e3a00070 	mov	r0, #112	; 0x70
 c00638c:	e3a01043 	mov	r1, #67	; 0x43
 c006390:	ebfffadc 	bl	c004f08 <Lcd_DspAscII6x8>
		for (i = 0; i < DIM; i++){
			itoa(i,snum);
			Lcd_DspAscII6x8(128+25*i,0,BLACK,snum);
		}
		for (i = 0; i < DIM; i++){
			itoa(i,snum);
 c006394:	e3a00003 	mov	r0, #3
 c006398:	e2841034 	add	r1, r4, #52	; 0x34
 c00639c:	ebffef9c 	bl	c002214 <itoa>
			Lcd_DspAscII6x8(112,17+25*i,BLACK,snum);
 c0063a0:	e1a02005 	mov	r2, r5
 c0063a4:	e2843034 	add	r3, r4, #52	; 0x34
 c0063a8:	e3a00070 	mov	r0, #112	; 0x70
 c0063ac:	e3a0105c 	mov	r1, #92	; 0x5c
 c0063b0:	ebfffad4 	bl	c004f08 <Lcd_DspAscII6x8>
		for (i = 0; i < DIM; i++){
			itoa(i,snum);
			Lcd_DspAscII6x8(128+25*i,0,BLACK,snum);
		}
		for (i = 0; i < DIM; i++){
			itoa(i,snum);
 c0063b4:	e3a00004 	mov	r0, #4
 c0063b8:	e2841034 	add	r1, r4, #52	; 0x34
 c0063bc:	ebffef94 	bl	c002214 <itoa>
			Lcd_DspAscII6x8(112,17+25*i,BLACK,snum);
 c0063c0:	e1a02005 	mov	r2, r5
 c0063c4:	e2843034 	add	r3, r4, #52	; 0x34
 c0063c8:	e3a00070 	mov	r0, #112	; 0x70
 c0063cc:	e3a01075 	mov	r1, #117	; 0x75
 c0063d0:	ebfffacc 	bl	c004f08 <Lcd_DspAscII6x8>
		for (i = 0; i < DIM; i++){
			itoa(i,snum);
			Lcd_DspAscII6x8(128+25*i,0,BLACK,snum);
		}
		for (i = 0; i < DIM; i++){
			itoa(i,snum);
 c0063d4:	e3a00005 	mov	r0, #5
 c0063d8:	e2841034 	add	r1, r4, #52	; 0x34
 c0063dc:	ebffef8c 	bl	c002214 <itoa>
			Lcd_DspAscII6x8(112,17+25*i,BLACK,snum);
 c0063e0:	e1a02005 	mov	r2, r5
 c0063e4:	e2843034 	add	r3, r4, #52	; 0x34
 c0063e8:	e3a00070 	mov	r0, #112	; 0x70
 c0063ec:	e3a0108e 	mov	r1, #142	; 0x8e
 c0063f0:	ebfffac4 	bl	c004f08 <Lcd_DspAscII6x8>
		for (i = 0; i < DIM; i++){
			itoa(i,snum);
			Lcd_DspAscII6x8(128+25*i,0,BLACK,snum);
		}
		for (i = 0; i < DIM; i++){
			itoa(i,snum);
 c0063f4:	e3a00006 	mov	r0, #6
 c0063f8:	e2841034 	add	r1, r4, #52	; 0x34
 c0063fc:	ebffef84 	bl	c002214 <itoa>
			Lcd_DspAscII6x8(112,17+25*i,BLACK,snum);
 c006400:	e1a02005 	mov	r2, r5
 c006404:	e2843034 	add	r3, r4, #52	; 0x34
 c006408:	e3a00070 	mov	r0, #112	; 0x70
 c00640c:	e3a010a7 	mov	r1, #167	; 0xa7
 c006410:	ebfffabc 	bl	c004f08 <Lcd_DspAscII6x8>
		for (i = 0; i < DIM; i++){
			itoa(i,snum);
			Lcd_DspAscII6x8(128+25*i,0,BLACK,snum);
		}
		for (i = 0; i < DIM; i++){
			itoa(i,snum);
 c006414:	e3a00007 	mov	r0, #7
 c006418:	e2841034 	add	r1, r4, #52	; 0x34
 c00641c:	ebffef7c 	bl	c002214 <itoa>
			Lcd_DspAscII6x8(112,17+25*i,BLACK,snum);
 c006420:	e1a02005 	mov	r2, r5
 c006424:	e3a00070 	mov	r0, #112	; 0x70
 c006428:	e3a010c0 	mov	r1, #192	; 0xc0
 c00642c:	e2843034 	add	r3, r4, #52	; 0x34
 c006430:	ebfffab4 	bl	c004f08 <Lcd_DspAscII6x8>
		}

		//Recuadro tablero
		Lcd_Draw_Box(119, 9, 319, 209, 15);
 c006434:	e3a00077 	mov	r0, #119	; 0x77
 c006438:	e3a01009 	mov	r1, #9
 c00643c:	e59f24d0 	ldr	r2, [pc, #1232]	; c006914 <Pantalla_juego+0xfcc>
 c006440:	e3a030d1 	mov	r3, #209	; 0xd1
 c006444:	e58d5000 	str	r5, [sp]
 c006448:	ebfff2db 	bl	c002fbc <Lcd_Draw_Box>
		//Lineas horizontales tablero
		Lcd_Draw_HLine(119, 319 , 34 , 15, 1);
 c00644c:	e1a03005 	mov	r3, r5
 c006450:	e3a00077 	mov	r0, #119	; 0x77
 c006454:	e59f14b8 	ldr	r1, [pc, #1208]	; c006914 <Pantalla_juego+0xfcc>
 c006458:	e3a02022 	mov	r2, #34	; 0x22
 c00645c:	e58d7000 	str	r7, [sp]
 c006460:	ebfff808 	bl	c004488 <Lcd_Draw_HLine>
		Lcd_Draw_HLine(119, 319 , 59 , 15, 1);
 c006464:	e1a03005 	mov	r3, r5
 c006468:	e3a00077 	mov	r0, #119	; 0x77
 c00646c:	e59f14a0 	ldr	r1, [pc, #1184]	; c006914 <Pantalla_juego+0xfcc>
 c006470:	e3a0203b 	mov	r2, #59	; 0x3b
 c006474:	e58d7000 	str	r7, [sp]
 c006478:	ebfff802 	bl	c004488 <Lcd_Draw_HLine>
		Lcd_Draw_HLine(119, 319 , 84 , 15, 1);
 c00647c:	e1a03005 	mov	r3, r5
 c006480:	e3a00077 	mov	r0, #119	; 0x77
 c006484:	e59f1488 	ldr	r1, [pc, #1160]	; c006914 <Pantalla_juego+0xfcc>
 c006488:	e3a02054 	mov	r2, #84	; 0x54
 c00648c:	e58d7000 	str	r7, [sp]
 c006490:	ebfff7fc 	bl	c004488 <Lcd_Draw_HLine>
		Lcd_Draw_HLine(119, 319 , 109 , 15, 1);
 c006494:	e1a03005 	mov	r3, r5
 c006498:	e3a00077 	mov	r0, #119	; 0x77
 c00649c:	e59f1470 	ldr	r1, [pc, #1136]	; c006914 <Pantalla_juego+0xfcc>
 c0064a0:	e3a0206d 	mov	r2, #109	; 0x6d
 c0064a4:	e58d7000 	str	r7, [sp]
 c0064a8:	ebfff7f6 	bl	c004488 <Lcd_Draw_HLine>
		Lcd_Draw_HLine(119, 319 , 134 , 15, 1);
 c0064ac:	e1a03005 	mov	r3, r5
 c0064b0:	e3a00077 	mov	r0, #119	; 0x77
 c0064b4:	e59f1458 	ldr	r1, [pc, #1112]	; c006914 <Pantalla_juego+0xfcc>
 c0064b8:	e3a02086 	mov	r2, #134	; 0x86
 c0064bc:	e58d7000 	str	r7, [sp]
 c0064c0:	ebfff7f0 	bl	c004488 <Lcd_Draw_HLine>
		Lcd_Draw_HLine(119, 319 , 159 , 15, 1);
 c0064c4:	e1a03005 	mov	r3, r5
 c0064c8:	e3a00077 	mov	r0, #119	; 0x77
 c0064cc:	e59f1440 	ldr	r1, [pc, #1088]	; c006914 <Pantalla_juego+0xfcc>
 c0064d0:	e3a0209f 	mov	r2, #159	; 0x9f
 c0064d4:	e58d7000 	str	r7, [sp]
 c0064d8:	ebfff7ea 	bl	c004488 <Lcd_Draw_HLine>
		Lcd_Draw_HLine(119, 319 , 184 , 15, 1);
 c0064dc:	e1a03005 	mov	r3, r5
 c0064e0:	e3a00077 	mov	r0, #119	; 0x77
 c0064e4:	e59f1428 	ldr	r1, [pc, #1064]	; c006914 <Pantalla_juego+0xfcc>
 c0064e8:	e3a020b8 	mov	r2, #184	; 0xb8
 c0064ec:	e58d7000 	str	r7, [sp]
 c0064f0:	ebfff7e4 	bl	c004488 <Lcd_Draw_HLine>
		//Lineas verticales tablero
		Lcd_Draw_VLine(9,  209, 144, 15, 1);
 c0064f4:	e1a03005 	mov	r3, r5
 c0064f8:	e3a00009 	mov	r0, #9
 c0064fc:	e3a010d1 	mov	r1, #209	; 0xd1
 c006500:	e3a02090 	mov	r2, #144	; 0x90
 c006504:	e58d7000 	str	r7, [sp]
 c006508:	ebfff85f 	bl	c00468c <Lcd_Draw_VLine>
		Lcd_Draw_VLine(9,  209, 169, 15, 1);
 c00650c:	e1a03005 	mov	r3, r5
 c006510:	e3a00009 	mov	r0, #9
 c006514:	e3a010d1 	mov	r1, #209	; 0xd1
 c006518:	e3a020a9 	mov	r2, #169	; 0xa9
 c00651c:	e58d7000 	str	r7, [sp]
 c006520:	ebfff859 	bl	c00468c <Lcd_Draw_VLine>
		Lcd_Draw_VLine(9,  209, 194, 15, 1);
 c006524:	e1a03005 	mov	r3, r5
 c006528:	e3a00009 	mov	r0, #9
 c00652c:	e3a010d1 	mov	r1, #209	; 0xd1
 c006530:	e3a020c2 	mov	r2, #194	; 0xc2
 c006534:	e58d7000 	str	r7, [sp]
 c006538:	ebfff853 	bl	c00468c <Lcd_Draw_VLine>
		Lcd_Draw_VLine(9,  209, 219, 15, 1);
 c00653c:	e1a03005 	mov	r3, r5
 c006540:	e3a00009 	mov	r0, #9
 c006544:	e3a010d1 	mov	r1, #209	; 0xd1
 c006548:	e3a020db 	mov	r2, #219	; 0xdb
 c00654c:	e58d7000 	str	r7, [sp]
 c006550:	ebfff84d 	bl	c00468c <Lcd_Draw_VLine>
		Lcd_Draw_VLine(9,  209, 244, 15, 1);
 c006554:	e1a03005 	mov	r3, r5
 c006558:	e3a00009 	mov	r0, #9
 c00655c:	e3a010d1 	mov	r1, #209	; 0xd1
 c006560:	e3a020f4 	mov	r2, #244	; 0xf4
 c006564:	e58d7000 	str	r7, [sp]
 c006568:	ebfff847 	bl	c00468c <Lcd_Draw_VLine>
		Lcd_Draw_VLine(9,  209, 269, 15, 1);
 c00656c:	e1a03005 	mov	r3, r5
 c006570:	e3a00009 	mov	r0, #9
 c006574:	e3a010d1 	mov	r1, #209	; 0xd1
 c006578:	e59f23a0 	ldr	r2, [pc, #928]	; c006920 <Pantalla_juego+0xfd8>
 c00657c:	e58d7000 	str	r7, [sp]
 c006580:	ebfff841 	bl	c00468c <Lcd_Draw_VLine>
		Lcd_Draw_VLine(9,  209, 294, 15, 1);
 c006584:	e1a03005 	mov	r3, r5
 c006588:	e3a00009 	mov	r0, #9
 c00658c:	e3a010d1 	mov	r1, #209	; 0xd1
 c006590:	e59f238c 	ldr	r2, [pc, #908]	; c006924 <Pantalla_juego+0xfdc>
 c006594:	e58d7000 	str	r7, [sp]
				if(cambios[i][j] == 1){
					BitmapView(120+(j*25),10+(i*25),Stru_Bitmap_fichaBlanca);
					cambios[i][j]=0;
					ncambios--;
				}else if(cambios[i][j] == 2){
					BitmapView(120+(j*25),10+(i*25),Stru_Bitmap_fichaNegra);
 c006598:	e59f838c 	ldr	r8, [pc, #908]	; c00692c <Pantalla_juego+0xfe4>
		Lcd_Draw_VLine(9,  209, 169, 15, 1);
		Lcd_Draw_VLine(9,  209, 194, 15, 1);
		Lcd_Draw_VLine(9,  209, 219, 15, 1);
		Lcd_Draw_VLine(9,  209, 244, 15, 1);
		Lcd_Draw_VLine(9,  209, 269, 15, 1);
		Lcd_Draw_VLine(9,  209, 294, 15, 1);
 c00659c:	ebfff83a 	bl	c00468c <Lcd_Draw_VLine>

		//FICHAS - matriz de cambios del tablero
		for (i = 0; i < DIM; i++){
			for (j = 0; j < DIM; j++){
				if(cambios[i][j] == 1){
					BitmapView(120+(j*25),10+(i*25),Stru_Bitmap_fichaBlanca);
 c0065a0:	e59f7388 	ldr	r7, [pc, #904]	; c006930 <Pantalla_juego+0xfe8>
		Lcd_Draw_VLine(9,  209, 169, 15, 1);
		Lcd_Draw_VLine(9,  209, 194, 15, 1);
		Lcd_Draw_VLine(9,  209, 219, 15, 1);
		Lcd_Draw_VLine(9,  209, 244, 15, 1);
		Lcd_Draw_VLine(9,  209, 269, 15, 1);
		Lcd_Draw_VLine(9,  209, 294, 15, 1);
 c0065a4:	e2845040 	add	r5, r4, #64	; 0x40
 c0065a8:	e3a0600a 	mov	r6, #10
 c0065ac:	ea00002a 	b	c00665c <Pantalla_juego+0xd14>
			for (j = 0; j < DIM; j++){
				if(cambios[i][j] == 1){
					BitmapView(120+(j*25),10+(i*25),Stru_Bitmap_fichaBlanca);
					cambios[i][j]=0;
					ncambios--;
				}else if(cambios[i][j] == 2){
 c0065b0:	e3530002 	cmp	r3, #2
 c0065b4:	0a0000e2 	beq	c006944 <Pantalla_juego+0xffc>
		Lcd_Draw_VLine(9,  209, 294, 15, 1);

		//FICHAS - matriz de cambios del tablero
		for (i = 0; i < DIM; i++){
			for (j = 0; j < DIM; j++){
				if(cambios[i][j] == 1){
 c0065b8:	e5d53001 	ldrb	r3, [r5, #1]
 c0065bc:	e3530001 	cmp	r3, #1
 c0065c0:	0a000038 	beq	c0066a8 <Pantalla_juego+0xd60>
					BitmapView(120+(j*25),10+(i*25),Stru_Bitmap_fichaBlanca);
					cambios[i][j]=0;
					ncambios--;
				}else if(cambios[i][j] == 2){
 c0065c4:	e3530002 	cmp	r3, #2
 c0065c8:	0a0000d9 	beq	c006934 <Pantalla_juego+0xfec>
		Lcd_Draw_VLine(9,  209, 294, 15, 1);

		//FICHAS - matriz de cambios del tablero
		for (i = 0; i < DIM; i++){
			for (j = 0; j < DIM; j++){
				if(cambios[i][j] == 1){
 c0065cc:	e5d53002 	ldrb	r3, [r5, #2]
 c0065d0:	e3530001 	cmp	r3, #1
 c0065d4:	0a000043 	beq	c0066e8 <Pantalla_juego+0xda0>
					BitmapView(120+(j*25),10+(i*25),Stru_Bitmap_fichaBlanca);
					cambios[i][j]=0;
					ncambios--;
				}else if(cambios[i][j] == 2){
 c0065d8:	e3530002 	cmp	r3, #2
 c0065dc:	0a0000e4 	beq	c006974 <Pantalla_juego+0x102c>
		Lcd_Draw_VLine(9,  209, 294, 15, 1);

		//FICHAS - matriz de cambios del tablero
		for (i = 0; i < DIM; i++){
			for (j = 0; j < DIM; j++){
				if(cambios[i][j] == 1){
 c0065e0:	e5d53003 	ldrb	r3, [r5, #3]
 c0065e4:	e3530001 	cmp	r3, #1
 c0065e8:	0a00004e 	beq	c006728 <Pantalla_juego+0xde0>
					BitmapView(120+(j*25),10+(i*25),Stru_Bitmap_fichaBlanca);
					cambios[i][j]=0;
					ncambios--;
				}else if(cambios[i][j] == 2){
 c0065ec:	e3530002 	cmp	r3, #2
 c0065f0:	0a0000db 	beq	c006964 <Pantalla_juego+0x101c>
		Lcd_Draw_VLine(9,  209, 294, 15, 1);

		//FICHAS - matriz de cambios del tablero
		for (i = 0; i < DIM; i++){
			for (j = 0; j < DIM; j++){
				if(cambios[i][j] == 1){
 c0065f4:	e5d53004 	ldrb	r3, [r5, #4]
 c0065f8:	e3530001 	cmp	r3, #1
 c0065fc:	0a000059 	beq	c006768 <Pantalla_juego+0xe20>
					BitmapView(120+(j*25),10+(i*25),Stru_Bitmap_fichaBlanca);
					cambios[i][j]=0;
					ncambios--;
				}else if(cambios[i][j] == 2){
 c006600:	e3530002 	cmp	r3, #2
 c006604:	0a0000e2 	beq	c006994 <Pantalla_juego+0x104c>
		Lcd_Draw_VLine(9,  209, 294, 15, 1);

		//FICHAS - matriz de cambios del tablero
		for (i = 0; i < DIM; i++){
			for (j = 0; j < DIM; j++){
				if(cambios[i][j] == 1){
 c006608:	e5d53005 	ldrb	r3, [r5, #5]
 c00660c:	e3530001 	cmp	r3, #1
 c006610:	0a000064 	beq	c0067a8 <Pantalla_juego+0xe60>
					BitmapView(120+(j*25),10+(i*25),Stru_Bitmap_fichaBlanca);
					cambios[i][j]=0;
					ncambios--;
				}else if(cambios[i][j] == 2){
 c006614:	e3530002 	cmp	r3, #2
 c006618:	0a0000d9 	beq	c006984 <Pantalla_juego+0x103c>
		Lcd_Draw_VLine(9,  209, 294, 15, 1);

		//FICHAS - matriz de cambios del tablero
		for (i = 0; i < DIM; i++){
			for (j = 0; j < DIM; j++){
				if(cambios[i][j] == 1){
 c00661c:	e5d53006 	ldrb	r3, [r5, #6]
 c006620:	e3530001 	cmp	r3, #1
 c006624:	0a00006f 	beq	c0067e8 <Pantalla_juego+0xea0>
					BitmapView(120+(j*25),10+(i*25),Stru_Bitmap_fichaBlanca);
					cambios[i][j]=0;
					ncambios--;
				}else if(cambios[i][j] == 2){
 c006628:	e3530002 	cmp	r3, #2
 c00662c:	0a0000c8 	beq	c006954 <Pantalla_juego+0x100c>
		Lcd_Draw_VLine(9,  209, 294, 15, 1);

		//FICHAS - matriz de cambios del tablero
		for (i = 0; i < DIM; i++){
			for (j = 0; j < DIM; j++){
				if(cambios[i][j] == 1){
 c006630:	e5d53007 	ldrb	r3, [r5, #7]
 c006634:	e3530001 	cmp	r3, #1
 c006638:	0a00007a 	beq	c006828 <Pantalla_juego+0xee0>
					BitmapView(120+(j*25),10+(i*25),Stru_Bitmap_fichaBlanca);
					cambios[i][j]=0;
					ncambios--;
				}else if(cambios[i][j] == 2){
 c00663c:	e3530002 	cmp	r3, #2
 c006640:	0a0000a5 	beq	c0068dc <Pantalla_juego+0xf94>
		for (i = 0; i < DIM; i++){
			for (j = 0; j < DIM; j++){
				if(cambios[i][j] == 1){
					BitmapView(120+(j*25),10+(i*25),Stru_Bitmap_fichaBlanca);
					cambios[i][j]=0;
					ncambios--;
 c006644:	e2860019 	add	r0, r6, #25
 c006648:	e1a06800 	lsl	r6, r0, #16
 c00664c:	e1a06826 	lsr	r6, r6, #16
		Lcd_Draw_VLine(9,  209, 244, 15, 1);
		Lcd_Draw_VLine(9,  209, 269, 15, 1);
		Lcd_Draw_VLine(9,  209, 294, 15, 1);

		//FICHAS - matriz de cambios del tablero
		for (i = 0; i < DIM; i++){
 c006650:	e35600d2 	cmp	r6, #210	; 0xd2
			for (j = 0; j < DIM; j++){
				if(cambios[i][j] == 1){
					BitmapView(120+(j*25),10+(i*25),Stru_Bitmap_fichaBlanca);
					cambios[i][j]=0;
					ncambios--;
 c006654:	e2855008 	add	r5, r5, #8
		Lcd_Draw_VLine(9,  209, 244, 15, 1);
		Lcd_Draw_VLine(9,  209, 269, 15, 1);
		Lcd_Draw_VLine(9,  209, 294, 15, 1);

		//FICHAS - matriz de cambios del tablero
		for (i = 0; i < DIM; i++){
 c006658:	0a000085 	beq	c006874 <Pantalla_juego+0xf2c>
			for (j = 0; j < DIM; j++){
				if(cambios[i][j] == 1){
 c00665c:	e5d53000 	ldrb	r3, [r5]
 c006660:	e3530001 	cmp	r3, #1
 c006664:	1affffd1 	bne	c0065b0 <Pantalla_juego+0xc68>
					BitmapView(120+(j*25),10+(i*25),Stru_Bitmap_fichaBlanca);
 c006668:	e59f128c 	ldr	r1, [pc, #652]	; c0068fc <Pantalla_juego+0xfb4>
 c00666c:	e897000c 	ldm	r7, {r2, r3}
 c006670:	e8910003 	ldm	r1, {r0, r1}
 c006674:	e1a0e00d 	mov	lr, sp
 c006678:	e88e0003 	stm	lr, {r0, r1}
 c00667c:	e3a00078 	mov	r0, #120	; 0x78
 c006680:	e1a01006 	mov	r1, r6
 c006684:	ebffe9bc 	bl	c000d7c <BitmapView>
					cambios[i][j]=0;
					ncambios--;
 c006688:	e5943080 	ldr	r3, [r4, #128]	; 0x80
 c00668c:	e243c001 	sub	ip, r3, #1
		Lcd_Draw_VLine(9,  209, 294, 15, 1);

		//FICHAS - matriz de cambios del tablero
		for (i = 0; i < DIM; i++){
			for (j = 0; j < DIM; j++){
				if(cambios[i][j] == 1){
 c006690:	e5d53001 	ldrb	r3, [r5, #1]
					BitmapView(120+(j*25),10+(i*25),Stru_Bitmap_fichaBlanca);
					cambios[i][j]=0;
 c006694:	e3a02000 	mov	r2, #0
		Lcd_Draw_VLine(9,  209, 294, 15, 1);

		//FICHAS - matriz de cambios del tablero
		for (i = 0; i < DIM; i++){
			for (j = 0; j < DIM; j++){
				if(cambios[i][j] == 1){
 c006698:	e3530001 	cmp	r3, #1
					BitmapView(120+(j*25),10+(i*25),Stru_Bitmap_fichaBlanca);
					cambios[i][j]=0;
 c00669c:	e5c52000 	strb	r2, [r5]
					ncambios--;
 c0066a0:	e584c080 	str	ip, [r4, #128]	; 0x80
		Lcd_Draw_VLine(9,  209, 294, 15, 1);

		//FICHAS - matriz de cambios del tablero
		for (i = 0; i < DIM; i++){
			for (j = 0; j < DIM; j++){
				if(cambios[i][j] == 1){
 c0066a4:	1affffc6 	bne	c0065c4 <Pantalla_juego+0xc7c>
					BitmapView(120+(j*25),10+(i*25),Stru_Bitmap_fichaBlanca);
 c0066a8:	e59f124c 	ldr	r1, [pc, #588]	; c0068fc <Pantalla_juego+0xfb4>
 c0066ac:	e897000c 	ldm	r7, {r2, r3}
 c0066b0:	e8910003 	ldm	r1, {r0, r1}
 c0066b4:	e1a0e00d 	mov	lr, sp
 c0066b8:	e88e0003 	stm	lr, {r0, r1}
 c0066bc:	e3a00091 	mov	r0, #145	; 0x91
 c0066c0:	e1a01006 	mov	r1, r6
 c0066c4:	ebffe9ac 	bl	c000d7c <BitmapView>
					cambios[i][j]=0;
					ncambios--;
 c0066c8:	e5943080 	ldr	r3, [r4, #128]	; 0x80
 c0066cc:	e243c001 	sub	ip, r3, #1
		Lcd_Draw_VLine(9,  209, 294, 15, 1);

		//FICHAS - matriz de cambios del tablero
		for (i = 0; i < DIM; i++){
			for (j = 0; j < DIM; j++){
				if(cambios[i][j] == 1){
 c0066d0:	e5d53002 	ldrb	r3, [r5, #2]
					BitmapView(120+(j*25),10+(i*25),Stru_Bitmap_fichaBlanca);
					cambios[i][j]=0;
 c0066d4:	e3a02000 	mov	r2, #0
		Lcd_Draw_VLine(9,  209, 294, 15, 1);

		//FICHAS - matriz de cambios del tablero
		for (i = 0; i < DIM; i++){
			for (j = 0; j < DIM; j++){
				if(cambios[i][j] == 1){
 c0066d8:	e3530001 	cmp	r3, #1
					BitmapView(120+(j*25),10+(i*25),Stru_Bitmap_fichaBlanca);
					cambios[i][j]=0;
 c0066dc:	e5c52001 	strb	r2, [r5, #1]
					ncambios--;
 c0066e0:	e584c080 	str	ip, [r4, #128]	; 0x80
		Lcd_Draw_VLine(9,  209, 294, 15, 1);

		//FICHAS - matriz de cambios del tablero
		for (i = 0; i < DIM; i++){
			for (j = 0; j < DIM; j++){
				if(cambios[i][j] == 1){
 c0066e4:	1affffbb 	bne	c0065d8 <Pantalla_juego+0xc90>
					BitmapView(120+(j*25),10+(i*25),Stru_Bitmap_fichaBlanca);
 c0066e8:	e59f120c 	ldr	r1, [pc, #524]	; c0068fc <Pantalla_juego+0xfb4>
 c0066ec:	e897000c 	ldm	r7, {r2, r3}
 c0066f0:	e8910003 	ldm	r1, {r0, r1}
 c0066f4:	e1a0e00d 	mov	lr, sp
 c0066f8:	e88e0003 	stm	lr, {r0, r1}
 c0066fc:	e3a000aa 	mov	r0, #170	; 0xaa
 c006700:	e1a01006 	mov	r1, r6
 c006704:	ebffe99c 	bl	c000d7c <BitmapView>
					cambios[i][j]=0;
					ncambios--;
 c006708:	e5943080 	ldr	r3, [r4, #128]	; 0x80
 c00670c:	e243c001 	sub	ip, r3, #1
		Lcd_Draw_VLine(9,  209, 294, 15, 1);

		//FICHAS - matriz de cambios del tablero
		for (i = 0; i < DIM; i++){
			for (j = 0; j < DIM; j++){
				if(cambios[i][j] == 1){
 c006710:	e5d53003 	ldrb	r3, [r5, #3]
					BitmapView(120+(j*25),10+(i*25),Stru_Bitmap_fichaBlanca);
					cambios[i][j]=0;
 c006714:	e3a02000 	mov	r2, #0
		Lcd_Draw_VLine(9,  209, 294, 15, 1);

		//FICHAS - matriz de cambios del tablero
		for (i = 0; i < DIM; i++){
			for (j = 0; j < DIM; j++){
				if(cambios[i][j] == 1){
 c006718:	e3530001 	cmp	r3, #1
					BitmapView(120+(j*25),10+(i*25),Stru_Bitmap_fichaBlanca);
					cambios[i][j]=0;
 c00671c:	e5c52002 	strb	r2, [r5, #2]
					ncambios--;
 c006720:	e584c080 	str	ip, [r4, #128]	; 0x80
		Lcd_Draw_VLine(9,  209, 294, 15, 1);

		//FICHAS - matriz de cambios del tablero
		for (i = 0; i < DIM; i++){
			for (j = 0; j < DIM; j++){
				if(cambios[i][j] == 1){
 c006724:	1affffb0 	bne	c0065ec <Pantalla_juego+0xca4>
					BitmapView(120+(j*25),10+(i*25),Stru_Bitmap_fichaBlanca);
 c006728:	e59f11cc 	ldr	r1, [pc, #460]	; c0068fc <Pantalla_juego+0xfb4>
 c00672c:	e897000c 	ldm	r7, {r2, r3}
 c006730:	e8910003 	ldm	r1, {r0, r1}
 c006734:	e1a0e00d 	mov	lr, sp
 c006738:	e88e0003 	stm	lr, {r0, r1}
 c00673c:	e3a000c3 	mov	r0, #195	; 0xc3
 c006740:	e1a01006 	mov	r1, r6
 c006744:	ebffe98c 	bl	c000d7c <BitmapView>
					cambios[i][j]=0;
					ncambios--;
 c006748:	e5943080 	ldr	r3, [r4, #128]	; 0x80
 c00674c:	e243c001 	sub	ip, r3, #1
		Lcd_Draw_VLine(9,  209, 294, 15, 1);

		//FICHAS - matriz de cambios del tablero
		for (i = 0; i < DIM; i++){
			for (j = 0; j < DIM; j++){
				if(cambios[i][j] == 1){
 c006750:	e5d53004 	ldrb	r3, [r5, #4]
					BitmapView(120+(j*25),10+(i*25),Stru_Bitmap_fichaBlanca);
					cambios[i][j]=0;
 c006754:	e3a02000 	mov	r2, #0
		Lcd_Draw_VLine(9,  209, 294, 15, 1);

		//FICHAS - matriz de cambios del tablero
		for (i = 0; i < DIM; i++){
			for (j = 0; j < DIM; j++){
				if(cambios[i][j] == 1){
 c006758:	e3530001 	cmp	r3, #1
					BitmapView(120+(j*25),10+(i*25),Stru_Bitmap_fichaBlanca);
					cambios[i][j]=0;
 c00675c:	e5c52003 	strb	r2, [r5, #3]
					ncambios--;
 c006760:	e584c080 	str	ip, [r4, #128]	; 0x80
		Lcd_Draw_VLine(9,  209, 294, 15, 1);

		//FICHAS - matriz de cambios del tablero
		for (i = 0; i < DIM; i++){
			for (j = 0; j < DIM; j++){
				if(cambios[i][j] == 1){
 c006764:	1affffa5 	bne	c006600 <Pantalla_juego+0xcb8>
					BitmapView(120+(j*25),10+(i*25),Stru_Bitmap_fichaBlanca);
 c006768:	e59f118c 	ldr	r1, [pc, #396]	; c0068fc <Pantalla_juego+0xfb4>
 c00676c:	e897000c 	ldm	r7, {r2, r3}
 c006770:	e8910003 	ldm	r1, {r0, r1}
 c006774:	e1a0e00d 	mov	lr, sp
 c006778:	e88e0003 	stm	lr, {r0, r1}
 c00677c:	e3a000dc 	mov	r0, #220	; 0xdc
 c006780:	e1a01006 	mov	r1, r6
 c006784:	ebffe97c 	bl	c000d7c <BitmapView>
					cambios[i][j]=0;
					ncambios--;
 c006788:	e5943080 	ldr	r3, [r4, #128]	; 0x80
 c00678c:	e243c001 	sub	ip, r3, #1
		Lcd_Draw_VLine(9,  209, 294, 15, 1);

		//FICHAS - matriz de cambios del tablero
		for (i = 0; i < DIM; i++){
			for (j = 0; j < DIM; j++){
				if(cambios[i][j] == 1){
 c006790:	e5d53005 	ldrb	r3, [r5, #5]
					BitmapView(120+(j*25),10+(i*25),Stru_Bitmap_fichaBlanca);
					cambios[i][j]=0;
 c006794:	e3a02000 	mov	r2, #0
		Lcd_Draw_VLine(9,  209, 294, 15, 1);

		//FICHAS - matriz de cambios del tablero
		for (i = 0; i < DIM; i++){
			for (j = 0; j < DIM; j++){
				if(cambios[i][j] == 1){
 c006798:	e3530001 	cmp	r3, #1
					BitmapView(120+(j*25),10+(i*25),Stru_Bitmap_fichaBlanca);
					cambios[i][j]=0;
 c00679c:	e5c52004 	strb	r2, [r5, #4]
					ncambios--;
 c0067a0:	e584c080 	str	ip, [r4, #128]	; 0x80
		Lcd_Draw_VLine(9,  209, 294, 15, 1);

		//FICHAS - matriz de cambios del tablero
		for (i = 0; i < DIM; i++){
			for (j = 0; j < DIM; j++){
				if(cambios[i][j] == 1){
 c0067a4:	1affff9a 	bne	c006614 <Pantalla_juego+0xccc>
					BitmapView(120+(j*25),10+(i*25),Stru_Bitmap_fichaBlanca);
 c0067a8:	e59f114c 	ldr	r1, [pc, #332]	; c0068fc <Pantalla_juego+0xfb4>
 c0067ac:	e897000c 	ldm	r7, {r2, r3}
 c0067b0:	e8910003 	ldm	r1, {r0, r1}
 c0067b4:	e1a0e00d 	mov	lr, sp
 c0067b8:	e88e0003 	stm	lr, {r0, r1}
 c0067bc:	e3a000f5 	mov	r0, #245	; 0xf5
 c0067c0:	e1a01006 	mov	r1, r6
 c0067c4:	ebffe96c 	bl	c000d7c <BitmapView>
					cambios[i][j]=0;
					ncambios--;
 c0067c8:	e5943080 	ldr	r3, [r4, #128]	; 0x80
 c0067cc:	e243c001 	sub	ip, r3, #1
		Lcd_Draw_VLine(9,  209, 294, 15, 1);

		//FICHAS - matriz de cambios del tablero
		for (i = 0; i < DIM; i++){
			for (j = 0; j < DIM; j++){
				if(cambios[i][j] == 1){
 c0067d0:	e5d53006 	ldrb	r3, [r5, #6]
					BitmapView(120+(j*25),10+(i*25),Stru_Bitmap_fichaBlanca);
					cambios[i][j]=0;
 c0067d4:	e3a02000 	mov	r2, #0
		Lcd_Draw_VLine(9,  209, 294, 15, 1);

		//FICHAS - matriz de cambios del tablero
		for (i = 0; i < DIM; i++){
			for (j = 0; j < DIM; j++){
				if(cambios[i][j] == 1){
 c0067d8:	e3530001 	cmp	r3, #1
					BitmapView(120+(j*25),10+(i*25),Stru_Bitmap_fichaBlanca);
					cambios[i][j]=0;
 c0067dc:	e5c52005 	strb	r2, [r5, #5]
					ncambios--;
 c0067e0:	e584c080 	str	ip, [r4, #128]	; 0x80
		Lcd_Draw_VLine(9,  209, 294, 15, 1);

		//FICHAS - matriz de cambios del tablero
		for (i = 0; i < DIM; i++){
			for (j = 0; j < DIM; j++){
				if(cambios[i][j] == 1){
 c0067e4:	1affff8f 	bne	c006628 <Pantalla_juego+0xce0>
					BitmapView(120+(j*25),10+(i*25),Stru_Bitmap_fichaBlanca);
 c0067e8:	e59f110c 	ldr	r1, [pc, #268]	; c0068fc <Pantalla_juego+0xfb4>
 c0067ec:	e897000c 	ldm	r7, {r2, r3}
 c0067f0:	e8910003 	ldm	r1, {r0, r1}
 c0067f4:	e1a0e00d 	mov	lr, sp
 c0067f8:	e88e0003 	stm	lr, {r0, r1}
 c0067fc:	e59f00fc 	ldr	r0, [pc, #252]	; c006900 <Pantalla_juego+0xfb8>
 c006800:	e1a01006 	mov	r1, r6
 c006804:	ebffe95c 	bl	c000d7c <BitmapView>
					cambios[i][j]=0;
					ncambios--;
 c006808:	e5943080 	ldr	r3, [r4, #128]	; 0x80
 c00680c:	e243c001 	sub	ip, r3, #1
		Lcd_Draw_VLine(9,  209, 294, 15, 1);

		//FICHAS - matriz de cambios del tablero
		for (i = 0; i < DIM; i++){
			for (j = 0; j < DIM; j++){
				if(cambios[i][j] == 1){
 c006810:	e5d53007 	ldrb	r3, [r5, #7]
					BitmapView(120+(j*25),10+(i*25),Stru_Bitmap_fichaBlanca);
					cambios[i][j]=0;
 c006814:	e3a02000 	mov	r2, #0
		Lcd_Draw_VLine(9,  209, 294, 15, 1);

		//FICHAS - matriz de cambios del tablero
		for (i = 0; i < DIM; i++){
			for (j = 0; j < DIM; j++){
				if(cambios[i][j] == 1){
 c006818:	e3530001 	cmp	r3, #1
					BitmapView(120+(j*25),10+(i*25),Stru_Bitmap_fichaBlanca);
					cambios[i][j]=0;
 c00681c:	e5c52006 	strb	r2, [r5, #6]
					ncambios--;
 c006820:	e584c080 	str	ip, [r4, #128]	; 0x80
		Lcd_Draw_VLine(9,  209, 294, 15, 1);

		//FICHAS - matriz de cambios del tablero
		for (i = 0; i < DIM; i++){
			for (j = 0; j < DIM; j++){
				if(cambios[i][j] == 1){
 c006824:	1affff84 	bne	c00663c <Pantalla_juego+0xcf4>
					BitmapView(120+(j*25),10+(i*25),Stru_Bitmap_fichaBlanca);
 c006828:	e59f10cc 	ldr	r1, [pc, #204]	; c0068fc <Pantalla_juego+0xfb4>
 c00682c:	e897000c 	ldm	r7, {r2, r3}
 c006830:	e8910003 	ldm	r1, {r0, r1}
 c006834:	e1a0e00d 	mov	lr, sp
 c006838:	e88e0003 	stm	lr, {r0, r1}
 c00683c:	e59f00c4 	ldr	r0, [pc, #196]	; c006908 <Pantalla_juego+0xfc0>
 c006840:	e1a01006 	mov	r1, r6
 c006844:	ebffe94c 	bl	c000d7c <BitmapView>
					cambios[i][j]=0;
					ncambios--;
 c006848:	e2860019 	add	r0, r6, #25
 c00684c:	e5943080 	ldr	r3, [r4, #128]	; 0x80
 c006850:	e1a06800 	lsl	r6, r0, #16
 c006854:	e1a06826 	lsr	r6, r6, #16
 c006858:	e243c001 	sub	ip, r3, #1
		//FICHAS - matriz de cambios del tablero
		for (i = 0; i < DIM; i++){
			for (j = 0; j < DIM; j++){
				if(cambios[i][j] == 1){
					BitmapView(120+(j*25),10+(i*25),Stru_Bitmap_fichaBlanca);
					cambios[i][j]=0;
 c00685c:	e3a02000 	mov	r2, #0
		Lcd_Draw_VLine(9,  209, 244, 15, 1);
		Lcd_Draw_VLine(9,  209, 269, 15, 1);
		Lcd_Draw_VLine(9,  209, 294, 15, 1);

		//FICHAS - matriz de cambios del tablero
		for (i = 0; i < DIM; i++){
 c006860:	e35600d2 	cmp	r6, #210	; 0xd2
			for (j = 0; j < DIM; j++){
				if(cambios[i][j] == 1){
					BitmapView(120+(j*25),10+(i*25),Stru_Bitmap_fichaBlanca);
					cambios[i][j]=0;
 c006864:	e5c52007 	strb	r2, [r5, #7]
					ncambios--;
 c006868:	e584c080 	str	ip, [r4, #128]	; 0x80
 c00686c:	e2855008 	add	r5, r5, #8
		Lcd_Draw_VLine(9,  209, 244, 15, 1);
		Lcd_Draw_VLine(9,  209, 269, 15, 1);
		Lcd_Draw_VLine(9,  209, 294, 15, 1);

		//FICHAS - matriz de cambios del tablero
		for (i = 0; i < DIM; i++){
 c006870:	1affff79 	bne	c00665c <Pantalla_juego+0xd14>
				}
			}
		}

		//FICHA GRIS
		underGris=toblerone[fMov][cMov];	// colocamos la ficha gris
 c006874:	e594e084 	ldr	lr, [r4, #132]	; 0x84
		oldfMov=fMov;						// guardamos su posicion
		oldcMov=cMov;						// guardamos la ficha de debajo
		BitmapView(120+(cMov*25),10+(fMov*25),Stru_Bitmap_fichaGris);
 c006878:	e59f3090 	ldr	r3, [pc, #144]	; c006910 <Pantalla_juego+0xfc8>
				}
			}
		}

		//FICHA GRIS
		underGris=toblerone[fMov][cMov];	// colocamos la ficha gris
 c00687c:	e594c088 	ldr	ip, [r4, #136]	; 0x88
		oldfMov=fMov;						// guardamos su posicion
		oldcMov=cMov;						// guardamos la ficha de debajo
		BitmapView(120+(cMov*25),10+(fMov*25),Stru_Bitmap_fichaGris);
 c006880:	e08e010e 	add	r0, lr, lr, lsl #2
 c006884:	e2831008 	add	r1, r3, #8
 c006888:	e08c710c 	add	r7, ip, ip, lsl #2
				}
			}
		}

		//FICHA GRIS
		underGris=toblerone[fMov][cMov];	// colocamos la ficha gris
 c00688c:	e084218e 	add	r2, r4, lr, lsl #3
		oldfMov=fMov;						// guardamos su posicion
		oldcMov=cMov;						// guardamos la ficha de debajo
		BitmapView(120+(cMov*25),10+(fMov*25),Stru_Bitmap_fichaGris);
 c006890:	e0805100 	add	r5, r0, r0, lsl #2
 c006894:	e8910003 	ldm	r1, {r0, r1}
 c006898:	e0876107 	add	r6, r7, r7, lsl #2
				}
			}
		}

		//FICHA GRIS
		underGris=toblerone[fMov][cMov];	// colocamos la ficha gris
 c00689c:	e082700c 	add	r7, r2, ip
		oldfMov=fMov;						// guardamos su posicion
		oldcMov=cMov;						// guardamos la ficha de debajo
		BitmapView(120+(cMov*25),10+(fMov*25),Stru_Bitmap_fichaGris);
 c0068a0:	e1a0200d 	mov	r2, sp
				}
			}
		}

		//FICHA GRIS
		underGris=toblerone[fMov][cMov];	// colocamos la ficha gris
 c0068a4:	e5d77090 	ldrb	r7, [r7, #144]	; 0x90
		oldfMov=fMov;						// guardamos su posicion
		oldcMov=cMov;						// guardamos la ficha de debajo
		BitmapView(120+(cMov*25),10+(fMov*25),Stru_Bitmap_fichaGris);
 c0068a8:	e8820003 	stm	r2, {r0, r1}
 c0068ac:	e2866078 	add	r6, r6, #120	; 0x78
 c0068b0:	e285500a 	add	r5, r5, #10
 c0068b4:	e1a06806 	lsl	r6, r6, #16
 c0068b8:	e1a05805 	lsl	r5, r5, #16
 c0068bc:	e893000c 	ldm	r3, {r2, r3}
 c0068c0:	e1a00826 	lsr	r0, r6, #16
 c0068c4:	e1a01825 	lsr	r1, r5, #16
				}
			}
		}

		//FICHA GRIS
		underGris=toblerone[fMov][cMov];	// colocamos la ficha gris
 c0068c8:	e5c4708c 	strb	r7, [r4, #140]	; 0x8c
		oldfMov=fMov;						// guardamos su posicion
 c0068cc:	e584e0d0 	str	lr, [r4, #208]	; 0xd0
		oldcMov=cMov;						// guardamos la ficha de debajo
 c0068d0:	e584c0d4 	str	ip, [r4, #212]	; 0xd4
		BitmapView(120+(cMov*25),10+(fMov*25),Stru_Bitmap_fichaGris);
 c0068d4:	ebffe928 	bl	c000d7c <BitmapView>
 c0068d8:	eafffd75 	b	c005eb4 <Pantalla_juego+0x56c>
				if(cambios[i][j] == 1){
					BitmapView(120+(j*25),10+(i*25),Stru_Bitmap_fichaBlanca);
					cambios[i][j]=0;
					ncambios--;
				}else if(cambios[i][j] == 2){
					BitmapView(120+(j*25),10+(i*25),Stru_Bitmap_fichaNegra);
 c0068dc:	e59f0044 	ldr	r0, [pc, #68]	; c006928 <Pantalla_juego+0xfe0>
 c0068e0:	e898000c 	ldm	r8, {r2, r3}
 c0068e4:	e8900003 	ldm	r0, {r0, r1}
 c0068e8:	eaffffd1 	b	c006834 <Pantalla_juego+0xeec>
 c0068ec:	0c00ae48 	.word	0x0c00ae48
 c0068f0:	431bde83 	.word	0x431bde83
 c0068f4:	0c00cdf8 	.word	0x0c00cdf8
 c0068f8:	0c00ce38 	.word	0x0c00ce38
 c0068fc:	0c00ae3c 	.word	0x0c00ae3c
 c006900:	0000010e 	.word	0x0000010e
 c006904:	00000125 	.word	0x00000125
 c006908:	00000127 	.word	0x00000127
 c00690c:	0000013e 	.word	0x0000013e
 c006910:	0c00ae24 	.word	0x0c00ae24
 c006914:	0000013f 	.word	0x0000013f
 c006918:	00000116 	.word	0x00000116
 c00691c:	0000012f 	.word	0x0000012f
 c006920:	0000010d 	.word	0x0000010d
 c006924:	00000126 	.word	0x00000126
 c006928:	0c00ae1c 	.word	0x0c00ae1c
 c00692c:	0c00ae14 	.word	0x0c00ae14
 c006930:	0c00ae34 	.word	0x0c00ae34
 c006934:	e51f0014 	ldr	r0, [pc, #-20]	; c006928 <Pantalla_juego+0xfe0>
 c006938:	e898000c 	ldm	r8, {r2, r3}
 c00693c:	e8900003 	ldm	r0, {r0, r1}
 c006940:	eaffff5b 	b	c0066b4 <Pantalla_juego+0xd6c>
 c006944:	e51f0024 	ldr	r0, [pc, #-36]	; c006928 <Pantalla_juego+0xfe0>
 c006948:	e898000c 	ldm	r8, {r2, r3}
 c00694c:	e8900003 	ldm	r0, {r0, r1}
 c006950:	eaffff47 	b	c006674 <Pantalla_juego+0xd2c>
 c006954:	e51f0034 	ldr	r0, [pc, #-52]	; c006928 <Pantalla_juego+0xfe0>
 c006958:	e898000c 	ldm	r8, {r2, r3}
 c00695c:	e8900003 	ldm	r0, {r0, r1}
 c006960:	eaffffa3 	b	c0067f4 <Pantalla_juego+0xeac>
 c006964:	e51f0044 	ldr	r0, [pc, #-68]	; c006928 <Pantalla_juego+0xfe0>
 c006968:	e898000c 	ldm	r8, {r2, r3}
 c00696c:	e8900003 	ldm	r0, {r0, r1}
 c006970:	eaffff6f 	b	c006734 <Pantalla_juego+0xdec>
 c006974:	e51f0054 	ldr	r0, [pc, #-84]	; c006928 <Pantalla_juego+0xfe0>
 c006978:	e898000c 	ldm	r8, {r2, r3}
 c00697c:	e8900003 	ldm	r0, {r0, r1}
 c006980:	eaffff5b 	b	c0066f4 <Pantalla_juego+0xdac>
 c006984:	e51f0064 	ldr	r0, [pc, #-100]	; c006928 <Pantalla_juego+0xfe0>
 c006988:	e898000c 	ldm	r8, {r2, r3}
 c00698c:	e8900003 	ldm	r0, {r0, r1}
 c006990:	eaffff87 	b	c0067b4 <Pantalla_juego+0xe6c>
 c006994:	e51f0074 	ldr	r0, [pc, #-116]	; c006928 <Pantalla_juego+0xfe0>
 c006998:	e898000c 	ldm	r8, {r2, r3}
 c00699c:	e8900003 	ldm	r0, {r0, r1}
 c0069a0:	eaffff73 	b	c006774 <Pantalla_juego+0xe2c>
		itoa(nvolteos,snum);
		Lcd_DspAscII8x16(0,129,BLACK,snum);

		//UNDER FICHA GRIS
		if((fMov!=oldfMov)|(cMov!=oldcMov)){	// Restauramos la ficha debajo de la ficha gris
			LcdClrRect(120+(oldcMov*25),10+(oldfMov*25),120+23+(oldcMov*25),10+23+(oldfMov*25), 0);
 c0069a4:	e0831103 	add	r1, r3, r3, lsl #2
 c0069a8:	e0820102 	add	r0, r2, r2, lsl #2
 c0069ac:	e0802100 	add	r2, r0, r0, lsl #2
 c0069b0:	e081e101 	add	lr, r1, r1, lsl #2
 c0069b4:	e1a0c802 	lsl	ip, r2, #16
 c0069b8:	e1a0380e 	lsl	r3, lr, #16
 c0069bc:	e28c071e 	add	r0, ip, #7864320	; 0x780000
 c0069c0:	e283180a 	add	r1, r3, #655360	; 0xa0000
 c0069c4:	e28c288f 	add	r2, ip, #9371648	; 0x8f0000
 c0069c8:	e283e821 	add	lr, r3, #2162688	; 0x210000
 c0069cc:	e1a0384e 	asr	r3, lr, #16
 c0069d0:	e1a00840 	asr	r0, r0, #16
 c0069d4:	e1a01841 	asr	r1, r1, #16
 c0069d8:	e1a02842 	asr	r2, r2, #16
 c0069dc:	e58d4000 	str	r4, [sp]
 c0069e0:	ebffef77 	bl	c0027c4 <LcdClrRect>
			if(underGris==1){
 c0069e4:	e5d6308c 	ldrb	r3, [r6, #140]	; 0x8c
 c0069e8:	e3530001 	cmp	r3, #1
 c0069ec:	0a000008 	beq	c006a14 <Pantalla_juego+0x10cc>
				BitmapView(120+(oldcMov*25),10+(oldfMov*25),Stru_Bitmap_fichaBlanca);
			}else if(underGris==2){
 c0069f0:	e3530002 	cmp	r3, #2
 c0069f4:	1afffc2e 	bne	c005ab4 <Pantalla_juego+0x16c>
				BitmapView(120+(oldcMov*25),10+(oldfMov*25),Stru_Bitmap_fichaNegra);
 c0069f8:	e286c0d0 	add	ip, r6, #208	; 0xd0
 c0069fc:	e89c5000 	ldm	ip, {ip, lr}
 c006a00:	e2833017 	add	r3, r3, #23
 c006a04:	e00e0e93 	mul	lr, r3, lr
 c006a08:	e00c0c93 	mul	ip, r3, ip
 c006a0c:	e51f30e8 	ldr	r3, [pc, #-232]	; c00692c <Pantalla_juego+0xfe4>
 c006a10:	ea000005 	b	c006a2c <Pantalla_juego+0x10e4>

		//UNDER FICHA GRIS
		if((fMov!=oldfMov)|(cMov!=oldcMov)){	// Restauramos la ficha debajo de la ficha gris
			LcdClrRect(120+(oldcMov*25),10+(oldfMov*25),120+23+(oldcMov*25),10+23+(oldfMov*25), 0);
			if(underGris==1){
				BitmapView(120+(oldcMov*25),10+(oldfMov*25),Stru_Bitmap_fichaBlanca);
 c006a14:	e286c0d0 	add	ip, r6, #208	; 0xd0
 c006a18:	e89c5000 	ldm	ip, {ip, lr}
 c006a1c:	e2834018 	add	r4, r3, #24
 c006a20:	e00e0e94 	mul	lr, r4, lr
 c006a24:	e00c0c94 	mul	ip, r4, ip
 c006a28:	e51f3100 	ldr	r3, [pc, #-256]	; c006930 <Pantalla_juego+0xfe8>
			}else if(underGris==2){
				BitmapView(120+(oldcMov*25),10+(oldfMov*25),Stru_Bitmap_fichaNegra);
 c006a2c:	e2831008 	add	r1, r3, #8
 c006a30:	e8910003 	ldm	r1, {r0, r1}
 c006a34:	e1a0200d 	mov	r2, sp
 c006a38:	e8820003 	stm	r2, {r0, r1}
 c006a3c:	e28c400a 	add	r4, ip, #10
 c006a40:	e28ee078 	add	lr, lr, #120	; 0x78
 c006a44:	e1a0e80e 	lsl	lr, lr, #16
 c006a48:	e1a0c804 	lsl	ip, r4, #16
 c006a4c:	e893000c 	ldm	r3, {r2, r3}
 c006a50:	e1a0082e 	lsr	r0, lr, #16
 c006a54:	e1a0182c 	lsr	r1, ip, #16
 c006a58:	ebffe8c7 	bl	c000d7c <BitmapView>
 c006a5c:	eafffc14 	b	c005ab4 <Pantalla_juego+0x16c>

0c006a60 <LCD_imprimir>:

/*
 * Imprime la pantalla actual si es necesario
 */
void LCD_imprimir(){
	if((DMA_ready==1) & (Hay_cambios==1)){
 c006a60:	e59f308c 	ldr	r3, [pc, #140]	; c006af4 <LCD_imprimir+0x94>
 c006a64:	e2831f5a 	add	r1, r3, #360	; 0x168
 c006a68:	e8910006 	ldm	r1, {r1, r2}
}

/*
 * Imprime la pantalla actual si es necesario
 */
void LCD_imprimir(){
 c006a6c:	e1a0c00d 	mov	ip, sp
	if((DMA_ready==1) & (Hay_cambios==1)){
 c006a70:	e3510001 	cmp	r1, #1
 c006a74:	03520001 	cmpeq	r2, #1
}

/*
 * Imprime la pantalla actual si es necesario
 */
void LCD_imprimir(){
 c006a78:	e92dd800 	push	{fp, ip, lr, pc}
 c006a7c:	e24cb004 	sub	fp, ip, #4
	if((DMA_ready==1) & (Hay_cambios==1)){
 c006a80:	1a00000c 	bne	c006ab8 <LCD_imprimir+0x58>
		DMA_ready=0;
		Hay_cambios=0;

		if(pantalla==PANTALLA_INICIO){		// Saltamos a las funciones de dibujado
 c006a84:	e5932170 	ldr	r2, [r3, #368]	; 0x170
/*
 * Imprime la pantalla actual si es necesario
 */
void LCD_imprimir(){
	if((DMA_ready==1) & (Hay_cambios==1)){
		DMA_ready=0;
 c006a88:	e3a00000 	mov	r0, #0
		Hay_cambios=0;

		if(pantalla==PANTALLA_INICIO){		// Saltamos a las funciones de dibujado
 c006a8c:	e1520000 	cmp	r2, r0
/*
 * Imprime la pantalla actual si es necesario
 */
void LCD_imprimir(){
	if((DMA_ready==1) & (Hay_cambios==1)){
		DMA_ready=0;
 c006a90:	e583016c 	str	r0, [r3, #364]	; 0x16c
		Hay_cambios=0;
 c006a94:	e5830168 	str	r0, [r3, #360]	; 0x168

		if(pantalla==PANTALLA_INICIO){		// Saltamos a las funciones de dibujado
 c006a98:	0a000009 	beq	c006ac4 <LCD_imprimir+0x64>
			Pantalla_inicial();				// según la pantalla actual.
		}else if(pantalla==PANTALLA_JUEGO){
 c006a9c:	e3520001 	cmp	r2, #1
 c006aa0:	0a00000a 	beq	c006ad0 <LCD_imprimir+0x70>
			Pantalla_juego();
		}else if(pantalla==PANTALLA_FINAL){
 c006aa4:	e3520002 	cmp	r2, #2
 c006aa8:	0a00000b 	beq	c006adc <LCD_imprimir+0x7c>
			Pantalla_final();
		}else if(pantalla==PANTALLA_CALIBRADO){
 c006aac:	e3520003 	cmp	r2, #3
 c006ab0:	0a00000c 	beq	c006ae8 <LCD_imprimir+0x88>
			Pantalla_calibrar();
		}
		Lcd_Dma_Trans();					// Iniciamos transferencia.
 c006ab4:	ebfff9fd 	bl	c0052b0 <Lcd_Dma_Trans>
	}
}
 c006ab8:	e24bd00c 	sub	sp, fp, #12
 c006abc:	e89d6800 	ldm	sp, {fp, sp, lr}
 c006ac0:	e12fff1e 	bx	lr
	if((DMA_ready==1) & (Hay_cambios==1)){
		DMA_ready=0;
		Hay_cambios=0;

		if(pantalla==PANTALLA_INICIO){		// Saltamos a las funciones de dibujado
			Pantalla_inicial();				// según la pantalla actual.
 c006ac4:	ebfffb5f 	bl	c005848 <Pantalla_inicial>
		}else if(pantalla==PANTALLA_FINAL){
			Pantalla_final();
		}else if(pantalla==PANTALLA_CALIBRADO){
			Pantalla_calibrar();
		}
		Lcd_Dma_Trans();					// Iniciamos transferencia.
 c006ac8:	ebfff9f8 	bl	c0052b0 <Lcd_Dma_Trans>
 c006acc:	eafffff9 	b	c006ab8 <LCD_imprimir+0x58>
		Hay_cambios=0;

		if(pantalla==PANTALLA_INICIO){		// Saltamos a las funciones de dibujado
			Pantalla_inicial();				// según la pantalla actual.
		}else if(pantalla==PANTALLA_JUEGO){
			Pantalla_juego();
 c006ad0:	ebfffb9c 	bl	c005948 <Pantalla_juego>
		}else if(pantalla==PANTALLA_FINAL){
			Pantalla_final();
		}else if(pantalla==PANTALLA_CALIBRADO){
			Pantalla_calibrar();
		}
		Lcd_Dma_Trans();					// Iniciamos transferencia.
 c006ad4:	ebfff9f5 	bl	c0052b0 <Lcd_Dma_Trans>
 c006ad8:	eafffff6 	b	c006ab8 <LCD_imprimir+0x58>
		if(pantalla==PANTALLA_INICIO){		// Saltamos a las funciones de dibujado
			Pantalla_inicial();				// según la pantalla actual.
		}else if(pantalla==PANTALLA_JUEGO){
			Pantalla_juego();
		}else if(pantalla==PANTALLA_FINAL){
			Pantalla_final();
 c006adc:	ebfffabd 	bl	c0055d8 <Pantalla_final>
		}else if(pantalla==PANTALLA_CALIBRADO){
			Pantalla_calibrar();
		}
		Lcd_Dma_Trans();					// Iniciamos transferencia.
 c006ae0:	ebfff9f2 	bl	c0052b0 <Lcd_Dma_Trans>
 c006ae4:	eafffff3 	b	c006ab8 <LCD_imprimir+0x58>
		}else if(pantalla==PANTALLA_JUEGO){
			Pantalla_juego();
		}else if(pantalla==PANTALLA_FINAL){
			Pantalla_final();
		}else if(pantalla==PANTALLA_CALIBRADO){
			Pantalla_calibrar();
 c006ae8:	ebfffb02 	bl	c0056f8 <Pantalla_calibrar>
		}
		Lcd_Dma_Trans();					// Iniciamos transferencia.
 c006aec:	ebfff9ef 	bl	c0052b0 <Lcd_Dma_Trans>
 c006af0:	eafffff0 	b	c006ab8 <LCD_imprimir+0x58>
 c006af4:	0c00ae48 	.word	0x0c00ae48

0c006af8 <LCD_pantalla>:
}
/*
 * Indica pantalla a imprimir
 */
void LCD_pantalla(Pantalla p){
	pantalla=p;
 c006af8:	e59f300c 	ldr	r3, [pc, #12]	; c006b0c <LCD_pantalla+0x14>
	primeraImpresion=1;
 c006afc:	e3a02001 	mov	r2, #1
}
/*
 * Indica pantalla a imprimir
 */
void LCD_pantalla(Pantalla p){
	pantalla=p;
 c006b00:	e5830170 	str	r0, [r3, #368]	; 0x170
	primeraImpresion=1;
 c006b04:	e5832000 	str	r2, [r3]
}
 c006b08:	e12fff1e 	bx	lr
 c006b0c:	0c00ae48 	.word	0x0c00ae48

0c006b10 <LCD_movimiento>:
/*
 * Indica fila y columna a la que apunta la ficha gris
 */
void LCD_movimiento(int f,int c){
	cMov=c;
 c006b10:	e59f3008 	ldr	r3, [pc, #8]	; c006b20 <LCD_movimiento+0x10>
 c006b14:	e5831088 	str	r1, [r3, #136]	; 0x88
	fMov=f;
 c006b18:	e5830084 	str	r0, [r3, #132]	; 0x84
}
 c006b1c:	e12fff1e 	bx	lr
 c006b20:	0c00cdf8 	.word	0x0c00cdf8

0c006b24 <LCD_tablero>:
 * Calcula los cambios que se han producido en el tablero.
 * Realiza una copia para calcular los cambios en la siguiente iteración.
 */
void LCD_tablero(char t[DIM][DIM]){
	int i,j;
	if(primeraImpresion==1){
 c006b24:	e59f17cc 	ldr	r1, [pc, #1996]	; c0072f8 <LCD_tablero+0x7d4>
 c006b28:	e5913000 	ldr	r3, [r1]
 c006b2c:	e3530001 	cmp	r3, #1
}
/*
 * Calcula los cambios que se han producido en el tablero.
 * Realiza una copia para calcular los cambios en la siguiente iteración.
 */
void LCD_tablero(char t[DIM][DIM]){
 c006b30:	e52d4004 	push	{r4}		; (str r4, [sp, #-4]!)
	int i,j;
	if(primeraImpresion==1){
 c006b34:	0a0001cb 	beq	c007268 <LCD_tablero+0x744>
 c006b38:	e59f27bc 	ldr	r2, [pc, #1980]	; c0072fc <LCD_tablero+0x7d8>
			}
		}
	}
	for (i = 0; i < DIM; i++){
		for (j = 0; j < DIM; j++){
			if(toblerone[i][j]!=t[i][j]){
 c006b3c:	e5d04000 	ldrb	r4, [r0]
 c006b40:	e5d23090 	ldrb	r3, [r2, #144]	; 0x90
 * Calcula los cambios que se han producido en el tablero.
 * Realiza una copia para calcular los cambios en la siguiente iteración.
 */
void LCD_tablero(char t[DIM][DIM]){
	int i,j;
	if(primeraImpresion==1){
 c006b44:	e59fc7b0 	ldr	ip, [pc, #1968]	; c0072fc <LCD_tablero+0x7d8>
			}
		}
	}
	for (i = 0; i < DIM; i++){
		for (j = 0; j < DIM; j++){
			if(toblerone[i][j]!=t[i][j]){
 c006b48:	e1530004 	cmp	r3, r4
				toblerone[i][j]=t[i][j];
 c006b4c:	15cc4090 	strbne	r4, [ip, #144]	; 0x90
				cambios[i][j]=t[i][j];
 c006b50:	15cc4040 	strbne	r4, [ip, #64]	; 0x40
 * Calcula los cambios que se han producido en el tablero.
 * Realiza una copia para calcular los cambios en la siguiente iteración.
 */
void LCD_tablero(char t[DIM][DIM]){
	int i,j;
	if(primeraImpresion==1){
 c006b54:	e5923080 	ldr	r3, [r2, #128]	; 0x80
			}
		}
	}
	for (i = 0; i < DIM; i++){
		for (j = 0; j < DIM; j++){
			if(toblerone[i][j]!=t[i][j]){
 c006b58:	e5d04001 	ldrb	r4, [r0, #1]
 c006b5c:	e5d21091 	ldrb	r1, [r2, #145]	; 0x91
 c006b60:	e59fc794 	ldr	ip, [pc, #1940]	; c0072fc <LCD_tablero+0x7d8>
				toblerone[i][j]=t[i][j];
				cambios[i][j]=t[i][j];
				ncambios++;
 c006b64:	12833001 	addne	r3, r3, #1
			}
		}
	}
	for (i = 0; i < DIM; i++){
		for (j = 0; j < DIM; j++){
			if(toblerone[i][j]!=t[i][j]){
 c006b68:	e1510004 	cmp	r1, r4
				toblerone[i][j]=t[i][j];
 c006b6c:	15cc4091 	strbne	r4, [ip, #145]	; 0x91
				cambios[i][j]=t[i][j];
 c006b70:	15cc4041 	strbne	r4, [ip, #65]	; 0x41
			}
		}
	}
	for (i = 0; i < DIM; i++){
		for (j = 0; j < DIM; j++){
			if(toblerone[i][j]!=t[i][j]){
 c006b74:	e5d21092 	ldrb	r1, [r2, #146]	; 0x92
 c006b78:	e5d04002 	ldrb	r4, [r0, #2]
 c006b7c:	e59fc778 	ldr	ip, [pc, #1912]	; c0072fc <LCD_tablero+0x7d8>
				toblerone[i][j]=t[i][j];
				cambios[i][j]=t[i][j];
				ncambios++;
 c006b80:	12833001 	addne	r3, r3, #1
			}
		}
	}
	for (i = 0; i < DIM; i++){
		for (j = 0; j < DIM; j++){
			if(toblerone[i][j]!=t[i][j]){
 c006b84:	e1510004 	cmp	r1, r4
				toblerone[i][j]=t[i][j];
 c006b88:	15cc4092 	strbne	r4, [ip, #146]	; 0x92
				cambios[i][j]=t[i][j];
 c006b8c:	15cc4042 	strbne	r4, [ip, #66]	; 0x42
			}
		}
	}
	for (i = 0; i < DIM; i++){
		for (j = 0; j < DIM; j++){
			if(toblerone[i][j]!=t[i][j]){
 c006b90:	e5d21093 	ldrb	r1, [r2, #147]	; 0x93
 c006b94:	e5d04003 	ldrb	r4, [r0, #3]
 c006b98:	e59fc75c 	ldr	ip, [pc, #1884]	; c0072fc <LCD_tablero+0x7d8>
				toblerone[i][j]=t[i][j];
				cambios[i][j]=t[i][j];
				ncambios++;
 c006b9c:	12833001 	addne	r3, r3, #1
			}
		}
	}
	for (i = 0; i < DIM; i++){
		for (j = 0; j < DIM; j++){
			if(toblerone[i][j]!=t[i][j]){
 c006ba0:	e1510004 	cmp	r1, r4
				toblerone[i][j]=t[i][j];
 c006ba4:	15cc4093 	strbne	r4, [ip, #147]	; 0x93
				cambios[i][j]=t[i][j];
 c006ba8:	15cc4043 	strbne	r4, [ip, #67]	; 0x43
			}
		}
	}
	for (i = 0; i < DIM; i++){
		for (j = 0; j < DIM; j++){
			if(toblerone[i][j]!=t[i][j]){
 c006bac:	e5d21094 	ldrb	r1, [r2, #148]	; 0x94
 c006bb0:	e5d04004 	ldrb	r4, [r0, #4]
 c006bb4:	e59fc740 	ldr	ip, [pc, #1856]	; c0072fc <LCD_tablero+0x7d8>
				toblerone[i][j]=t[i][j];
				cambios[i][j]=t[i][j];
				ncambios++;
 c006bb8:	12833001 	addne	r3, r3, #1
			}
		}
	}
	for (i = 0; i < DIM; i++){
		for (j = 0; j < DIM; j++){
			if(toblerone[i][j]!=t[i][j]){
 c006bbc:	e1510004 	cmp	r1, r4
				toblerone[i][j]=t[i][j];
 c006bc0:	15cc4094 	strbne	r4, [ip, #148]	; 0x94
				cambios[i][j]=t[i][j];
 c006bc4:	15cc4044 	strbne	r4, [ip, #68]	; 0x44
			}
		}
	}
	for (i = 0; i < DIM; i++){
		for (j = 0; j < DIM; j++){
			if(toblerone[i][j]!=t[i][j]){
 c006bc8:	e5d21095 	ldrb	r1, [r2, #149]	; 0x95
 c006bcc:	e5d04005 	ldrb	r4, [r0, #5]
 c006bd0:	e59fc724 	ldr	ip, [pc, #1828]	; c0072fc <LCD_tablero+0x7d8>
				toblerone[i][j]=t[i][j];
				cambios[i][j]=t[i][j];
				ncambios++;
 c006bd4:	12833001 	addne	r3, r3, #1
			}
		}
	}
	for (i = 0; i < DIM; i++){
		for (j = 0; j < DIM; j++){
			if(toblerone[i][j]!=t[i][j]){
 c006bd8:	e1510004 	cmp	r1, r4
				toblerone[i][j]=t[i][j];
 c006bdc:	15cc4095 	strbne	r4, [ip, #149]	; 0x95
				cambios[i][j]=t[i][j];
 c006be0:	15cc4045 	strbne	r4, [ip, #69]	; 0x45
			}
		}
	}
	for (i = 0; i < DIM; i++){
		for (j = 0; j < DIM; j++){
			if(toblerone[i][j]!=t[i][j]){
 c006be4:	e5d21096 	ldrb	r1, [r2, #150]	; 0x96
 c006be8:	e5d04006 	ldrb	r4, [r0, #6]
 c006bec:	e59fc708 	ldr	ip, [pc, #1800]	; c0072fc <LCD_tablero+0x7d8>
				toblerone[i][j]=t[i][j];
				cambios[i][j]=t[i][j];
				ncambios++;
 c006bf0:	12833001 	addne	r3, r3, #1
			}
		}
	}
	for (i = 0; i < DIM; i++){
		for (j = 0; j < DIM; j++){
			if(toblerone[i][j]!=t[i][j]){
 c006bf4:	e1510004 	cmp	r1, r4
				toblerone[i][j]=t[i][j];
 c006bf8:	15cc4096 	strbne	r4, [ip, #150]	; 0x96
				cambios[i][j]=t[i][j];
 c006bfc:	15cc4046 	strbne	r4, [ip, #70]	; 0x46
			}
		}
	}
	for (i = 0; i < DIM; i++){
		for (j = 0; j < DIM; j++){
			if(toblerone[i][j]!=t[i][j]){
 c006c00:	e5d21097 	ldrb	r1, [r2, #151]	; 0x97
 c006c04:	e5d04007 	ldrb	r4, [r0, #7]
 c006c08:	e59fc6ec 	ldr	ip, [pc, #1772]	; c0072fc <LCD_tablero+0x7d8>
				toblerone[i][j]=t[i][j];
				cambios[i][j]=t[i][j];
				ncambios++;
 c006c0c:	12833001 	addne	r3, r3, #1
			}
		}
	}
	for (i = 0; i < DIM; i++){
		for (j = 0; j < DIM; j++){
			if(toblerone[i][j]!=t[i][j]){
 c006c10:	e1510004 	cmp	r1, r4
				toblerone[i][j]=t[i][j];
 c006c14:	15cc4097 	strbne	r4, [ip, #151]	; 0x97
				cambios[i][j]=t[i][j];
 c006c18:	15cc4047 	strbne	r4, [ip, #71]	; 0x47
			}
		}
	}
	for (i = 0; i < DIM; i++){
		for (j = 0; j < DIM; j++){
			if(toblerone[i][j]!=t[i][j]){
 c006c1c:	e5d21098 	ldrb	r1, [r2, #152]	; 0x98
 c006c20:	e5d0c008 	ldrb	ip, [r0, #8]
 c006c24:	e59f46d0 	ldr	r4, [pc, #1744]	; c0072fc <LCD_tablero+0x7d8>
				toblerone[i][j]=t[i][j];
				cambios[i][j]=t[i][j];
				ncambios++;
 c006c28:	12833001 	addne	r3, r3, #1
			}
		}
	}
	for (i = 0; i < DIM; i++){
		for (j = 0; j < DIM; j++){
			if(toblerone[i][j]!=t[i][j]){
 c006c2c:	e151000c 	cmp	r1, ip
				toblerone[i][j]=t[i][j];
 c006c30:	15c4c098 	strbne	ip, [r4, #152]	; 0x98
				cambios[i][j]=t[i][j];
 c006c34:	15c4c048 	strbne	ip, [r4, #72]	; 0x48
			}
		}
	}
	for (i = 0; i < DIM; i++){
		for (j = 0; j < DIM; j++){
			if(toblerone[i][j]!=t[i][j]){
 c006c38:	e2801008 	add	r1, r0, #8
 c006c3c:	e5d1c001 	ldrb	ip, [r1, #1]
 c006c40:	e5d24099 	ldrb	r4, [r2, #153]	; 0x99
				toblerone[i][j]=t[i][j];
				cambios[i][j]=t[i][j];
				ncambios++;
 c006c44:	12833001 	addne	r3, r3, #1
			}
		}
	}
	for (i = 0; i < DIM; i++){
		for (j = 0; j < DIM; j++){
			if(toblerone[i][j]!=t[i][j]){
 c006c48:	e154000c 	cmp	r4, ip
 c006c4c:	e59f46a8 	ldr	r4, [pc, #1704]	; c0072fc <LCD_tablero+0x7d8>
				toblerone[i][j]=t[i][j];
 c006c50:	15c4c099 	strbne	ip, [r4, #153]	; 0x99
				cambios[i][j]=t[i][j];
 c006c54:	15c4c049 	strbne	ip, [r4, #73]	; 0x49
			}
		}
	}
	for (i = 0; i < DIM; i++){
		for (j = 0; j < DIM; j++){
			if(toblerone[i][j]!=t[i][j]){
 c006c58:	e5d2409a 	ldrb	r4, [r2, #154]	; 0x9a
 c006c5c:	e5d1c002 	ldrb	ip, [r1, #2]
				toblerone[i][j]=t[i][j];
				cambios[i][j]=t[i][j];
				ncambios++;
 c006c60:	12833001 	addne	r3, r3, #1
			}
		}
	}
	for (i = 0; i < DIM; i++){
		for (j = 0; j < DIM; j++){
			if(toblerone[i][j]!=t[i][j]){
 c006c64:	e154000c 	cmp	r4, ip
 c006c68:	e59f468c 	ldr	r4, [pc, #1676]	; c0072fc <LCD_tablero+0x7d8>
				toblerone[i][j]=t[i][j];
 c006c6c:	15c4c09a 	strbne	ip, [r4, #154]	; 0x9a
				cambios[i][j]=t[i][j];
 c006c70:	15c4c04a 	strbne	ip, [r4, #74]	; 0x4a
			}
		}
	}
	for (i = 0; i < DIM; i++){
		for (j = 0; j < DIM; j++){
			if(toblerone[i][j]!=t[i][j]){
 c006c74:	e5d2409b 	ldrb	r4, [r2, #155]	; 0x9b
 c006c78:	e5d1c003 	ldrb	ip, [r1, #3]
				toblerone[i][j]=t[i][j];
				cambios[i][j]=t[i][j];
				ncambios++;
 c006c7c:	12833001 	addne	r3, r3, #1
			}
		}
	}
	for (i = 0; i < DIM; i++){
		for (j = 0; j < DIM; j++){
			if(toblerone[i][j]!=t[i][j]){
 c006c80:	e154000c 	cmp	r4, ip
 c006c84:	e59f4670 	ldr	r4, [pc, #1648]	; c0072fc <LCD_tablero+0x7d8>
				toblerone[i][j]=t[i][j];
 c006c88:	15c4c09b 	strbne	ip, [r4, #155]	; 0x9b
				cambios[i][j]=t[i][j];
 c006c8c:	15c4c04b 	strbne	ip, [r4, #75]	; 0x4b
			}
		}
	}
	for (i = 0; i < DIM; i++){
		for (j = 0; j < DIM; j++){
			if(toblerone[i][j]!=t[i][j]){
 c006c90:	e5d2409c 	ldrb	r4, [r2, #156]	; 0x9c
 c006c94:	e5d1c004 	ldrb	ip, [r1, #4]
				toblerone[i][j]=t[i][j];
				cambios[i][j]=t[i][j];
				ncambios++;
 c006c98:	12833001 	addne	r3, r3, #1
			}
		}
	}
	for (i = 0; i < DIM; i++){
		for (j = 0; j < DIM; j++){
			if(toblerone[i][j]!=t[i][j]){
 c006c9c:	e154000c 	cmp	r4, ip
 c006ca0:	e59f4654 	ldr	r4, [pc, #1620]	; c0072fc <LCD_tablero+0x7d8>
				toblerone[i][j]=t[i][j];
 c006ca4:	15c4c09c 	strbne	ip, [r4, #156]	; 0x9c
				cambios[i][j]=t[i][j];
 c006ca8:	15c4c04c 	strbne	ip, [r4, #76]	; 0x4c
			}
		}
	}
	for (i = 0; i < DIM; i++){
		for (j = 0; j < DIM; j++){
			if(toblerone[i][j]!=t[i][j]){
 c006cac:	e5d2409d 	ldrb	r4, [r2, #157]	; 0x9d
 c006cb0:	e5d1c005 	ldrb	ip, [r1, #5]
				toblerone[i][j]=t[i][j];
				cambios[i][j]=t[i][j];
				ncambios++;
 c006cb4:	12833001 	addne	r3, r3, #1
			}
		}
	}
	for (i = 0; i < DIM; i++){
		for (j = 0; j < DIM; j++){
			if(toblerone[i][j]!=t[i][j]){
 c006cb8:	e154000c 	cmp	r4, ip
 c006cbc:	e59f4638 	ldr	r4, [pc, #1592]	; c0072fc <LCD_tablero+0x7d8>
				toblerone[i][j]=t[i][j];
 c006cc0:	15c4c09d 	strbne	ip, [r4, #157]	; 0x9d
				cambios[i][j]=t[i][j];
 c006cc4:	15c4c04d 	strbne	ip, [r4, #77]	; 0x4d
			}
		}
	}
	for (i = 0; i < DIM; i++){
		for (j = 0; j < DIM; j++){
			if(toblerone[i][j]!=t[i][j]){
 c006cc8:	e5d2409e 	ldrb	r4, [r2, #158]	; 0x9e
 c006ccc:	e5d1c006 	ldrb	ip, [r1, #6]
				toblerone[i][j]=t[i][j];
				cambios[i][j]=t[i][j];
				ncambios++;
 c006cd0:	12833001 	addne	r3, r3, #1
			}
		}
	}
	for (i = 0; i < DIM; i++){
		for (j = 0; j < DIM; j++){
			if(toblerone[i][j]!=t[i][j]){
 c006cd4:	e154000c 	cmp	r4, ip
 c006cd8:	e59f461c 	ldr	r4, [pc, #1564]	; c0072fc <LCD_tablero+0x7d8>
				toblerone[i][j]=t[i][j];
 c006cdc:	15c4c09e 	strbne	ip, [r4, #158]	; 0x9e
				cambios[i][j]=t[i][j];
 c006ce0:	15c4c04e 	strbne	ip, [r4, #78]	; 0x4e
			}
		}
	}
	for (i = 0; i < DIM; i++){
		for (j = 0; j < DIM; j++){
			if(toblerone[i][j]!=t[i][j]){
 c006ce4:	e5d14007 	ldrb	r4, [r1, #7]
 c006ce8:	e5d2109f 	ldrb	r1, [r2, #159]	; 0x9f
 c006cec:	e59fc608 	ldr	ip, [pc, #1544]	; c0072fc <LCD_tablero+0x7d8>
				toblerone[i][j]=t[i][j];
				cambios[i][j]=t[i][j];
				ncambios++;
 c006cf0:	12833001 	addne	r3, r3, #1
			}
		}
	}
	for (i = 0; i < DIM; i++){
		for (j = 0; j < DIM; j++){
			if(toblerone[i][j]!=t[i][j]){
 c006cf4:	e1510004 	cmp	r1, r4
				toblerone[i][j]=t[i][j];
 c006cf8:	15cc409f 	strbne	r4, [ip, #159]	; 0x9f
				cambios[i][j]=t[i][j];
 c006cfc:	15cc404f 	strbne	r4, [ip, #79]	; 0x4f
			}
		}
	}
	for (i = 0; i < DIM; i++){
		for (j = 0; j < DIM; j++){
			if(toblerone[i][j]!=t[i][j]){
 c006d00:	e5d210a0 	ldrb	r1, [r2, #160]	; 0xa0
 c006d04:	e5d0c010 	ldrb	ip, [r0, #16]
 c006d08:	e59f45ec 	ldr	r4, [pc, #1516]	; c0072fc <LCD_tablero+0x7d8>
				toblerone[i][j]=t[i][j];
				cambios[i][j]=t[i][j];
				ncambios++;
 c006d0c:	12833001 	addne	r3, r3, #1
			}
		}
	}
	for (i = 0; i < DIM; i++){
		for (j = 0; j < DIM; j++){
			if(toblerone[i][j]!=t[i][j]){
 c006d10:	e151000c 	cmp	r1, ip
				toblerone[i][j]=t[i][j];
 c006d14:	15c4c0a0 	strbne	ip, [r4, #160]	; 0xa0
				cambios[i][j]=t[i][j];
 c006d18:	15c4c050 	strbne	ip, [r4, #80]	; 0x50
			}
		}
	}
	for (i = 0; i < DIM; i++){
		for (j = 0; j < DIM; j++){
			if(toblerone[i][j]!=t[i][j]){
 c006d1c:	e2801010 	add	r1, r0, #16
 c006d20:	e5d1c001 	ldrb	ip, [r1, #1]
 c006d24:	e5d240a1 	ldrb	r4, [r2, #161]	; 0xa1
				toblerone[i][j]=t[i][j];
				cambios[i][j]=t[i][j];
				ncambios++;
 c006d28:	12833001 	addne	r3, r3, #1
			}
		}
	}
	for (i = 0; i < DIM; i++){
		for (j = 0; j < DIM; j++){
			if(toblerone[i][j]!=t[i][j]){
 c006d2c:	e154000c 	cmp	r4, ip
 c006d30:	e59f45c4 	ldr	r4, [pc, #1476]	; c0072fc <LCD_tablero+0x7d8>
				toblerone[i][j]=t[i][j];
 c006d34:	15c4c0a1 	strbne	ip, [r4, #161]	; 0xa1
				cambios[i][j]=t[i][j];
 c006d38:	15c4c051 	strbne	ip, [r4, #81]	; 0x51
			}
		}
	}
	for (i = 0; i < DIM; i++){
		for (j = 0; j < DIM; j++){
			if(toblerone[i][j]!=t[i][j]){
 c006d3c:	e5d240a2 	ldrb	r4, [r2, #162]	; 0xa2
 c006d40:	e5d1c002 	ldrb	ip, [r1, #2]
				toblerone[i][j]=t[i][j];
				cambios[i][j]=t[i][j];
				ncambios++;
 c006d44:	12833001 	addne	r3, r3, #1
			}
		}
	}
	for (i = 0; i < DIM; i++){
		for (j = 0; j < DIM; j++){
			if(toblerone[i][j]!=t[i][j]){
 c006d48:	e154000c 	cmp	r4, ip
 c006d4c:	e59f45a8 	ldr	r4, [pc, #1448]	; c0072fc <LCD_tablero+0x7d8>
				toblerone[i][j]=t[i][j];
 c006d50:	15c4c0a2 	strbne	ip, [r4, #162]	; 0xa2
				cambios[i][j]=t[i][j];
 c006d54:	15c4c052 	strbne	ip, [r4, #82]	; 0x52
			}
		}
	}
	for (i = 0; i < DIM; i++){
		for (j = 0; j < DIM; j++){
			if(toblerone[i][j]!=t[i][j]){
 c006d58:	e5d240a3 	ldrb	r4, [r2, #163]	; 0xa3
 c006d5c:	e5d1c003 	ldrb	ip, [r1, #3]
				toblerone[i][j]=t[i][j];
				cambios[i][j]=t[i][j];
				ncambios++;
 c006d60:	12833001 	addne	r3, r3, #1
			}
		}
	}
	for (i = 0; i < DIM; i++){
		for (j = 0; j < DIM; j++){
			if(toblerone[i][j]!=t[i][j]){
 c006d64:	e154000c 	cmp	r4, ip
 c006d68:	e59f458c 	ldr	r4, [pc, #1420]	; c0072fc <LCD_tablero+0x7d8>
				toblerone[i][j]=t[i][j];
 c006d6c:	15c4c0a3 	strbne	ip, [r4, #163]	; 0xa3
				cambios[i][j]=t[i][j];
 c006d70:	15c4c053 	strbne	ip, [r4, #83]	; 0x53
			}
		}
	}
	for (i = 0; i < DIM; i++){
		for (j = 0; j < DIM; j++){
			if(toblerone[i][j]!=t[i][j]){
 c006d74:	e5d240a4 	ldrb	r4, [r2, #164]	; 0xa4
 c006d78:	e5d1c004 	ldrb	ip, [r1, #4]
				toblerone[i][j]=t[i][j];
				cambios[i][j]=t[i][j];
				ncambios++;
 c006d7c:	12833001 	addne	r3, r3, #1
			}
		}
	}
	for (i = 0; i < DIM; i++){
		for (j = 0; j < DIM; j++){
			if(toblerone[i][j]!=t[i][j]){
 c006d80:	e154000c 	cmp	r4, ip
 c006d84:	e59f4570 	ldr	r4, [pc, #1392]	; c0072fc <LCD_tablero+0x7d8>
				toblerone[i][j]=t[i][j];
 c006d88:	15c4c0a4 	strbne	ip, [r4, #164]	; 0xa4
				cambios[i][j]=t[i][j];
 c006d8c:	15c4c054 	strbne	ip, [r4, #84]	; 0x54
			}
		}
	}
	for (i = 0; i < DIM; i++){
		for (j = 0; j < DIM; j++){
			if(toblerone[i][j]!=t[i][j]){
 c006d90:	e5d240a5 	ldrb	r4, [r2, #165]	; 0xa5
 c006d94:	e5d1c005 	ldrb	ip, [r1, #5]
				toblerone[i][j]=t[i][j];
				cambios[i][j]=t[i][j];
				ncambios++;
 c006d98:	12833001 	addne	r3, r3, #1
			}
		}
	}
	for (i = 0; i < DIM; i++){
		for (j = 0; j < DIM; j++){
			if(toblerone[i][j]!=t[i][j]){
 c006d9c:	e154000c 	cmp	r4, ip
 c006da0:	e59f4554 	ldr	r4, [pc, #1364]	; c0072fc <LCD_tablero+0x7d8>
				toblerone[i][j]=t[i][j];
 c006da4:	15c4c0a5 	strbne	ip, [r4, #165]	; 0xa5
				cambios[i][j]=t[i][j];
 c006da8:	15c4c055 	strbne	ip, [r4, #85]	; 0x55
			}
		}
	}
	for (i = 0; i < DIM; i++){
		for (j = 0; j < DIM; j++){
			if(toblerone[i][j]!=t[i][j]){
 c006dac:	e5d240a6 	ldrb	r4, [r2, #166]	; 0xa6
 c006db0:	e5d1c006 	ldrb	ip, [r1, #6]
				toblerone[i][j]=t[i][j];
				cambios[i][j]=t[i][j];
				ncambios++;
 c006db4:	12833001 	addne	r3, r3, #1
			}
		}
	}
	for (i = 0; i < DIM; i++){
		for (j = 0; j < DIM; j++){
			if(toblerone[i][j]!=t[i][j]){
 c006db8:	e154000c 	cmp	r4, ip
 c006dbc:	e59f4538 	ldr	r4, [pc, #1336]	; c0072fc <LCD_tablero+0x7d8>
				toblerone[i][j]=t[i][j];
 c006dc0:	15c4c0a6 	strbne	ip, [r4, #166]	; 0xa6
				cambios[i][j]=t[i][j];
 c006dc4:	15c4c056 	strbne	ip, [r4, #86]	; 0x56
			}
		}
	}
	for (i = 0; i < DIM; i++){
		for (j = 0; j < DIM; j++){
			if(toblerone[i][j]!=t[i][j]){
 c006dc8:	e5d14007 	ldrb	r4, [r1, #7]
 c006dcc:	e5d210a7 	ldrb	r1, [r2, #167]	; 0xa7
 c006dd0:	e59fc524 	ldr	ip, [pc, #1316]	; c0072fc <LCD_tablero+0x7d8>
				toblerone[i][j]=t[i][j];
				cambios[i][j]=t[i][j];
				ncambios++;
 c006dd4:	12833001 	addne	r3, r3, #1
			}
		}
	}
	for (i = 0; i < DIM; i++){
		for (j = 0; j < DIM; j++){
			if(toblerone[i][j]!=t[i][j]){
 c006dd8:	e1510004 	cmp	r1, r4
				toblerone[i][j]=t[i][j];
 c006ddc:	15cc40a7 	strbne	r4, [ip, #167]	; 0xa7
				cambios[i][j]=t[i][j];
 c006de0:	15cc4057 	strbne	r4, [ip, #87]	; 0x57
			}
		}
	}
	for (i = 0; i < DIM; i++){
		for (j = 0; j < DIM; j++){
			if(toblerone[i][j]!=t[i][j]){
 c006de4:	e5d210a8 	ldrb	r1, [r2, #168]	; 0xa8
 c006de8:	e5d0c018 	ldrb	ip, [r0, #24]
 c006dec:	e59f4508 	ldr	r4, [pc, #1288]	; c0072fc <LCD_tablero+0x7d8>
				toblerone[i][j]=t[i][j];
				cambios[i][j]=t[i][j];
				ncambios++;
 c006df0:	12833001 	addne	r3, r3, #1
			}
		}
	}
	for (i = 0; i < DIM; i++){
		for (j = 0; j < DIM; j++){
			if(toblerone[i][j]!=t[i][j]){
 c006df4:	e151000c 	cmp	r1, ip
				toblerone[i][j]=t[i][j];
 c006df8:	15c4c0a8 	strbne	ip, [r4, #168]	; 0xa8
				cambios[i][j]=t[i][j];
 c006dfc:	15c4c058 	strbne	ip, [r4, #88]	; 0x58
			}
		}
	}
	for (i = 0; i < DIM; i++){
		for (j = 0; j < DIM; j++){
			if(toblerone[i][j]!=t[i][j]){
 c006e00:	e2801018 	add	r1, r0, #24
 c006e04:	e5d1c001 	ldrb	ip, [r1, #1]
 c006e08:	e5d240a9 	ldrb	r4, [r2, #169]	; 0xa9
				toblerone[i][j]=t[i][j];
				cambios[i][j]=t[i][j];
				ncambios++;
 c006e0c:	12833001 	addne	r3, r3, #1
			}
		}
	}
	for (i = 0; i < DIM; i++){
		for (j = 0; j < DIM; j++){
			if(toblerone[i][j]!=t[i][j]){
 c006e10:	e154000c 	cmp	r4, ip
 c006e14:	e59f44e0 	ldr	r4, [pc, #1248]	; c0072fc <LCD_tablero+0x7d8>
				toblerone[i][j]=t[i][j];
 c006e18:	15c4c0a9 	strbne	ip, [r4, #169]	; 0xa9
				cambios[i][j]=t[i][j];
 c006e1c:	15c4c059 	strbne	ip, [r4, #89]	; 0x59
			}
		}
	}
	for (i = 0; i < DIM; i++){
		for (j = 0; j < DIM; j++){
			if(toblerone[i][j]!=t[i][j]){
 c006e20:	e5d240aa 	ldrb	r4, [r2, #170]	; 0xaa
 c006e24:	e5d1c002 	ldrb	ip, [r1, #2]
				toblerone[i][j]=t[i][j];
				cambios[i][j]=t[i][j];
				ncambios++;
 c006e28:	12833001 	addne	r3, r3, #1
			}
		}
	}
	for (i = 0; i < DIM; i++){
		for (j = 0; j < DIM; j++){
			if(toblerone[i][j]!=t[i][j]){
 c006e2c:	e154000c 	cmp	r4, ip
 c006e30:	e59f44c4 	ldr	r4, [pc, #1220]	; c0072fc <LCD_tablero+0x7d8>
				toblerone[i][j]=t[i][j];
 c006e34:	15c4c0aa 	strbne	ip, [r4, #170]	; 0xaa
				cambios[i][j]=t[i][j];
 c006e38:	15c4c05a 	strbne	ip, [r4, #90]	; 0x5a
			}
		}
	}
	for (i = 0; i < DIM; i++){
		for (j = 0; j < DIM; j++){
			if(toblerone[i][j]!=t[i][j]){
 c006e3c:	e5d240ab 	ldrb	r4, [r2, #171]	; 0xab
 c006e40:	e5d1c003 	ldrb	ip, [r1, #3]
				toblerone[i][j]=t[i][j];
				cambios[i][j]=t[i][j];
				ncambios++;
 c006e44:	12833001 	addne	r3, r3, #1
			}
		}
	}
	for (i = 0; i < DIM; i++){
		for (j = 0; j < DIM; j++){
			if(toblerone[i][j]!=t[i][j]){
 c006e48:	e154000c 	cmp	r4, ip
 c006e4c:	e59f44a8 	ldr	r4, [pc, #1192]	; c0072fc <LCD_tablero+0x7d8>
				toblerone[i][j]=t[i][j];
 c006e50:	15c4c0ab 	strbne	ip, [r4, #171]	; 0xab
				cambios[i][j]=t[i][j];
 c006e54:	15c4c05b 	strbne	ip, [r4, #91]	; 0x5b
			}
		}
	}
	for (i = 0; i < DIM; i++){
		for (j = 0; j < DIM; j++){
			if(toblerone[i][j]!=t[i][j]){
 c006e58:	e5d240ac 	ldrb	r4, [r2, #172]	; 0xac
 c006e5c:	e5d1c004 	ldrb	ip, [r1, #4]
				toblerone[i][j]=t[i][j];
				cambios[i][j]=t[i][j];
				ncambios++;
 c006e60:	12833001 	addne	r3, r3, #1
			}
		}
	}
	for (i = 0; i < DIM; i++){
		for (j = 0; j < DIM; j++){
			if(toblerone[i][j]!=t[i][j]){
 c006e64:	e154000c 	cmp	r4, ip
 c006e68:	e59f448c 	ldr	r4, [pc, #1164]	; c0072fc <LCD_tablero+0x7d8>
				toblerone[i][j]=t[i][j];
 c006e6c:	15c4c0ac 	strbne	ip, [r4, #172]	; 0xac
				cambios[i][j]=t[i][j];
 c006e70:	15c4c05c 	strbne	ip, [r4, #92]	; 0x5c
			}
		}
	}
	for (i = 0; i < DIM; i++){
		for (j = 0; j < DIM; j++){
			if(toblerone[i][j]!=t[i][j]){
 c006e74:	e5d240ad 	ldrb	r4, [r2, #173]	; 0xad
 c006e78:	e5d1c005 	ldrb	ip, [r1, #5]
				toblerone[i][j]=t[i][j];
				cambios[i][j]=t[i][j];
				ncambios++;
 c006e7c:	12833001 	addne	r3, r3, #1
			}
		}
	}
	for (i = 0; i < DIM; i++){
		for (j = 0; j < DIM; j++){
			if(toblerone[i][j]!=t[i][j]){
 c006e80:	e154000c 	cmp	r4, ip
 c006e84:	e59f4470 	ldr	r4, [pc, #1136]	; c0072fc <LCD_tablero+0x7d8>
				toblerone[i][j]=t[i][j];
 c006e88:	15c4c0ad 	strbne	ip, [r4, #173]	; 0xad
				cambios[i][j]=t[i][j];
 c006e8c:	15c4c05d 	strbne	ip, [r4, #93]	; 0x5d
			}
		}
	}
	for (i = 0; i < DIM; i++){
		for (j = 0; j < DIM; j++){
			if(toblerone[i][j]!=t[i][j]){
 c006e90:	e5d240ae 	ldrb	r4, [r2, #174]	; 0xae
 c006e94:	e5d1c006 	ldrb	ip, [r1, #6]
				toblerone[i][j]=t[i][j];
				cambios[i][j]=t[i][j];
				ncambios++;
 c006e98:	12833001 	addne	r3, r3, #1
			}
		}
	}
	for (i = 0; i < DIM; i++){
		for (j = 0; j < DIM; j++){
			if(toblerone[i][j]!=t[i][j]){
 c006e9c:	e154000c 	cmp	r4, ip
 c006ea0:	e59f4454 	ldr	r4, [pc, #1108]	; c0072fc <LCD_tablero+0x7d8>
				toblerone[i][j]=t[i][j];
 c006ea4:	15c4c0ae 	strbne	ip, [r4, #174]	; 0xae
				cambios[i][j]=t[i][j];
 c006ea8:	15c4c05e 	strbne	ip, [r4, #94]	; 0x5e
			}
		}
	}
	for (i = 0; i < DIM; i++){
		for (j = 0; j < DIM; j++){
			if(toblerone[i][j]!=t[i][j]){
 c006eac:	e5d14007 	ldrb	r4, [r1, #7]
 c006eb0:	e5d210af 	ldrb	r1, [r2, #175]	; 0xaf
 c006eb4:	e59fc440 	ldr	ip, [pc, #1088]	; c0072fc <LCD_tablero+0x7d8>
				toblerone[i][j]=t[i][j];
				cambios[i][j]=t[i][j];
				ncambios++;
 c006eb8:	12833001 	addne	r3, r3, #1
			}
		}
	}
	for (i = 0; i < DIM; i++){
		for (j = 0; j < DIM; j++){
			if(toblerone[i][j]!=t[i][j]){
 c006ebc:	e1510004 	cmp	r1, r4
				toblerone[i][j]=t[i][j];
 c006ec0:	15cc40af 	strbne	r4, [ip, #175]	; 0xaf
				cambios[i][j]=t[i][j];
 c006ec4:	15cc405f 	strbne	r4, [ip, #95]	; 0x5f
			}
		}
	}
	for (i = 0; i < DIM; i++){
		for (j = 0; j < DIM; j++){
			if(toblerone[i][j]!=t[i][j]){
 c006ec8:	e5d210b0 	ldrb	r1, [r2, #176]	; 0xb0
 c006ecc:	e5d0c020 	ldrb	ip, [r0, #32]
 c006ed0:	e59f4424 	ldr	r4, [pc, #1060]	; c0072fc <LCD_tablero+0x7d8>
				toblerone[i][j]=t[i][j];
				cambios[i][j]=t[i][j];
				ncambios++;
 c006ed4:	12833001 	addne	r3, r3, #1
			}
		}
	}
	for (i = 0; i < DIM; i++){
		for (j = 0; j < DIM; j++){
			if(toblerone[i][j]!=t[i][j]){
 c006ed8:	e151000c 	cmp	r1, ip
				toblerone[i][j]=t[i][j];
 c006edc:	15c4c0b0 	strbne	ip, [r4, #176]	; 0xb0
				cambios[i][j]=t[i][j];
 c006ee0:	15c4c060 	strbne	ip, [r4, #96]	; 0x60
			}
		}
	}
	for (i = 0; i < DIM; i++){
		for (j = 0; j < DIM; j++){
			if(toblerone[i][j]!=t[i][j]){
 c006ee4:	e2801020 	add	r1, r0, #32
 c006ee8:	e5d1c001 	ldrb	ip, [r1, #1]
 c006eec:	e5d240b1 	ldrb	r4, [r2, #177]	; 0xb1
				toblerone[i][j]=t[i][j];
				cambios[i][j]=t[i][j];
				ncambios++;
 c006ef0:	12833001 	addne	r3, r3, #1
			}
		}
	}
	for (i = 0; i < DIM; i++){
		for (j = 0; j < DIM; j++){
			if(toblerone[i][j]!=t[i][j]){
 c006ef4:	e154000c 	cmp	r4, ip
 c006ef8:	e59f43fc 	ldr	r4, [pc, #1020]	; c0072fc <LCD_tablero+0x7d8>
				toblerone[i][j]=t[i][j];
 c006efc:	15c4c0b1 	strbne	ip, [r4, #177]	; 0xb1
				cambios[i][j]=t[i][j];
 c006f00:	15c4c061 	strbne	ip, [r4, #97]	; 0x61
			}
		}
	}
	for (i = 0; i < DIM; i++){
		for (j = 0; j < DIM; j++){
			if(toblerone[i][j]!=t[i][j]){
 c006f04:	e5d240b2 	ldrb	r4, [r2, #178]	; 0xb2
 c006f08:	e5d1c002 	ldrb	ip, [r1, #2]
				toblerone[i][j]=t[i][j];
				cambios[i][j]=t[i][j];
				ncambios++;
 c006f0c:	12833001 	addne	r3, r3, #1
			}
		}
	}
	for (i = 0; i < DIM; i++){
		for (j = 0; j < DIM; j++){
			if(toblerone[i][j]!=t[i][j]){
 c006f10:	e154000c 	cmp	r4, ip
 c006f14:	e59f43e0 	ldr	r4, [pc, #992]	; c0072fc <LCD_tablero+0x7d8>
				toblerone[i][j]=t[i][j];
 c006f18:	15c4c0b2 	strbne	ip, [r4, #178]	; 0xb2
				cambios[i][j]=t[i][j];
 c006f1c:	15c4c062 	strbne	ip, [r4, #98]	; 0x62
			}
		}
	}
	for (i = 0; i < DIM; i++){
		for (j = 0; j < DIM; j++){
			if(toblerone[i][j]!=t[i][j]){
 c006f20:	e5d240b3 	ldrb	r4, [r2, #179]	; 0xb3
 c006f24:	e5d1c003 	ldrb	ip, [r1, #3]
				toblerone[i][j]=t[i][j];
				cambios[i][j]=t[i][j];
				ncambios++;
 c006f28:	12833001 	addne	r3, r3, #1
			}
		}
	}
	for (i = 0; i < DIM; i++){
		for (j = 0; j < DIM; j++){
			if(toblerone[i][j]!=t[i][j]){
 c006f2c:	e154000c 	cmp	r4, ip
 c006f30:	e59f43c4 	ldr	r4, [pc, #964]	; c0072fc <LCD_tablero+0x7d8>
				toblerone[i][j]=t[i][j];
 c006f34:	15c4c0b3 	strbne	ip, [r4, #179]	; 0xb3
				cambios[i][j]=t[i][j];
 c006f38:	15c4c063 	strbne	ip, [r4, #99]	; 0x63
			}
		}
	}
	for (i = 0; i < DIM; i++){
		for (j = 0; j < DIM; j++){
			if(toblerone[i][j]!=t[i][j]){
 c006f3c:	e5d240b4 	ldrb	r4, [r2, #180]	; 0xb4
 c006f40:	e5d1c004 	ldrb	ip, [r1, #4]
				toblerone[i][j]=t[i][j];
				cambios[i][j]=t[i][j];
				ncambios++;
 c006f44:	12833001 	addne	r3, r3, #1
			}
		}
	}
	for (i = 0; i < DIM; i++){
		for (j = 0; j < DIM; j++){
			if(toblerone[i][j]!=t[i][j]){
 c006f48:	e154000c 	cmp	r4, ip
 c006f4c:	e59f43a8 	ldr	r4, [pc, #936]	; c0072fc <LCD_tablero+0x7d8>
				toblerone[i][j]=t[i][j];
 c006f50:	15c4c0b4 	strbne	ip, [r4, #180]	; 0xb4
				cambios[i][j]=t[i][j];
 c006f54:	15c4c064 	strbne	ip, [r4, #100]	; 0x64
			}
		}
	}
	for (i = 0; i < DIM; i++){
		for (j = 0; j < DIM; j++){
			if(toblerone[i][j]!=t[i][j]){
 c006f58:	e5d240b5 	ldrb	r4, [r2, #181]	; 0xb5
 c006f5c:	e5d1c005 	ldrb	ip, [r1, #5]
				toblerone[i][j]=t[i][j];
				cambios[i][j]=t[i][j];
				ncambios++;
 c006f60:	12833001 	addne	r3, r3, #1
			}
		}
	}
	for (i = 0; i < DIM; i++){
		for (j = 0; j < DIM; j++){
			if(toblerone[i][j]!=t[i][j]){
 c006f64:	e154000c 	cmp	r4, ip
 c006f68:	e59f438c 	ldr	r4, [pc, #908]	; c0072fc <LCD_tablero+0x7d8>
				toblerone[i][j]=t[i][j];
 c006f6c:	15c4c0b5 	strbne	ip, [r4, #181]	; 0xb5
				cambios[i][j]=t[i][j];
 c006f70:	15c4c065 	strbne	ip, [r4, #101]	; 0x65
			}
		}
	}
	for (i = 0; i < DIM; i++){
		for (j = 0; j < DIM; j++){
			if(toblerone[i][j]!=t[i][j]){
 c006f74:	e5d240b6 	ldrb	r4, [r2, #182]	; 0xb6
 c006f78:	e5d1c006 	ldrb	ip, [r1, #6]
				toblerone[i][j]=t[i][j];
				cambios[i][j]=t[i][j];
				ncambios++;
 c006f7c:	12833001 	addne	r3, r3, #1
			}
		}
	}
	for (i = 0; i < DIM; i++){
		for (j = 0; j < DIM; j++){
			if(toblerone[i][j]!=t[i][j]){
 c006f80:	e154000c 	cmp	r4, ip
 c006f84:	e59f4370 	ldr	r4, [pc, #880]	; c0072fc <LCD_tablero+0x7d8>
				toblerone[i][j]=t[i][j];
 c006f88:	15c4c0b6 	strbne	ip, [r4, #182]	; 0xb6
				cambios[i][j]=t[i][j];
 c006f8c:	15c4c066 	strbne	ip, [r4, #102]	; 0x66
			}
		}
	}
	for (i = 0; i < DIM; i++){
		for (j = 0; j < DIM; j++){
			if(toblerone[i][j]!=t[i][j]){
 c006f90:	e5d14007 	ldrb	r4, [r1, #7]
 c006f94:	e5d210b7 	ldrb	r1, [r2, #183]	; 0xb7
 c006f98:	e59fc35c 	ldr	ip, [pc, #860]	; c0072fc <LCD_tablero+0x7d8>
				toblerone[i][j]=t[i][j];
				cambios[i][j]=t[i][j];
				ncambios++;
 c006f9c:	12833001 	addne	r3, r3, #1
			}
		}
	}
	for (i = 0; i < DIM; i++){
		for (j = 0; j < DIM; j++){
			if(toblerone[i][j]!=t[i][j]){
 c006fa0:	e1510004 	cmp	r1, r4
				toblerone[i][j]=t[i][j];
 c006fa4:	15cc40b7 	strbne	r4, [ip, #183]	; 0xb7
				cambios[i][j]=t[i][j];
 c006fa8:	15cc4067 	strbne	r4, [ip, #103]	; 0x67
			}
		}
	}
	for (i = 0; i < DIM; i++){
		for (j = 0; j < DIM; j++){
			if(toblerone[i][j]!=t[i][j]){
 c006fac:	e5d210b8 	ldrb	r1, [r2, #184]	; 0xb8
 c006fb0:	e5d0c028 	ldrb	ip, [r0, #40]	; 0x28
 c006fb4:	e59f4340 	ldr	r4, [pc, #832]	; c0072fc <LCD_tablero+0x7d8>
				toblerone[i][j]=t[i][j];
				cambios[i][j]=t[i][j];
				ncambios++;
 c006fb8:	12833001 	addne	r3, r3, #1
			}
		}
	}
	for (i = 0; i < DIM; i++){
		for (j = 0; j < DIM; j++){
			if(toblerone[i][j]!=t[i][j]){
 c006fbc:	e151000c 	cmp	r1, ip
				toblerone[i][j]=t[i][j];
 c006fc0:	15c4c0b8 	strbne	ip, [r4, #184]	; 0xb8
				cambios[i][j]=t[i][j];
 c006fc4:	15c4c068 	strbne	ip, [r4, #104]	; 0x68
			}
		}
	}
	for (i = 0; i < DIM; i++){
		for (j = 0; j < DIM; j++){
			if(toblerone[i][j]!=t[i][j]){
 c006fc8:	e2801028 	add	r1, r0, #40	; 0x28
 c006fcc:	e5d1c001 	ldrb	ip, [r1, #1]
 c006fd0:	e5d240b9 	ldrb	r4, [r2, #185]	; 0xb9
				toblerone[i][j]=t[i][j];
				cambios[i][j]=t[i][j];
				ncambios++;
 c006fd4:	12833001 	addne	r3, r3, #1
			}
		}
	}
	for (i = 0; i < DIM; i++){
		for (j = 0; j < DIM; j++){
			if(toblerone[i][j]!=t[i][j]){
 c006fd8:	e154000c 	cmp	r4, ip
 c006fdc:	e59f4318 	ldr	r4, [pc, #792]	; c0072fc <LCD_tablero+0x7d8>
				toblerone[i][j]=t[i][j];
 c006fe0:	15c4c0b9 	strbne	ip, [r4, #185]	; 0xb9
				cambios[i][j]=t[i][j];
 c006fe4:	15c4c069 	strbne	ip, [r4, #105]	; 0x69
			}
		}
	}
	for (i = 0; i < DIM; i++){
		for (j = 0; j < DIM; j++){
			if(toblerone[i][j]!=t[i][j]){
 c006fe8:	e5d240ba 	ldrb	r4, [r2, #186]	; 0xba
 c006fec:	e5d1c002 	ldrb	ip, [r1, #2]
				toblerone[i][j]=t[i][j];
				cambios[i][j]=t[i][j];
				ncambios++;
 c006ff0:	12833001 	addne	r3, r3, #1
			}
		}
	}
	for (i = 0; i < DIM; i++){
		for (j = 0; j < DIM; j++){
			if(toblerone[i][j]!=t[i][j]){
 c006ff4:	e154000c 	cmp	r4, ip
 c006ff8:	e59f42fc 	ldr	r4, [pc, #764]	; c0072fc <LCD_tablero+0x7d8>
				toblerone[i][j]=t[i][j];
 c006ffc:	15c4c0ba 	strbne	ip, [r4, #186]	; 0xba
				cambios[i][j]=t[i][j];
 c007000:	15c4c06a 	strbne	ip, [r4, #106]	; 0x6a
			}
		}
	}
	for (i = 0; i < DIM; i++){
		for (j = 0; j < DIM; j++){
			if(toblerone[i][j]!=t[i][j]){
 c007004:	e5d240bb 	ldrb	r4, [r2, #187]	; 0xbb
 c007008:	e5d1c003 	ldrb	ip, [r1, #3]
				toblerone[i][j]=t[i][j];
				cambios[i][j]=t[i][j];
				ncambios++;
 c00700c:	12833001 	addne	r3, r3, #1
			}
		}
	}
	for (i = 0; i < DIM; i++){
		for (j = 0; j < DIM; j++){
			if(toblerone[i][j]!=t[i][j]){
 c007010:	e154000c 	cmp	r4, ip
 c007014:	e59f42e0 	ldr	r4, [pc, #736]	; c0072fc <LCD_tablero+0x7d8>
				toblerone[i][j]=t[i][j];
 c007018:	15c4c0bb 	strbne	ip, [r4, #187]	; 0xbb
				cambios[i][j]=t[i][j];
 c00701c:	15c4c06b 	strbne	ip, [r4, #107]	; 0x6b
			}
		}
	}
	for (i = 0; i < DIM; i++){
		for (j = 0; j < DIM; j++){
			if(toblerone[i][j]!=t[i][j]){
 c007020:	e5d240bc 	ldrb	r4, [r2, #188]	; 0xbc
 c007024:	e5d1c004 	ldrb	ip, [r1, #4]
				toblerone[i][j]=t[i][j];
				cambios[i][j]=t[i][j];
				ncambios++;
 c007028:	12833001 	addne	r3, r3, #1
			}
		}
	}
	for (i = 0; i < DIM; i++){
		for (j = 0; j < DIM; j++){
			if(toblerone[i][j]!=t[i][j]){
 c00702c:	e154000c 	cmp	r4, ip
 c007030:	e59f42c4 	ldr	r4, [pc, #708]	; c0072fc <LCD_tablero+0x7d8>
				toblerone[i][j]=t[i][j];
 c007034:	15c4c0bc 	strbne	ip, [r4, #188]	; 0xbc
				cambios[i][j]=t[i][j];
 c007038:	15c4c06c 	strbne	ip, [r4, #108]	; 0x6c
			}
		}
	}
	for (i = 0; i < DIM; i++){
		for (j = 0; j < DIM; j++){
			if(toblerone[i][j]!=t[i][j]){
 c00703c:	e5d240bd 	ldrb	r4, [r2, #189]	; 0xbd
 c007040:	e5d1c005 	ldrb	ip, [r1, #5]
				toblerone[i][j]=t[i][j];
				cambios[i][j]=t[i][j];
				ncambios++;
 c007044:	12833001 	addne	r3, r3, #1
			}
		}
	}
	for (i = 0; i < DIM; i++){
		for (j = 0; j < DIM; j++){
			if(toblerone[i][j]!=t[i][j]){
 c007048:	e154000c 	cmp	r4, ip
 c00704c:	e59f42a8 	ldr	r4, [pc, #680]	; c0072fc <LCD_tablero+0x7d8>
				toblerone[i][j]=t[i][j];
 c007050:	15c4c0bd 	strbne	ip, [r4, #189]	; 0xbd
				cambios[i][j]=t[i][j];
 c007054:	15c4c06d 	strbne	ip, [r4, #109]	; 0x6d
			}
		}
	}
	for (i = 0; i < DIM; i++){
		for (j = 0; j < DIM; j++){
			if(toblerone[i][j]!=t[i][j]){
 c007058:	e5d240be 	ldrb	r4, [r2, #190]	; 0xbe
 c00705c:	e5d1c006 	ldrb	ip, [r1, #6]
				toblerone[i][j]=t[i][j];
				cambios[i][j]=t[i][j];
				ncambios++;
 c007060:	12833001 	addne	r3, r3, #1
			}
		}
	}
	for (i = 0; i < DIM; i++){
		for (j = 0; j < DIM; j++){
			if(toblerone[i][j]!=t[i][j]){
 c007064:	e154000c 	cmp	r4, ip
 c007068:	e59f428c 	ldr	r4, [pc, #652]	; c0072fc <LCD_tablero+0x7d8>
				toblerone[i][j]=t[i][j];
 c00706c:	15c4c0be 	strbne	ip, [r4, #190]	; 0xbe
				cambios[i][j]=t[i][j];
 c007070:	15c4c06e 	strbne	ip, [r4, #110]	; 0x6e
			}
		}
	}
	for (i = 0; i < DIM; i++){
		for (j = 0; j < DIM; j++){
			if(toblerone[i][j]!=t[i][j]){
 c007074:	e5d14007 	ldrb	r4, [r1, #7]
 c007078:	e5d210bf 	ldrb	r1, [r2, #191]	; 0xbf
 c00707c:	e59fc278 	ldr	ip, [pc, #632]	; c0072fc <LCD_tablero+0x7d8>
				toblerone[i][j]=t[i][j];
				cambios[i][j]=t[i][j];
				ncambios++;
 c007080:	12833001 	addne	r3, r3, #1
			}
		}
	}
	for (i = 0; i < DIM; i++){
		for (j = 0; j < DIM; j++){
			if(toblerone[i][j]!=t[i][j]){
 c007084:	e1510004 	cmp	r1, r4
				toblerone[i][j]=t[i][j];
 c007088:	15cc40bf 	strbne	r4, [ip, #191]	; 0xbf
				cambios[i][j]=t[i][j];
 c00708c:	15cc406f 	strbne	r4, [ip, #111]	; 0x6f
			}
		}
	}
	for (i = 0; i < DIM; i++){
		for (j = 0; j < DIM; j++){
			if(toblerone[i][j]!=t[i][j]){
 c007090:	e5d210c0 	ldrb	r1, [r2, #192]	; 0xc0
 c007094:	e5d0c030 	ldrb	ip, [r0, #48]	; 0x30
 c007098:	e59f425c 	ldr	r4, [pc, #604]	; c0072fc <LCD_tablero+0x7d8>
				toblerone[i][j]=t[i][j];
				cambios[i][j]=t[i][j];
				ncambios++;
 c00709c:	12833001 	addne	r3, r3, #1
			}
		}
	}
	for (i = 0; i < DIM; i++){
		for (j = 0; j < DIM; j++){
			if(toblerone[i][j]!=t[i][j]){
 c0070a0:	e151000c 	cmp	r1, ip
				toblerone[i][j]=t[i][j];
 c0070a4:	15c4c0c0 	strbne	ip, [r4, #192]	; 0xc0
				cambios[i][j]=t[i][j];
 c0070a8:	15c4c070 	strbne	ip, [r4, #112]	; 0x70
			}
		}
	}
	for (i = 0; i < DIM; i++){
		for (j = 0; j < DIM; j++){
			if(toblerone[i][j]!=t[i][j]){
 c0070ac:	e2801030 	add	r1, r0, #48	; 0x30
 c0070b0:	e5d1c001 	ldrb	ip, [r1, #1]
 c0070b4:	e5d240c1 	ldrb	r4, [r2, #193]	; 0xc1
				toblerone[i][j]=t[i][j];
				cambios[i][j]=t[i][j];
				ncambios++;
 c0070b8:	12833001 	addne	r3, r3, #1
			}
		}
	}
	for (i = 0; i < DIM; i++){
		for (j = 0; j < DIM; j++){
			if(toblerone[i][j]!=t[i][j]){
 c0070bc:	e154000c 	cmp	r4, ip
 c0070c0:	e59f4234 	ldr	r4, [pc, #564]	; c0072fc <LCD_tablero+0x7d8>
				toblerone[i][j]=t[i][j];
 c0070c4:	15c4c0c1 	strbne	ip, [r4, #193]	; 0xc1
				cambios[i][j]=t[i][j];
 c0070c8:	15c4c071 	strbne	ip, [r4, #113]	; 0x71
			}
		}
	}
	for (i = 0; i < DIM; i++){
		for (j = 0; j < DIM; j++){
			if(toblerone[i][j]!=t[i][j]){
 c0070cc:	e5d240c2 	ldrb	r4, [r2, #194]	; 0xc2
 c0070d0:	e5d1c002 	ldrb	ip, [r1, #2]
				toblerone[i][j]=t[i][j];
				cambios[i][j]=t[i][j];
				ncambios++;
 c0070d4:	12833001 	addne	r3, r3, #1
			}
		}
	}
	for (i = 0; i < DIM; i++){
		for (j = 0; j < DIM; j++){
			if(toblerone[i][j]!=t[i][j]){
 c0070d8:	e154000c 	cmp	r4, ip
 c0070dc:	e59f4218 	ldr	r4, [pc, #536]	; c0072fc <LCD_tablero+0x7d8>
				toblerone[i][j]=t[i][j];
 c0070e0:	15c4c0c2 	strbne	ip, [r4, #194]	; 0xc2
				cambios[i][j]=t[i][j];
 c0070e4:	15c4c072 	strbne	ip, [r4, #114]	; 0x72
			}
		}
	}
	for (i = 0; i < DIM; i++){
		for (j = 0; j < DIM; j++){
			if(toblerone[i][j]!=t[i][j]){
 c0070e8:	e5d240c3 	ldrb	r4, [r2, #195]	; 0xc3
 c0070ec:	e5d1c003 	ldrb	ip, [r1, #3]
				toblerone[i][j]=t[i][j];
				cambios[i][j]=t[i][j];
				ncambios++;
 c0070f0:	12833001 	addne	r3, r3, #1
			}
		}
	}
	for (i = 0; i < DIM; i++){
		for (j = 0; j < DIM; j++){
			if(toblerone[i][j]!=t[i][j]){
 c0070f4:	e154000c 	cmp	r4, ip
 c0070f8:	e59f41fc 	ldr	r4, [pc, #508]	; c0072fc <LCD_tablero+0x7d8>
				toblerone[i][j]=t[i][j];
 c0070fc:	15c4c0c3 	strbne	ip, [r4, #195]	; 0xc3
				cambios[i][j]=t[i][j];
 c007100:	15c4c073 	strbne	ip, [r4, #115]	; 0x73
			}
		}
	}
	for (i = 0; i < DIM; i++){
		for (j = 0; j < DIM; j++){
			if(toblerone[i][j]!=t[i][j]){
 c007104:	e5d240c4 	ldrb	r4, [r2, #196]	; 0xc4
 c007108:	e5d1c004 	ldrb	ip, [r1, #4]
				toblerone[i][j]=t[i][j];
				cambios[i][j]=t[i][j];
				ncambios++;
 c00710c:	12833001 	addne	r3, r3, #1
			}
		}
	}
	for (i = 0; i < DIM; i++){
		for (j = 0; j < DIM; j++){
			if(toblerone[i][j]!=t[i][j]){
 c007110:	e154000c 	cmp	r4, ip
 c007114:	e59f41e0 	ldr	r4, [pc, #480]	; c0072fc <LCD_tablero+0x7d8>
				toblerone[i][j]=t[i][j];
 c007118:	15c4c0c4 	strbne	ip, [r4, #196]	; 0xc4
				cambios[i][j]=t[i][j];
 c00711c:	15c4c074 	strbne	ip, [r4, #116]	; 0x74
			}
		}
	}
	for (i = 0; i < DIM; i++){
		for (j = 0; j < DIM; j++){
			if(toblerone[i][j]!=t[i][j]){
 c007120:	e5d240c5 	ldrb	r4, [r2, #197]	; 0xc5
 c007124:	e5d1c005 	ldrb	ip, [r1, #5]
				toblerone[i][j]=t[i][j];
				cambios[i][j]=t[i][j];
				ncambios++;
 c007128:	12833001 	addne	r3, r3, #1
			}
		}
	}
	for (i = 0; i < DIM; i++){
		for (j = 0; j < DIM; j++){
			if(toblerone[i][j]!=t[i][j]){
 c00712c:	e154000c 	cmp	r4, ip
 c007130:	e59f41c4 	ldr	r4, [pc, #452]	; c0072fc <LCD_tablero+0x7d8>
				toblerone[i][j]=t[i][j];
 c007134:	15c4c0c5 	strbne	ip, [r4, #197]	; 0xc5
				cambios[i][j]=t[i][j];
 c007138:	15c4c075 	strbne	ip, [r4, #117]	; 0x75
			}
		}
	}
	for (i = 0; i < DIM; i++){
		for (j = 0; j < DIM; j++){
			if(toblerone[i][j]!=t[i][j]){
 c00713c:	e5d240c6 	ldrb	r4, [r2, #198]	; 0xc6
 c007140:	e5d1c006 	ldrb	ip, [r1, #6]
				toblerone[i][j]=t[i][j];
				cambios[i][j]=t[i][j];
				ncambios++;
 c007144:	12833001 	addne	r3, r3, #1
			}
		}
	}
	for (i = 0; i < DIM; i++){
		for (j = 0; j < DIM; j++){
			if(toblerone[i][j]!=t[i][j]){
 c007148:	e154000c 	cmp	r4, ip
 c00714c:	e59f41a8 	ldr	r4, [pc, #424]	; c0072fc <LCD_tablero+0x7d8>
				toblerone[i][j]=t[i][j];
 c007150:	15c4c0c6 	strbne	ip, [r4, #198]	; 0xc6
				cambios[i][j]=t[i][j];
 c007154:	15c4c076 	strbne	ip, [r4, #118]	; 0x76
			}
		}
	}
	for (i = 0; i < DIM; i++){
		for (j = 0; j < DIM; j++){
			if(toblerone[i][j]!=t[i][j]){
 c007158:	e5d2c0c7 	ldrb	ip, [r2, #199]	; 0xc7
 c00715c:	e5d11007 	ldrb	r1, [r1, #7]
				toblerone[i][j]=t[i][j];
				cambios[i][j]=t[i][j];
				ncambios++;
 c007160:	12833001 	addne	r3, r3, #1
			}
		}
	}
	for (i = 0; i < DIM; i++){
		for (j = 0; j < DIM; j++){
			if(toblerone[i][j]!=t[i][j]){
 c007164:	e15c0001 	cmp	ip, r1
 c007168:	e59fc18c 	ldr	ip, [pc, #396]	; c0072fc <LCD_tablero+0x7d8>
				toblerone[i][j]=t[i][j];
 c00716c:	15cc10c7 	strbne	r1, [ip, #199]	; 0xc7
				cambios[i][j]=t[i][j];
 c007170:	15cc1077 	strbne	r1, [ip, #119]	; 0x77
			}
		}
	}
	for (i = 0; i < DIM; i++){
		for (j = 0; j < DIM; j++){
			if(toblerone[i][j]!=t[i][j]){
 c007174:	e5d2c0c8 	ldrb	ip, [r2, #200]	; 0xc8
 c007178:	e5d01038 	ldrb	r1, [r0, #56]	; 0x38
				toblerone[i][j]=t[i][j];
				cambios[i][j]=t[i][j];
				ncambios++;
 c00717c:	12833001 	addne	r3, r3, #1
			}
		}
	}
	for (i = 0; i < DIM; i++){
		for (j = 0; j < DIM; j++){
			if(toblerone[i][j]!=t[i][j]){
 c007180:	e15c0001 	cmp	ip, r1
 c007184:	e59fc170 	ldr	ip, [pc, #368]	; c0072fc <LCD_tablero+0x7d8>
				toblerone[i][j]=t[i][j];
 c007188:	15cc10c8 	strbne	r1, [ip, #200]	; 0xc8
				cambios[i][j]=t[i][j];
 c00718c:	15cc1078 	strbne	r1, [ip, #120]	; 0x78
			}
		}
	}
	for (i = 0; i < DIM; i++){
		for (j = 0; j < DIM; j++){
			if(toblerone[i][j]!=t[i][j]){
 c007190:	e2800038 	add	r0, r0, #56	; 0x38
 c007194:	e5d01001 	ldrb	r1, [r0, #1]
 c007198:	e5d2c0c9 	ldrb	ip, [r2, #201]	; 0xc9
				toblerone[i][j]=t[i][j];
				cambios[i][j]=t[i][j];
				ncambios++;
 c00719c:	12833001 	addne	r3, r3, #1
			}
		}
	}
	for (i = 0; i < DIM; i++){
		for (j = 0; j < DIM; j++){
			if(toblerone[i][j]!=t[i][j]){
 c0071a0:	e15c0001 	cmp	ip, r1
 c0071a4:	e59fc150 	ldr	ip, [pc, #336]	; c0072fc <LCD_tablero+0x7d8>
				toblerone[i][j]=t[i][j];
 c0071a8:	15cc10c9 	strbne	r1, [ip, #201]	; 0xc9
				cambios[i][j]=t[i][j];
 c0071ac:	15cc1079 	strbne	r1, [ip, #121]	; 0x79
			}
		}
	}
	for (i = 0; i < DIM; i++){
		for (j = 0; j < DIM; j++){
			if(toblerone[i][j]!=t[i][j]){
 c0071b0:	e5d2c0ca 	ldrb	ip, [r2, #202]	; 0xca
 c0071b4:	e5d01002 	ldrb	r1, [r0, #2]
				toblerone[i][j]=t[i][j];
				cambios[i][j]=t[i][j];
				ncambios++;
 c0071b8:	12833001 	addne	r3, r3, #1
			}
		}
	}
	for (i = 0; i < DIM; i++){
		for (j = 0; j < DIM; j++){
			if(toblerone[i][j]!=t[i][j]){
 c0071bc:	e15c0001 	cmp	ip, r1
 c0071c0:	e59fc134 	ldr	ip, [pc, #308]	; c0072fc <LCD_tablero+0x7d8>
				toblerone[i][j]=t[i][j];
 c0071c4:	15cc10ca 	strbne	r1, [ip, #202]	; 0xca
				cambios[i][j]=t[i][j];
 c0071c8:	15cc107a 	strbne	r1, [ip, #122]	; 0x7a
			}
		}
	}
	for (i = 0; i < DIM; i++){
		for (j = 0; j < DIM; j++){
			if(toblerone[i][j]!=t[i][j]){
 c0071cc:	e5d2c0cb 	ldrb	ip, [r2, #203]	; 0xcb
 c0071d0:	e5d01003 	ldrb	r1, [r0, #3]
				toblerone[i][j]=t[i][j];
				cambios[i][j]=t[i][j];
				ncambios++;
 c0071d4:	12833001 	addne	r3, r3, #1
			}
		}
	}
	for (i = 0; i < DIM; i++){
		for (j = 0; j < DIM; j++){
			if(toblerone[i][j]!=t[i][j]){
 c0071d8:	e15c0001 	cmp	ip, r1
 c0071dc:	e59fc118 	ldr	ip, [pc, #280]	; c0072fc <LCD_tablero+0x7d8>
				toblerone[i][j]=t[i][j];
 c0071e0:	15cc10cb 	strbne	r1, [ip, #203]	; 0xcb
				cambios[i][j]=t[i][j];
 c0071e4:	15cc107b 	strbne	r1, [ip, #123]	; 0x7b
			}
		}
	}
	for (i = 0; i < DIM; i++){
		for (j = 0; j < DIM; j++){
			if(toblerone[i][j]!=t[i][j]){
 c0071e8:	e5d2c0cc 	ldrb	ip, [r2, #204]	; 0xcc
 c0071ec:	e5d01004 	ldrb	r1, [r0, #4]
				toblerone[i][j]=t[i][j];
				cambios[i][j]=t[i][j];
				ncambios++;
 c0071f0:	12833001 	addne	r3, r3, #1
			}
		}
	}
	for (i = 0; i < DIM; i++){
		for (j = 0; j < DIM; j++){
			if(toblerone[i][j]!=t[i][j]){
 c0071f4:	e15c0001 	cmp	ip, r1
 c0071f8:	e59fc0fc 	ldr	ip, [pc, #252]	; c0072fc <LCD_tablero+0x7d8>
				toblerone[i][j]=t[i][j];
 c0071fc:	15cc10cc 	strbne	r1, [ip, #204]	; 0xcc
				cambios[i][j]=t[i][j];
 c007200:	15cc107c 	strbne	r1, [ip, #124]	; 0x7c
			}
		}
	}
	for (i = 0; i < DIM; i++){
		for (j = 0; j < DIM; j++){
			if(toblerone[i][j]!=t[i][j]){
 c007204:	e5d2c0cd 	ldrb	ip, [r2, #205]	; 0xcd
 c007208:	e5d01005 	ldrb	r1, [r0, #5]
				toblerone[i][j]=t[i][j];
				cambios[i][j]=t[i][j];
				ncambios++;
 c00720c:	12833001 	addne	r3, r3, #1
			}
		}
	}
	for (i = 0; i < DIM; i++){
		for (j = 0; j < DIM; j++){
			if(toblerone[i][j]!=t[i][j]){
 c007210:	e15c0001 	cmp	ip, r1
 c007214:	e59fc0e0 	ldr	ip, [pc, #224]	; c0072fc <LCD_tablero+0x7d8>
				toblerone[i][j]=t[i][j];
 c007218:	15cc10cd 	strbne	r1, [ip, #205]	; 0xcd
				cambios[i][j]=t[i][j];
 c00721c:	15cc107d 	strbne	r1, [ip, #125]	; 0x7d
			}
		}
	}
	for (i = 0; i < DIM; i++){
		for (j = 0; j < DIM; j++){
			if(toblerone[i][j]!=t[i][j]){
 c007220:	e5d2c0ce 	ldrb	ip, [r2, #206]	; 0xce
 c007224:	e5d01006 	ldrb	r1, [r0, #6]
				toblerone[i][j]=t[i][j];
				cambios[i][j]=t[i][j];
				ncambios++;
 c007228:	12833001 	addne	r3, r3, #1
			}
		}
	}
	for (i = 0; i < DIM; i++){
		for (j = 0; j < DIM; j++){
			if(toblerone[i][j]!=t[i][j]){
 c00722c:	e15c0001 	cmp	ip, r1
 c007230:	e59fc0c4 	ldr	ip, [pc, #196]	; c0072fc <LCD_tablero+0x7d8>
				toblerone[i][j]=t[i][j];
 c007234:	15cc10ce 	strbne	r1, [ip, #206]	; 0xce
				cambios[i][j]=t[i][j];
 c007238:	15cc107e 	strbne	r1, [ip, #126]	; 0x7e
			}
		}
	}
	for (i = 0; i < DIM; i++){
		for (j = 0; j < DIM; j++){
			if(toblerone[i][j]!=t[i][j]){
 c00723c:	e5d210cf 	ldrb	r1, [r2, #207]	; 0xcf
 c007240:	e5d0c007 	ldrb	ip, [r0, #7]
				toblerone[i][j]=t[i][j];
				cambios[i][j]=t[i][j];
				ncambios++;
 c007244:	12833001 	addne	r3, r3, #1
			}
		}
	}
	for (i = 0; i < DIM; i++){
		for (j = 0; j < DIM; j++){
			if(toblerone[i][j]!=t[i][j]){
 c007248:	e59f00ac 	ldr	r0, [pc, #172]	; c0072fc <LCD_tablero+0x7d8>
 c00724c:	e151000c 	cmp	r1, ip
				toblerone[i][j]=t[i][j];
				cambios[i][j]=t[i][j];
				ncambios++;
 c007250:	12833001 	addne	r3, r3, #1
		}
	}
	for (i = 0; i < DIM; i++){
		for (j = 0; j < DIM; j++){
			if(toblerone[i][j]!=t[i][j]){
				toblerone[i][j]=t[i][j];
 c007254:	15c0c0cf 	strbne	ip, [r0, #207]	; 0xcf
				cambios[i][j]=t[i][j];
 c007258:	15c0c07f 	strbne	ip, [r0, #127]	; 0x7f
				ncambios++;
 c00725c:	e5823080 	str	r3, [r2, #128]	; 0x80
			}
		}
	}
}
 c007260:	e49d4004 	pop	{r4}		; (ldr r4, [sp], #4)
 c007264:	e12fff1e 	bx	lr
			}
		}
	}
	for (i = 0; i < DIM; i++){
		for (j = 0; j < DIM; j++){
			if(toblerone[i][j]!=t[i][j]){
 c007268:	e59f208c 	ldr	r2, [pc, #140]	; c0072fc <LCD_tablero+0x7d8>
void LCD_tablero(char t[DIM][DIM]){
	int i,j;
	if(primeraImpresion==1){
		for (i = 0; i < DIM; i++){
			for (j = 0; j < DIM; j++){
				toblerone[i][j]=0;
 c00726c:	e3a01000 	mov	r1, #0
 c007270:	e5821090 	str	r1, [r2, #144]	; 0x90
 c007274:	e5821094 	str	r1, [r2, #148]	; 0x94
				cambios[i][j]=0;
 c007278:	e5821040 	str	r1, [r2, #64]	; 0x40
 c00727c:	e5821044 	str	r1, [r2, #68]	; 0x44
void LCD_tablero(char t[DIM][DIM]){
	int i,j;
	if(primeraImpresion==1){
		for (i = 0; i < DIM; i++){
			for (j = 0; j < DIM; j++){
				toblerone[i][j]=0;
 c007280:	e5821098 	str	r1, [r2, #152]	; 0x98
 c007284:	e582109c 	str	r1, [r2, #156]	; 0x9c
				cambios[i][j]=0;
 c007288:	e5821048 	str	r1, [r2, #72]	; 0x48
 c00728c:	e582104c 	str	r1, [r2, #76]	; 0x4c
void LCD_tablero(char t[DIM][DIM]){
	int i,j;
	if(primeraImpresion==1){
		for (i = 0; i < DIM; i++){
			for (j = 0; j < DIM; j++){
				toblerone[i][j]=0;
 c007290:	e58210a0 	str	r1, [r2, #160]	; 0xa0
 c007294:	e58210a4 	str	r1, [r2, #164]	; 0xa4
				cambios[i][j]=0;
 c007298:	e5821050 	str	r1, [r2, #80]	; 0x50
 c00729c:	e5821054 	str	r1, [r2, #84]	; 0x54
void LCD_tablero(char t[DIM][DIM]){
	int i,j;
	if(primeraImpresion==1){
		for (i = 0; i < DIM; i++){
			for (j = 0; j < DIM; j++){
				toblerone[i][j]=0;
 c0072a0:	e58210a8 	str	r1, [r2, #168]	; 0xa8
 c0072a4:	e58210ac 	str	r1, [r2, #172]	; 0xac
				cambios[i][j]=0;
 c0072a8:	e5821058 	str	r1, [r2, #88]	; 0x58
 c0072ac:	e582105c 	str	r1, [r2, #92]	; 0x5c
void LCD_tablero(char t[DIM][DIM]){
	int i,j;
	if(primeraImpresion==1){
		for (i = 0; i < DIM; i++){
			for (j = 0; j < DIM; j++){
				toblerone[i][j]=0;
 c0072b0:	e58210b0 	str	r1, [r2, #176]	; 0xb0
 c0072b4:	e58210b4 	str	r1, [r2, #180]	; 0xb4
				cambios[i][j]=0;
 c0072b8:	e5821060 	str	r1, [r2, #96]	; 0x60
 c0072bc:	e5821064 	str	r1, [r2, #100]	; 0x64
void LCD_tablero(char t[DIM][DIM]){
	int i,j;
	if(primeraImpresion==1){
		for (i = 0; i < DIM; i++){
			for (j = 0; j < DIM; j++){
				toblerone[i][j]=0;
 c0072c0:	e58210b8 	str	r1, [r2, #184]	; 0xb8
 c0072c4:	e58210bc 	str	r1, [r2, #188]	; 0xbc
				cambios[i][j]=0;
 c0072c8:	e5821068 	str	r1, [r2, #104]	; 0x68
 c0072cc:	e582106c 	str	r1, [r2, #108]	; 0x6c
void LCD_tablero(char t[DIM][DIM]){
	int i,j;
	if(primeraImpresion==1){
		for (i = 0; i < DIM; i++){
			for (j = 0; j < DIM; j++){
				toblerone[i][j]=0;
 c0072d0:	e58210c0 	str	r1, [r2, #192]	; 0xc0
 c0072d4:	e58210c4 	str	r1, [r2, #196]	; 0xc4
				cambios[i][j]=0;
 c0072d8:	e5821070 	str	r1, [r2, #112]	; 0x70
 c0072dc:	e5821074 	str	r1, [r2, #116]	; 0x74
void LCD_tablero(char t[DIM][DIM]){
	int i,j;
	if(primeraImpresion==1){
		for (i = 0; i < DIM; i++){
			for (j = 0; j < DIM; j++){
				toblerone[i][j]=0;
 c0072e0:	e58210c8 	str	r1, [r2, #200]	; 0xc8
 c0072e4:	e58210cc 	str	r1, [r2, #204]	; 0xcc
				cambios[i][j]=0;
 c0072e8:	e5821078 	str	r1, [r2, #120]	; 0x78
 c0072ec:	e582107c 	str	r1, [r2, #124]	; 0x7c
 c0072f0:	e5821080 	str	r1, [r2, #128]	; 0x80
 c0072f4:	eafffe10 	b	c006b3c <LCD_tablero+0x18>
 c0072f8:	0c00ae48 	.word	0x0c00ae48
 c0072fc:	0c00cdf8 	.word	0x0c00cdf8

0c007300 <LCD_tcalculo>:
}
/*
 * Actualiza tcalculos
 */
void LCD_tcalculo(unsigned int t){
	tcalculos+=t;
 c007300:	e59f300c 	ldr	r3, [pc, #12]	; c007314 <LCD_tcalculo+0x14>
 c007304:	e5931018 	ldr	r1, [r3, #24]
 c007308:	e0802001 	add	r2, r0, r1
 c00730c:	e5832018 	str	r2, [r3, #24]
}
 c007310:	e12fff1e 	bx	lr
 c007314:	0c00cdf8 	.word	0x0c00cdf8

0c007318 <LCD_tvolteo>:
/*
 * Actualiza tvolteos y nvolteos
 */
void LCD_tvolteo(unsigned int t){
	tvolteos+=t;
 c007318:	e59f3018 	ldr	r3, [pc, #24]	; c007338 <LCD_tvolteo+0x20>
 c00731c:	e283201c 	add	r2, r3, #28
 c007320:	e8921004 	ldm	r2, {r2, ip}
 c007324:	e0801002 	add	r1, r0, r2
	nvolteos++;
 c007328:	e28c2001 	add	r2, ip, #1
}
/*
 * Actualiza tvolteos y nvolteos
 */
void LCD_tvolteo(unsigned int t){
	tvolteos+=t;
 c00732c:	e583101c 	str	r1, [r3, #28]
	nvolteos++;
 c007330:	e5832020 	str	r2, [r3, #32]
}
 c007334:	e12fff1e 	bx	lr
 c007338:	0c00cdf8 	.word	0x0c00cdf8

0c00733c <LCD_esquina>:
/*
 * Indica siguiente esquina a calibrar
 */
void LCD_esquina(int e){
	esquina=e;
 c00733c:	e59f3004 	ldr	r3, [pc, #4]	; c007348 <LCD_esquina+0xc>
 c007340:	e5830014 	str	r0, [r3, #20]
}
 c007344:	e12fff1e 	bx	lr
 c007348:	0c00cdf8 	.word	0x0c00cdf8

0c00734c <LCD_fichas>:
/*
 * Indica resultado al final de la partida
 */
void LCD_fichas(int b, int n){
	blancas=b;
 c00734c:	e59f3008 	ldr	r3, [pc, #8]	; c00735c <LCD_fichas+0x10>
 c007350:	e5830010 	str	r0, [r3, #16]
	negras=n;
 c007354:	e5831000 	str	r1, [r3]
}
 c007358:	e12fff1e 	bx	lr
 c00735c:	0c00cdf8 	.word	0x0c00cdf8

0c007360 <LCD_DMA_ready>:
/*
 * Indica que la transferencia dma ha finalizado
 */
void LCD_DMA_ready(){
	DMA_ready=1;
 c007360:	e59f3008 	ldr	r3, [pc, #8]	; c007370 <LCD_DMA_ready+0x10>
 c007364:	e3a02001 	mov	r2, #1
 c007368:	e583216c 	str	r2, [r3, #364]	; 0x16c
}
 c00736c:	e12fff1e 	bx	lr
 c007370:	0c00ae48 	.word	0x0c00ae48

0c007374 <LCD_Hay_cambios>:
/*
 * Indica que hay que ejecutar una transferencia
 */
void LCD_Hay_cambios(){
	Hay_cambios=1;
 c007374:	e59f3008 	ldr	r3, [pc, #8]	; c007384 <LCD_Hay_cambios+0x10>
 c007378:	e3a02001 	mov	r2, #1
 c00737c:	e5832168 	str	r2, [r3, #360]	; 0x168
}
 c007380:	e12fff1e 	bx	lr
 c007384:	0c00ae48 	.word	0x0c00ae48

0c007388 <LCD_Refresca_ttotal>:
/*
 * Si hay que actualizar el ttotal, pone Hay_cambios a 1
 */
void LCD_Refresca_ttotal(){
	static int contador=0;
	if(pantalla==PANTALLA_JUEGO){
 c007388:	e59f302c 	ldr	r3, [pc, #44]	; c0073bc <LCD_Refresca_ttotal+0x34>
 c00738c:	e5932170 	ldr	r2, [r3, #368]	; 0x170
 c007390:	e3520001 	cmp	r2, #1
 c007394:	112fff1e 	bxne	lr
		contador++;
 c007398:	e59f1020 	ldr	r1, [pc, #32]	; c0073c0 <LCD_Refresca_ttotal+0x38>
 c00739c:	e591c0e4 	ldr	ip, [r1, #228]	; 0xe4
 c0073a0:	e28c0001 	add	r0, ip, #1
		if(contador==60){	//Esta funcion se ejecuta 60 veces por segundo
 c0073a4:	e350003c 	cmp	r0, #60	; 0x3c
 * Si hay que actualizar el ttotal, pone Hay_cambios a 1
 */
void LCD_Refresca_ttotal(){
	static int contador=0;
	if(pantalla==PANTALLA_JUEGO){
		contador++;
 c0073a8:	e58100e4 	str	r0, [r1, #228]	; 0xe4
		if(contador==60){	//Esta funcion se ejecuta 60 veces por segundo
			contador=0;
 c0073ac:	03a00000 	moveq	r0, #0
 c0073b0:	058100e4 	streq	r0, [r1, #228]	; 0xe4
			Hay_cambios=1;
 c0073b4:	05832168 	streq	r2, [r3, #360]	; 0x168
 c0073b8:	e12fff1e 	bx	lr
 c0073bc:	0c00ae48 	.word	0x0c00ae48
 c0073c0:	0c00cdf8 	.word	0x0c00cdf8

0c0073c4 <probar_timer2>:

/*
 * Prueba el funcionamiento del timer2 comparando los tiempos con los de Delay()
 * Si no coinciden entra en bucle infinito.
 */
void probar_timer2(){
 c0073c4:	e1a0c00d 	mov	ip, sp
 c0073c8:	e92dd9f8 	push	{r3, r4, r5, r6, r7, r8, fp, ip, lr, pc}
 c0073cc:	e24cb004 	sub	fp, ip, #4
	unsigned int t1;
	unsigned int t2;
	unsigned int t3;
	unsigned int t4;
	timer2_inicializar();
 c0073d0:	eb000973 	bl	c0099a4 <timer2_inicializar>

	timer2_empezar();
 c0073d4:	eb000995 	bl	c009a30 <timer2_empezar>
	Delay(TIEMPO1/DELAY_UNIT);
 c0073d8:	e3a0000a 	mov	r0, #10
 c0073dc:	ebffe52d 	bl	c000898 <Delay>
	t1 = timer2_leer();//1000
 c0073e0:	eb0009a8 	bl	c009a88 <timer2_leer>
 c0073e4:	e1a06000 	mov	r6, r0

	timer2_empezar();
 c0073e8:	eb000990 	bl	c009a30 <timer2_empezar>
	Delay(TIEMPO2/DELAY_UNIT);
 c0073ec:	e3a00064 	mov	r0, #100	; 0x64
 c0073f0:	ebffe528 	bl	c000898 <Delay>
	t2 = timer2_leer();//10000
 c0073f4:	eb0009a3 	bl	c009a88 <timer2_leer>
 c0073f8:	e1a05000 	mov	r5, r0

	timer2_empezar();
 c0073fc:	eb00098b 	bl	c009a30 <timer2_empezar>
	Delay(TIEMPO3/DELAY_UNIT);
 c007400:	e59f0138 	ldr	r0, [pc, #312]	; c007540 <probar_timer2+0x17c>
 c007404:	ebffe523 	bl	c000898 <Delay>
	t3 = timer2_leer();//1000000
 c007408:	eb00099e 	bl	c009a88 <timer2_leer>
 c00740c:	e1a04000 	mov	r4, r0

	timer2_empezar();
 c007410:	eb000986 	bl	c009a30 <timer2_empezar>
	Delay(TIEMPO4/DELAY_UNIT);
 c007414:	e59f0128 	ldr	r0, [pc, #296]	; c007544 <probar_timer2+0x180>
 c007418:	ebffe51e 	bl	c000898 <Delay>
	t4 = timer2_parar();//10000000
 c00741c:	eb0009af 	bl	c009ae0 <timer2_parar>
 c007420:	e1a08000 	mov	r8, r0

	// Si hay un error mayor al 5%, entra en bucle infinito.
	if( t1<(TIEMPO1*0.95) || t1>(TIEMPO1*1.05) )	while(1);
 c007424:	e1a00006 	mov	r0, r6
 c007428:	eb000c88 	bl	c00a650 <__aeabi_ui2d>
 c00742c:	e3a02000 	mov	r2, #0
 c007430:	e59f3110 	ldr	r3, [pc, #272]	; c007548 <probar_timer2+0x184>
 c007434:	e1a06000 	mov	r6, r0
 c007438:	e1a07001 	mov	r7, r1
 c00743c:	eb000e23 	bl	c00acd0 <__aeabi_dcmplt>
 c007440:	e3500000 	cmp	r0, #0
 c007444:	0a000000 	beq	c00744c <probar_timer2+0x88>
 c007448:	eafffffe 	b	c007448 <probar_timer2+0x84>
 c00744c:	e1a00006 	mov	r0, r6
 c007450:	e1a01007 	mov	r1, r7
 c007454:	e3a02000 	mov	r2, #0
 c007458:	e59f30ec 	ldr	r3, [pc, #236]	; c00754c <probar_timer2+0x188>
 c00745c:	eb000e2d 	bl	c00ad18 <__aeabi_dcmpgt>
 c007460:	e3500000 	cmp	r0, #0
 c007464:	1afffff7 	bne	c007448 <probar_timer2+0x84>
	if( t2<(TIEMPO2*0.95) || t2>(TIEMPO2*1.05) )	while(1);
 c007468:	e1a00005 	mov	r0, r5
 c00746c:	eb000c77 	bl	c00a650 <__aeabi_ui2d>
 c007470:	e3a02000 	mov	r2, #0
 c007474:	e59f30d4 	ldr	r3, [pc, #212]	; c007550 <probar_timer2+0x18c>
 c007478:	e1a05000 	mov	r5, r0
 c00747c:	e1a06001 	mov	r6, r1
 c007480:	eb000e12 	bl	c00acd0 <__aeabi_dcmplt>
 c007484:	e3500000 	cmp	r0, #0
 c007488:	1a000006 	bne	c0074a8 <probar_timer2+0xe4>
 c00748c:	e1a00005 	mov	r0, r5
 c007490:	e1a01006 	mov	r1, r6
 c007494:	e3a02000 	mov	r2, #0
 c007498:	e59f30b4 	ldr	r3, [pc, #180]	; c007554 <probar_timer2+0x190>
 c00749c:	eb000e1d 	bl	c00ad18 <__aeabi_dcmpgt>
 c0074a0:	e3500000 	cmp	r0, #0
 c0074a4:	0a000000 	beq	c0074ac <probar_timer2+0xe8>
 c0074a8:	eafffffe 	b	c0074a8 <probar_timer2+0xe4>
	if( t3<(TIEMPO3*0.95) || t3>(TIEMPO3*1.05) )	while(1);
 c0074ac:	e1a00004 	mov	r0, r4
 c0074b0:	eb000c66 	bl	c00a650 <__aeabi_ui2d>
 c0074b4:	e3a02000 	mov	r2, #0
 c0074b8:	e59f3098 	ldr	r3, [pc, #152]	; c007558 <probar_timer2+0x194>
 c0074bc:	e1a04000 	mov	r4, r0
 c0074c0:	e1a05001 	mov	r5, r1
 c0074c4:	eb000e01 	bl	c00acd0 <__aeabi_dcmplt>
 c0074c8:	e3500000 	cmp	r0, #0
 c0074cc:	1a000006 	bne	c0074ec <probar_timer2+0x128>
 c0074d0:	e1a00004 	mov	r0, r4
 c0074d4:	e1a01005 	mov	r1, r5
 c0074d8:	e3a02000 	mov	r2, #0
 c0074dc:	e59f3078 	ldr	r3, [pc, #120]	; c00755c <probar_timer2+0x198>
 c0074e0:	eb000e0c 	bl	c00ad18 <__aeabi_dcmpgt>
 c0074e4:	e3500000 	cmp	r0, #0
 c0074e8:	0a000000 	beq	c0074f0 <probar_timer2+0x12c>
 c0074ec:	eafffffe 	b	c0074ec <probar_timer2+0x128>
	if( t4<(TIEMPO4*0.95) || t4>(TIEMPO4*1.05) )	while(1);
 c0074f0:	e1a00008 	mov	r0, r8
 c0074f4:	eb000c55 	bl	c00a650 <__aeabi_ui2d>
 c0074f8:	e3a02000 	mov	r2, #0
 c0074fc:	e59f305c 	ldr	r3, [pc, #92]	; c007560 <probar_timer2+0x19c>
 c007500:	e1a04000 	mov	r4, r0
 c007504:	e1a05001 	mov	r5, r1
 c007508:	eb000df0 	bl	c00acd0 <__aeabi_dcmplt>
 c00750c:	e3500000 	cmp	r0, #0
 c007510:	1a000006 	bne	c007530 <probar_timer2+0x16c>
 c007514:	e1a00004 	mov	r0, r4
 c007518:	e1a01005 	mov	r1, r5
 c00751c:	e3a02000 	mov	r2, #0
 c007520:	e59f303c 	ldr	r3, [pc, #60]	; c007564 <probar_timer2+0x1a0>
 c007524:	eb000dfb 	bl	c00ad18 <__aeabi_dcmpgt>
 c007528:	e3500000 	cmp	r0, #0
 c00752c:	0a000000 	beq	c007534 <probar_timer2+0x170>
 c007530:	eafffffe 	b	c007530 <probar_timer2+0x16c>

}
 c007534:	e24bd024 	sub	sp, fp, #36	; 0x24
 c007538:	e89d69f8 	ldm	sp, {r3, r4, r5, r6, r7, r8, fp, sp, lr}
 c00753c:	e12fff1e 	bx	lr
 c007540:	00002710 	.word	0x00002710
 c007544:	000186a0 	.word	0x000186a0
 c007548:	408db000 	.word	0x408db000
 c00754c:	40906800 	.word	0x40906800
 c007550:	40c28e00 	.word	0x40c28e00
 c007554:	40c48200 	.word	0x40c48200
 c007558:	412cfde0 	.word	0x412cfde0
 c00755c:	41300590 	.word	0x41300590
 c007560:	41621eac 	.word	0x41621eac
 c007564:	416406f4 	.word	0x416406f4

0c007568 <patron_volteo_test>:

/*
 * Compara los resultados de las 3 funciones patron_volteo y tambien las longitudes.
 * Si no son iguales entra en bucle infinito.
 */
int patron_volteo_test(char tablero[][DIM], int *longitud, char FA, char CA, char SF, char SC, char color){
 c007568:	e1a0c00d 	mov	ip, sp
 c00756c:	e92ddff0 	push	{r4, r5, r6, r7, r8, r9, sl, fp, ip, lr, pc}
 c007570:	e24cb004 	sub	fp, ip, #4
 c007574:	e24dd02c 	sub	sp, sp, #44	; 0x2c
	int sol_1,sol_2,sol_3;		//soluciones: PATRON_ENCONTRADO, NO_HAY_PATRON
	int longitud_1=*longitud;	//valor longitud con el que trabajará la primera función
 c007578:	e591e000 	ldr	lr, [r1]

/*
 * Compara los resultados de las 3 funciones patron_volteo y tambien las longitudes.
 * Si no son iguales entra en bucle infinito.
 */
int patron_volteo_test(char tablero[][DIM], int *longitud, char FA, char CA, char SF, char SC, char color){
 c00757c:	e5db5004 	ldrb	r5, [fp, #4]
 c007580:	e5db4008 	ldrb	r4, [fp, #8]
 c007584:	e5db700c 	ldrb	r7, [fp, #12]
	int longitud_2=*longitud;
	int longitud_3=*longitud;
	int *plong_1=&longitud_1;	//puntero longitud a pasar por parametro a la primera función
	int *plong_2=&longitud_2;
	int *plong_3=&longitud_3;
	sol_1=patron_volteo(tablero,plong_1,FA,CA,SF,SC,color);
 c007588:	e24b1030 	sub	r1, fp, #48	; 0x30

/*
 * Compara los resultados de las 3 funciones patron_volteo y tambien las longitudes.
 * Si no son iguales entra en bucle infinito.
 */
int patron_volteo_test(char tablero[][DIM], int *longitud, char FA, char CA, char SF, char SC, char color){
 c00758c:	e1a08000 	mov	r8, r0
 c007590:	e1a0a002 	mov	sl, r2
 c007594:	e1a09003 	mov	r9, r3
	int sol_1,sol_2,sol_3;		//soluciones: PATRON_ENCONTRADO, NO_HAY_PATRON
	int longitud_1=*longitud;	//valor longitud con el que trabajará la primera función
 c007598:	e50be030 	str	lr, [fp, #-48]	; 0xffffffd0
	int longitud_2=*longitud;
 c00759c:	e50be034 	str	lr, [fp, #-52]	; 0xffffffcc
	int longitud_3=*longitud;
 c0075a0:	e50be038 	str	lr, [fp, #-56]	; 0xffffffc8
	int *plong_1=&longitud_1;	//puntero longitud a pasar por parametro a la primera función
	int *plong_2=&longitud_2;
	int *plong_3=&longitud_3;
	sol_1=patron_volteo(tablero,plong_1,FA,CA,SF,SC,color);
 c0075a4:	e58d5000 	str	r5, [sp]
 c0075a8:	e98d0090 	stmib	sp, {r4, r7}
 c0075ac:	eb000251 	bl	c007ef8 <patron_volteo>
	sol_2=patron_volteo_arm_c(tablero,plong_2,FA,CA,SF,SC,color);
 c0075b0:	e24b1034 	sub	r1, fp, #52	; 0x34
	int longitud_2=*longitud;
	int longitud_3=*longitud;
	int *plong_1=&longitud_1;	//puntero longitud a pasar por parametro a la primera función
	int *plong_2=&longitud_2;
	int *plong_3=&longitud_3;
	sol_1=patron_volteo(tablero,plong_1,FA,CA,SF,SC,color);
 c0075b4:	e1a06000 	mov	r6, r0
	sol_2=patron_volteo_arm_c(tablero,plong_2,FA,CA,SF,SC,color);
 c0075b8:	e1a0200a 	mov	r2, sl
 c0075bc:	e1a03009 	mov	r3, r9
 c0075c0:	e1a00008 	mov	r0, r8
 c0075c4:	e50b6040 	str	r6, [fp, #-64]	; 0xffffffc0
 c0075c8:	e58d5000 	str	r5, [sp]
 c0075cc:	e98d0090 	stmib	sp, {r4, r7}
 c0075d0:	ebffe99a 	bl	c001c40 <patron_volteo_arm_c>
	sol_3=patron_volteo_arm_arm(tablero,plong_3,FA,CA,SF,SC,color);
 c0075d4:	e24b1038 	sub	r1, fp, #56	; 0x38
	int longitud_3=*longitud;
	int *plong_1=&longitud_1;	//puntero longitud a pasar por parametro a la primera función
	int *plong_2=&longitud_2;
	int *plong_3=&longitud_3;
	sol_1=patron_volteo(tablero,plong_1,FA,CA,SF,SC,color);
	sol_2=patron_volteo_arm_c(tablero,plong_2,FA,CA,SF,SC,color);
 c0075d8:	e1a06000 	mov	r6, r0
	sol_3=patron_volteo_arm_arm(tablero,plong_3,FA,CA,SF,SC,color);
 c0075dc:	e1a0200a 	mov	r2, sl
 c0075e0:	e1a00008 	mov	r0, r8
 c0075e4:	e1a03009 	mov	r3, r9
 c0075e8:	e58d5000 	str	r5, [sp]
 c0075ec:	e98d0090 	stmib	sp, {r4, r7}
 c0075f0:	ebffe9c6 	bl	c001d10 <patron_volteo_arm_arm>

	//comprobamos si coinciden solucion y longitud de las 3
	if(sol_1!=sol_2||sol_1!=sol_3||longitud_1!=longitud_2||longitud_1!=longitud_3){
 c0075f4:	e51bc040 	ldr	ip, [fp, #-64]	; 0xffffffc0
 c0075f8:	e15c0006 	cmp	ip, r6
 c0075fc:	015c0000 	cmpeq	ip, r0
 c007600:	0a000000 	beq	c007608 <patron_volteo_test+0xa0>
 c007604:	eafffffe 	b	c007604 <patron_volteo_test+0x9c>
 c007608:	e24b2034 	sub	r2, fp, #52	; 0x34
 c00760c:	e892000c 	ldm	r2, {r2, r3}
 c007610:	e1530002 	cmp	r3, r2
 c007614:	1afffffa 	bne	c007604 <patron_volteo_test+0x9c>
 c007618:	e51b1038 	ldr	r1, [fp, #-56]	; 0xffffffc8
 c00761c:	e1530001 	cmp	r3, r1
 c007620:	1afffff7 	bne	c007604 <patron_volteo_test+0x9c>
		while(1);
	}
	return sol_3;
}
 c007624:	e24bd028 	sub	sp, fp, #40	; 0x28
 c007628:	e89d6ff0 	ldm	sp, {r4, r5, r6, r7, r8, r9, sl, fp, sp, lr}
 c00762c:	e12fff1e 	bx	lr

0c007630 <pruebas_patron_volteo>:

/*
 * Utiliza los tableros t_1,t_2 y t_3  para comprobar el funcionamiento
 * utilizando patron_volteo_test().
 */
void pruebas_patron_volteo(){
 c007630:	e1a0c00d 	mov	ip, sp
 c007634:	e92ddff0 	push	{r4, r5, r6, r7, r8, r9, sl, fp, ip, lr, pc}
 c007638:	e24cb004 	sub	fp, ip, #4
 c00763c:	e24dd024 	sub	sp, sp, #36	; 0x24
	int i,lon;
	char SF,SC,f,c,color;
	f=3;
	c=3;
	color=2;
	for (i = 0; i < DIM; i++){
 c007640:	e3a05000 	mov	r5, #0
 * Compara los resultados de las 3 funciones patron_volteo y tambien las longitudes.
 * Si no son iguales entra en bucle infinito.
 */
int patron_volteo_test(char tablero[][DIM], int *longitud, char FA, char CA, char SF, char SC, char color){
	int sol_1,sol_2,sol_3;		//soluciones: PATRON_ENCONTRADO, NO_HAY_PATRON
	int longitud_1=*longitud;	//valor longitud con el que trabajará la primera función
 c007644:	e1a04005 	mov	r4, r5
	int longitud_2=*longitud;
	int longitud_3=*longitud;
	int *plong_1=&longitud_1;	//puntero longitud a pasar por parametro a la primera función
	int *plong_2=&longitud_2;
	int *plong_3=&longitud_3;
	sol_1=patron_volteo(tablero,plong_1,FA,CA,SF,SC,color);
 c007648:	e3a07002 	mov	r7, #2
	f=3;
	c=3;
	color=2;
	for (i = 0; i < DIM; i++){
		lon=0;
		SF = vSF[i];
 c00764c:	e59f0214 	ldr	r0, [pc, #532]	; c007868 <pruebas_patron_volteo+0x238>
		SC = vSC[i];
 c007650:	e2803008 	add	r3, r0, #8
	f=3;
	c=3;
	color=2;
	for (i = 0; i < DIM; i++){
		lon=0;
		SF = vSF[i];
 c007654:	e7d08005 	ldrb	r8, [r0, r5]
		SC = vSC[i];
 c007658:	e7d3a005 	ldrb	sl, [r3, r5]
	int longitud_2=*longitud;
	int longitud_3=*longitud;
	int *plong_1=&longitud_1;	//puntero longitud a pasar por parametro a la primera función
	int *plong_2=&longitud_2;
	int *plong_3=&longitud_3;
	sol_1=patron_volteo(tablero,plong_1,FA,CA,SF,SC,color);
 c00765c:	e3a02003 	mov	r2, #3
 c007660:	e1a03002 	mov	r3, r2
 c007664:	e24b1030 	sub	r1, fp, #48	; 0x30
 c007668:	e59f01fc 	ldr	r0, [pc, #508]	; c00786c <pruebas_patron_volteo+0x23c>
 * Compara los resultados de las 3 funciones patron_volteo y tambien las longitudes.
 * Si no son iguales entra en bucle infinito.
 */
int patron_volteo_test(char tablero[][DIM], int *longitud, char FA, char CA, char SF, char SC, char color){
	int sol_1,sol_2,sol_3;		//soluciones: PATRON_ENCONTRADO, NO_HAY_PATRON
	int longitud_1=*longitud;	//valor longitud con el que trabajará la primera función
 c00766c:	e50b4030 	str	r4, [fp, #-48]	; 0xffffffd0
	int longitud_2=*longitud;
 c007670:	e50b4034 	str	r4, [fp, #-52]	; 0xffffffcc
	int longitud_3=*longitud;
 c007674:	e50b4038 	str	r4, [fp, #-56]	; 0xffffffc8
	int *plong_1=&longitud_1;	//puntero longitud a pasar por parametro a la primera función
	int *plong_2=&longitud_2;
	int *plong_3=&longitud_3;
	sol_1=patron_volteo(tablero,plong_1,FA,CA,SF,SC,color);
 c007678:	e88d0500 	stm	sp, {r8, sl}
 c00767c:	e58d7008 	str	r7, [sp, #8]
 c007680:	eb00021c 	bl	c007ef8 <patron_volteo>
	sol_2=patron_volteo_arm_c(tablero,plong_2,FA,CA,SF,SC,color);
 c007684:	e3a02003 	mov	r2, #3
 c007688:	e1a03002 	mov	r3, r2
	int longitud_2=*longitud;
	int longitud_3=*longitud;
	int *plong_1=&longitud_1;	//puntero longitud a pasar por parametro a la primera función
	int *plong_2=&longitud_2;
	int *plong_3=&longitud_3;
	sol_1=patron_volteo(tablero,plong_1,FA,CA,SF,SC,color);
 c00768c:	e1a09000 	mov	r9, r0
	sol_2=patron_volteo_arm_c(tablero,plong_2,FA,CA,SF,SC,color);
 c007690:	e24b1034 	sub	r1, fp, #52	; 0x34
 c007694:	e59f01d0 	ldr	r0, [pc, #464]	; c00786c <pruebas_patron_volteo+0x23c>
 c007698:	e88d0500 	stm	sp, {r8, sl}
 c00769c:	e58d7008 	str	r7, [sp, #8]
 c0076a0:	ebffe966 	bl	c001c40 <patron_volteo_arm_c>
	sol_3=patron_volteo_arm_arm(tablero,plong_3,FA,CA,SF,SC,color);
 c0076a4:	e3a02003 	mov	r2, #3
	int longitud_3=*longitud;
	int *plong_1=&longitud_1;	//puntero longitud a pasar por parametro a la primera función
	int *plong_2=&longitud_2;
	int *plong_3=&longitud_3;
	sol_1=patron_volteo(tablero,plong_1,FA,CA,SF,SC,color);
	sol_2=patron_volteo_arm_c(tablero,plong_2,FA,CA,SF,SC,color);
 c0076a8:	e1a06000 	mov	r6, r0
	sol_3=patron_volteo_arm_arm(tablero,plong_3,FA,CA,SF,SC,color);
 c0076ac:	e24b1038 	sub	r1, fp, #56	; 0x38
 c0076b0:	e59f01b4 	ldr	r0, [pc, #436]	; c00786c <pruebas_patron_volteo+0x23c>
 c0076b4:	e1a03002 	mov	r3, r2
 c0076b8:	e88d0500 	stm	sp, {r8, sl}
 c0076bc:	e58d7008 	str	r7, [sp, #8]
 c0076c0:	ebffe992 	bl	c001d10 <patron_volteo_arm_arm>

	//comprobamos si coinciden solucion y longitud de las 3
	if(sol_1!=sol_2||sol_1!=sol_3||longitud_1!=longitud_2||longitud_1!=longitud_3){
 c0076c4:	e1590006 	cmp	r9, r6
 c0076c8:	01590000 	cmpeq	r9, r0
 c0076cc:	0a000000 	beq	c0076d4 <pruebas_patron_volteo+0xa4>
 c0076d0:	eafffffe 	b	c0076d0 <pruebas_patron_volteo+0xa0>
 c0076d4:	e24b2034 	sub	r2, fp, #52	; 0x34
 c0076d8:	e892000c 	ldm	r2, {r2, r3}
 c0076dc:	e1530002 	cmp	r3, r2
 c0076e0:	1afffffa 	bne	c0076d0 <pruebas_patron_volteo+0xa0>
 c0076e4:	e51b1038 	ldr	r1, [fp, #-56]	; 0xffffffc8
 c0076e8:	e1530001 	cmp	r3, r1
 c0076ec:	1afffff7 	bne	c0076d0 <pruebas_patron_volteo+0xa0>
	int i,lon;
	char SF,SC,f,c,color;
	f=3;
	c=3;
	color=2;
	for (i = 0; i < DIM; i++){
 c0076f0:	e2855001 	add	r5, r5, #1
 c0076f4:	e3550008 	cmp	r5, #8
 c0076f8:	1affffd3 	bne	c00764c <pruebas_patron_volteo+0x1c>
 * Compara los resultados de las 3 funciones patron_volteo y tambien las longitudes.
 * Si no son iguales entra en bucle infinito.
 */
int patron_volteo_test(char tablero[][DIM], int *longitud, char FA, char CA, char SF, char SC, char color){
	int sol_1,sol_2,sol_3;		//soluciones: PATRON_ENCONTRADO, NO_HAY_PATRON
	int longitud_1=*longitud;	//valor longitud con el que trabajará la primera función
 c0076fc:	e1a05004 	mov	r5, r4
		SC = vSC[i];
		patron_volteo_test(t_1,&lon,f,c,SF,SC,color);
	}
	for (i = 0; i < DIM; i++){
		lon=0;
		SF = vSF[i];
 c007700:	e59fe160 	ldr	lr, [pc, #352]	; c007868 <pruebas_patron_volteo+0x238>
		SC = vSC[i];
 c007704:	e28ec008 	add	ip, lr, #8
		SC = vSC[i];
		patron_volteo_test(t_1,&lon,f,c,SF,SC,color);
	}
	for (i = 0; i < DIM; i++){
		lon=0;
		SF = vSF[i];
 c007708:	e7de8004 	ldrb	r8, [lr, r4]
		SC = vSC[i];
 c00770c:	e7dca004 	ldrb	sl, [ip, r4]
	int longitud_2=*longitud;
	int longitud_3=*longitud;
	int *plong_1=&longitud_1;	//puntero longitud a pasar por parametro a la primera función
	int *plong_2=&longitud_2;
	int *plong_3=&longitud_3;
	sol_1=patron_volteo(tablero,plong_1,FA,CA,SF,SC,color);
 c007710:	e3a02003 	mov	r2, #3
 c007714:	e1a03002 	mov	r3, r2
 c007718:	e24b1038 	sub	r1, fp, #56	; 0x38
 c00771c:	e59f014c 	ldr	r0, [pc, #332]	; c007870 <pruebas_patron_volteo+0x240>
 * Compara los resultados de las 3 funciones patron_volteo y tambien las longitudes.
 * Si no son iguales entra en bucle infinito.
 */
int patron_volteo_test(char tablero[][DIM], int *longitud, char FA, char CA, char SF, char SC, char color){
	int sol_1,sol_2,sol_3;		//soluciones: PATRON_ENCONTRADO, NO_HAY_PATRON
	int longitud_1=*longitud;	//valor longitud con el que trabajará la primera función
 c007720:	e50b5038 	str	r5, [fp, #-56]	; 0xffffffc8
	int longitud_2=*longitud;
 c007724:	e50b5034 	str	r5, [fp, #-52]	; 0xffffffcc
	int longitud_3=*longitud;
 c007728:	e50b5030 	str	r5, [fp, #-48]	; 0xffffffd0
	int *plong_1=&longitud_1;	//puntero longitud a pasar por parametro a la primera función
	int *plong_2=&longitud_2;
	int *plong_3=&longitud_3;
	sol_1=patron_volteo(tablero,plong_1,FA,CA,SF,SC,color);
 c00772c:	e88d0500 	stm	sp, {r8, sl}
 c007730:	e58d7008 	str	r7, [sp, #8]
 c007734:	eb0001ef 	bl	c007ef8 <patron_volteo>
	sol_2=patron_volteo_arm_c(tablero,plong_2,FA,CA,SF,SC,color);
 c007738:	e3a02003 	mov	r2, #3
 c00773c:	e1a03002 	mov	r3, r2
	int longitud_2=*longitud;
	int longitud_3=*longitud;
	int *plong_1=&longitud_1;	//puntero longitud a pasar por parametro a la primera función
	int *plong_2=&longitud_2;
	int *plong_3=&longitud_3;
	sol_1=patron_volteo(tablero,plong_1,FA,CA,SF,SC,color);
 c007740:	e1a09000 	mov	r9, r0
	sol_2=patron_volteo_arm_c(tablero,plong_2,FA,CA,SF,SC,color);
 c007744:	e24b1034 	sub	r1, fp, #52	; 0x34
 c007748:	e59f0120 	ldr	r0, [pc, #288]	; c007870 <pruebas_patron_volteo+0x240>
 c00774c:	e88d0500 	stm	sp, {r8, sl}
 c007750:	e58d7008 	str	r7, [sp, #8]
 c007754:	ebffe939 	bl	c001c40 <patron_volteo_arm_c>
	sol_3=patron_volteo_arm_arm(tablero,plong_3,FA,CA,SF,SC,color);
 c007758:	e3a02003 	mov	r2, #3
	int longitud_3=*longitud;
	int *plong_1=&longitud_1;	//puntero longitud a pasar por parametro a la primera función
	int *plong_2=&longitud_2;
	int *plong_3=&longitud_3;
	sol_1=patron_volteo(tablero,plong_1,FA,CA,SF,SC,color);
	sol_2=patron_volteo_arm_c(tablero,plong_2,FA,CA,SF,SC,color);
 c00775c:	e1a06000 	mov	r6, r0
	sol_3=patron_volteo_arm_arm(tablero,plong_3,FA,CA,SF,SC,color);
 c007760:	e24b1030 	sub	r1, fp, #48	; 0x30
 c007764:	e59f0104 	ldr	r0, [pc, #260]	; c007870 <pruebas_patron_volteo+0x240>
 c007768:	e1a03002 	mov	r3, r2
 c00776c:	e88d0500 	stm	sp, {r8, sl}
 c007770:	e58d7008 	str	r7, [sp, #8]
 c007774:	ebffe965 	bl	c001d10 <patron_volteo_arm_arm>

	//comprobamos si coinciden solucion y longitud de las 3
	if(sol_1!=sol_2||sol_1!=sol_3||longitud_1!=longitud_2||longitud_1!=longitud_3){
 c007778:	e1590006 	cmp	r9, r6
 c00777c:	01590000 	cmpeq	r9, r0
 c007780:	1a000003 	bne	c007794 <pruebas_patron_volteo+0x164>
 c007784:	e51b3038 	ldr	r3, [fp, #-56]	; 0xffffffc8
 c007788:	e51b0034 	ldr	r0, [fp, #-52]	; 0xffffffcc
 c00778c:	e1530000 	cmp	r3, r0
 c007790:	0a000000 	beq	c007798 <pruebas_patron_volteo+0x168>
 c007794:	eafffffe 	b	c007794 <pruebas_patron_volteo+0x164>
 c007798:	e51b2030 	ldr	r2, [fp, #-48]	; 0xffffffd0
 c00779c:	e1530002 	cmp	r3, r2
 c0077a0:	1afffffb 	bne	c007794 <pruebas_patron_volteo+0x164>
		lon=0;
		SF = vSF[i];
		SC = vSC[i];
		patron_volteo_test(t_1,&lon,f,c,SF,SC,color);
	}
	for (i = 0; i < DIM; i++){
 c0077a4:	e2844001 	add	r4, r4, #1
 c0077a8:	e3540008 	cmp	r4, #8
 c0077ac:	1affffd3 	bne	c007700 <pruebas_patron_volteo+0xd0>
 * Compara los resultados de las 3 funciones patron_volteo y tambien las longitudes.
 * Si no son iguales entra en bucle infinito.
 */
int patron_volteo_test(char tablero[][DIM], int *longitud, char FA, char CA, char SF, char SC, char color){
	int sol_1,sol_2,sol_3;		//soluciones: PATRON_ENCONTRADO, NO_HAY_PATRON
	int longitud_1=*longitud;	//valor longitud con el que trabajará la primera función
 c0077b0:	e1a04005 	mov	r4, r5
	int longitud_2=*longitud;
	int longitud_3=*longitud;
	int *plong_1=&longitud_1;	//puntero longitud a pasar por parametro a la primera función
	int *plong_2=&longitud_2;
	int *plong_3=&longitud_3;
	sol_1=patron_volteo(tablero,plong_1,FA,CA,SF,SC,color);
 c0077b4:	e1a0a007 	mov	sl, r7
	}
	f=0;
	c=0;
	for (i = 0; i < DIM; i++){
		lon=0;
		SF = vSF[i];
 c0077b8:	e59f10a8 	ldr	r1, [pc, #168]	; c007868 <pruebas_patron_volteo+0x238>
		SC = vSC[i];
 c0077bc:	e2813008 	add	r3, r1, #8
	}
	f=0;
	c=0;
	for (i = 0; i < DIM; i++){
		lon=0;
		SF = vSF[i];
 c0077c0:	e7d17005 	ldrb	r7, [r1, r5]
		SC = vSC[i];
 c0077c4:	e7d38005 	ldrb	r8, [r3, r5]
	int longitud_2=*longitud;
	int longitud_3=*longitud;
	int *plong_1=&longitud_1;	//puntero longitud a pasar por parametro a la primera función
	int *plong_2=&longitud_2;
	int *plong_3=&longitud_3;
	sol_1=patron_volteo(tablero,plong_1,FA,CA,SF,SC,color);
 c0077c8:	e24b1030 	sub	r1, fp, #48	; 0x30
 c0077cc:	e1a02004 	mov	r2, r4
 c0077d0:	e1a03004 	mov	r3, r4
 c0077d4:	e59f0098 	ldr	r0, [pc, #152]	; c007874 <pruebas_patron_volteo+0x244>
 * Compara los resultados de las 3 funciones patron_volteo y tambien las longitudes.
 * Si no son iguales entra en bucle infinito.
 */
int patron_volteo_test(char tablero[][DIM], int *longitud, char FA, char CA, char SF, char SC, char color){
	int sol_1,sol_2,sol_3;		//soluciones: PATRON_ENCONTRADO, NO_HAY_PATRON
	int longitud_1=*longitud;	//valor longitud con el que trabajará la primera función
 c0077d8:	e50b4030 	str	r4, [fp, #-48]	; 0xffffffd0
	int longitud_2=*longitud;
 c0077dc:	e50b4034 	str	r4, [fp, #-52]	; 0xffffffcc
	int longitud_3=*longitud;
 c0077e0:	e50b4038 	str	r4, [fp, #-56]	; 0xffffffc8
	int *plong_1=&longitud_1;	//puntero longitud a pasar por parametro a la primera función
	int *plong_2=&longitud_2;
	int *plong_3=&longitud_3;
	sol_1=patron_volteo(tablero,plong_1,FA,CA,SF,SC,color);
 c0077e4:	e88d0580 	stm	sp, {r7, r8, sl}
 c0077e8:	eb0001c2 	bl	c007ef8 <patron_volteo>
	sol_2=patron_volteo_arm_c(tablero,plong_2,FA,CA,SF,SC,color);
 c0077ec:	e24b1034 	sub	r1, fp, #52	; 0x34
	int longitud_2=*longitud;
	int longitud_3=*longitud;
	int *plong_1=&longitud_1;	//puntero longitud a pasar por parametro a la primera función
	int *plong_2=&longitud_2;
	int *plong_3=&longitud_3;
	sol_1=patron_volteo(tablero,plong_1,FA,CA,SF,SC,color);
 c0077f0:	e1a09000 	mov	r9, r0
	sol_2=patron_volteo_arm_c(tablero,plong_2,FA,CA,SF,SC,color);
 c0077f4:	e1a02004 	mov	r2, r4
 c0077f8:	e1a03004 	mov	r3, r4
 c0077fc:	e59f0070 	ldr	r0, [pc, #112]	; c007874 <pruebas_patron_volteo+0x244>
 c007800:	e88d0580 	stm	sp, {r7, r8, sl}
 c007804:	ebffe90d 	bl	c001c40 <patron_volteo_arm_c>
	sol_3=patron_volteo_arm_arm(tablero,plong_3,FA,CA,SF,SC,color);
 c007808:	e24b1038 	sub	r1, fp, #56	; 0x38
	int longitud_3=*longitud;
	int *plong_1=&longitud_1;	//puntero longitud a pasar por parametro a la primera función
	int *plong_2=&longitud_2;
	int *plong_3=&longitud_3;
	sol_1=patron_volteo(tablero,plong_1,FA,CA,SF,SC,color);
	sol_2=patron_volteo_arm_c(tablero,plong_2,FA,CA,SF,SC,color);
 c00780c:	e1a06000 	mov	r6, r0
	sol_3=patron_volteo_arm_arm(tablero,plong_3,FA,CA,SF,SC,color);
 c007810:	e1a02004 	mov	r2, r4
 c007814:	e59f0058 	ldr	r0, [pc, #88]	; c007874 <pruebas_patron_volteo+0x244>
 c007818:	e1a03004 	mov	r3, r4
 c00781c:	e88d0580 	stm	sp, {r7, r8, sl}
 c007820:	ebffe93a 	bl	c001d10 <patron_volteo_arm_arm>

	//comprobamos si coinciden solucion y longitud de las 3
	if(sol_1!=sol_2||sol_1!=sol_3||longitud_1!=longitud_2||longitud_1!=longitud_3){
 c007824:	e1590006 	cmp	r9, r6
 c007828:	01590000 	cmpeq	r9, r0
 c00782c:	1a000003 	bne	c007840 <pruebas_patron_volteo+0x210>
 c007830:	e51b3030 	ldr	r3, [fp, #-48]	; 0xffffffd0
 c007834:	e51bc034 	ldr	ip, [fp, #-52]	; 0xffffffcc
 c007838:	e153000c 	cmp	r3, ip
 c00783c:	0a000000 	beq	c007844 <pruebas_patron_volteo+0x214>
 c007840:	eafffffe 	b	c007840 <pruebas_patron_volteo+0x210>
 c007844:	e51be038 	ldr	lr, [fp, #-56]	; 0xffffffc8
 c007848:	e153000e 	cmp	r3, lr
 c00784c:	1afffffb 	bne	c007840 <pruebas_patron_volteo+0x210>
		SC = vSC[i];
		patron_volteo_test(t_2,&lon,f,c,SF,SC,color);
	}
	f=0;
	c=0;
	for (i = 0; i < DIM; i++){
 c007850:	e2855001 	add	r5, r5, #1
 c007854:	e3550008 	cmp	r5, #8
 c007858:	1affffd6 	bne	c0077b8 <pruebas_patron_volteo+0x188>
		lon=0;
		SF = vSF[i];
		SC = vSC[i];
		patron_volteo_test(t_3,&lon,f,c,SF,SC,color);
	}
}
 c00785c:	e24bd028 	sub	sp, fp, #40	; 0x28
 c007860:	e89d6ff0 	ldm	sp, {r4, r5, r6, r7, r8, r9, sl, fp, sp, lr}
 c007864:	e12fff1e 	bx	lr
 c007868:	0c00ccc8 	.word	0x0c00ccc8
 c00786c:	0c00afc0 	.word	0x0c00afc0
 c007870:	0c00b000 	.word	0x0c00b000
 c007874:	0c00b040 	.word	0x0c00b040

0c007878 <pruebas_tiempo_patron_volteo>:
 * Utilizada para medir los tiempos de las 3 funciones patron_volteo.
 * Realizamos la medida individual de cada una de las 8 posibles posiciones incluidas en
 * los vectores:vSF y vSC, y también la medida de las 8 en
 * bucle (descomentar lineas)
 */
void pruebas_tiempo_patron_volteo(){
 c007878:	e1a0c00d 	mov	ip, sp
 c00787c:	e92dddf0 	push	{r4, r5, r6, r7, r8, sl, fp, ip, lr, pc}
 c007880:	e24cb004 	sub	fp, ip, #4
 c007884:	e24dd018 	sub	sp, sp, #24
	timer2_inicializar();


	//timer2_empezar();
	for (i = 0; i < DIM; i++){
		l=0;
 c007888:	e3a05000 	mov	r5, #0
 c00788c:	e24b6024 	sub	r6, fp, #36	; 0x24
		timer2_empezar();
		patron_volteo(t_t,&l,f,c,vSF[i],vSC[i],color);
 c007890:	e59f7414 	ldr	r7, [pc, #1044]	; c007cac <pruebas_tiempo_patron_volteo+0x434>
	int i,l;
	char f,c,color;
	f=2;
	c=3;
	color=2;
	timer2_inicializar();
 c007894:	eb000842 	bl	c0099a4 <timer2_inicializar>


	//timer2_empezar();
	for (i = 0; i < DIM; i++){
		l=0;
 c007898:	e5265004 	str	r5, [r6, #-4]!
		timer2_empezar();
		patron_volteo(t_t,&l,f,c,vSF[i],vSC[i],color);
 c00789c:	e3a04002 	mov	r4, #2
 c0078a0:	e3a0a0ff 	mov	sl, #255	; 0xff


	//timer2_empezar();
	for (i = 0; i < DIM; i++){
		l=0;
		timer2_empezar();
 c0078a4:	eb000861 	bl	c009a30 <timer2_empezar>
		patron_volteo(t_t,&l,f,c,vSF[i],vSC[i],color);
 c0078a8:	e1a01006 	mov	r1, r6
 c0078ac:	e1a02004 	mov	r2, r4
 c0078b0:	e3a03003 	mov	r3, #3
 c0078b4:	e1a00007 	mov	r0, r7
 c0078b8:	e3a08001 	mov	r8, #1
 c0078bc:	e58da000 	str	sl, [sp]
 c0078c0:	e58d5004 	str	r5, [sp, #4]
 c0078c4:	e58d4008 	str	r4, [sp, #8]
 c0078c8:	eb00018a 	bl	c007ef8 <patron_volteo>
		bruto1[i] = timer2_parar();
 c0078cc:	eb000883 	bl	c009ae0 <timer2_parar>
	timer2_inicializar();


	//timer2_empezar();
	for (i = 0; i < DIM; i++){
		l=0;
 c0078d0:	e50b5028 	str	r5, [fp, #-40]	; 0xffffffd8
		timer2_empezar();
 c0078d4:	eb000855 	bl	c009a30 <timer2_empezar>
		patron_volteo(t_t,&l,f,c,vSF[i],vSC[i],color);
 c0078d8:	e1a01006 	mov	r1, r6
 c0078dc:	e1a02004 	mov	r2, r4
 c0078e0:	e3a03003 	mov	r3, #3
 c0078e4:	e1a00007 	mov	r0, r7
 c0078e8:	e58da000 	str	sl, [sp]
 c0078ec:	e58d8004 	str	r8, [sp, #4]
 c0078f0:	e58d4008 	str	r4, [sp, #8]
 c0078f4:	eb00017f 	bl	c007ef8 <patron_volteo>
		bruto1[i] = timer2_parar();
 c0078f8:	eb000878 	bl	c009ae0 <timer2_parar>
	timer2_inicializar();


	//timer2_empezar();
	for (i = 0; i < DIM; i++){
		l=0;
 c0078fc:	e50b5028 	str	r5, [fp, #-40]	; 0xffffffd8
		timer2_empezar();
 c007900:	eb00084a 	bl	c009a30 <timer2_empezar>
		patron_volteo(t_t,&l,f,c,vSF[i],vSC[i],color);
 c007904:	e1a01006 	mov	r1, r6
 c007908:	e1a02004 	mov	r2, r4
 c00790c:	e3a03003 	mov	r3, #3
 c007910:	e1a00007 	mov	r0, r7
 c007914:	e88d0120 	stm	sp, {r5, r8}
 c007918:	e58d4008 	str	r4, [sp, #8]
 c00791c:	eb000175 	bl	c007ef8 <patron_volteo>
		bruto1[i] = timer2_parar();
 c007920:	eb00086e 	bl	c009ae0 <timer2_parar>
	timer2_inicializar();


	//timer2_empezar();
	for (i = 0; i < DIM; i++){
		l=0;
 c007924:	e50b5028 	str	r5, [fp, #-40]	; 0xffffffd8
		timer2_empezar();
 c007928:	eb000840 	bl	c009a30 <timer2_empezar>
		patron_volteo(t_t,&l,f,c,vSF[i],vSC[i],color);
 c00792c:	e1a01006 	mov	r1, r6
 c007930:	e1a02004 	mov	r2, r4
 c007934:	e3a03003 	mov	r3, #3
 c007938:	e1a00007 	mov	r0, r7
 c00793c:	e58d8000 	str	r8, [sp]
 c007940:	e58d8004 	str	r8, [sp, #4]
 c007944:	e58d4008 	str	r4, [sp, #8]
 c007948:	eb00016a 	bl	c007ef8 <patron_volteo>
		bruto1[i] = timer2_parar();
 c00794c:	eb000863 	bl	c009ae0 <timer2_parar>
	timer2_inicializar();


	//timer2_empezar();
	for (i = 0; i < DIM; i++){
		l=0;
 c007950:	e50b5028 	str	r5, [fp, #-40]	; 0xffffffd8
		timer2_empezar();
 c007954:	eb000835 	bl	c009a30 <timer2_empezar>
		patron_volteo(t_t,&l,f,c,vSF[i],vSC[i],color);
 c007958:	e1a01006 	mov	r1, r6
 c00795c:	e1a02004 	mov	r2, r4
 c007960:	e3a03003 	mov	r3, #3
 c007964:	e1a00007 	mov	r0, r7
 c007968:	e58d8000 	str	r8, [sp]
 c00796c:	e58d5004 	str	r5, [sp, #4]
 c007970:	e58d4008 	str	r4, [sp, #8]
 c007974:	eb00015f 	bl	c007ef8 <patron_volteo>
		bruto1[i] = timer2_parar();
 c007978:	eb000858 	bl	c009ae0 <timer2_parar>
	timer2_inicializar();


	//timer2_empezar();
	for (i = 0; i < DIM; i++){
		l=0;
 c00797c:	e50b5028 	str	r5, [fp, #-40]	; 0xffffffd8
		timer2_empezar();
 c007980:	eb00082a 	bl	c009a30 <timer2_empezar>
		patron_volteo(t_t,&l,f,c,vSF[i],vSC[i],color);
 c007984:	e1a01006 	mov	r1, r6
 c007988:	e1a02004 	mov	r2, r4
 c00798c:	e3a03003 	mov	r3, #3
 c007990:	e1a00007 	mov	r0, r7
 c007994:	e88d0500 	stm	sp, {r8, sl}
 c007998:	e58d4008 	str	r4, [sp, #8]
 c00799c:	eb000155 	bl	c007ef8 <patron_volteo>
		bruto1[i] = timer2_parar();
 c0079a0:	eb00084e 	bl	c009ae0 <timer2_parar>
	timer2_inicializar();


	//timer2_empezar();
	for (i = 0; i < DIM; i++){
		l=0;
 c0079a4:	e50b5028 	str	r5, [fp, #-40]	; 0xffffffd8
		timer2_empezar();
 c0079a8:	eb000820 	bl	c009a30 <timer2_empezar>
		patron_volteo(t_t,&l,f,c,vSF[i],vSC[i],color);
 c0079ac:	e1a01006 	mov	r1, r6
 c0079b0:	e1a02004 	mov	r2, r4
 c0079b4:	e3a03003 	mov	r3, #3
 c0079b8:	e1a00007 	mov	r0, r7
 c0079bc:	e88d0420 	stm	sp, {r5, sl}
 c0079c0:	e58d4008 	str	r4, [sp, #8]
 c0079c4:	eb00014b 	bl	c007ef8 <patron_volteo>
		bruto1[i] = timer2_parar();
 c0079c8:	eb000844 	bl	c009ae0 <timer2_parar>
	timer2_inicializar();


	//timer2_empezar();
	for (i = 0; i < DIM; i++){
		l=0;
 c0079cc:	e50b5028 	str	r5, [fp, #-40]	; 0xffffffd8
		timer2_empezar();
 c0079d0:	eb000816 	bl	c009a30 <timer2_empezar>
		patron_volteo(t_t,&l,f,c,vSF[i],vSC[i],color);
 c0079d4:	e1a01006 	mov	r1, r6
 c0079d8:	e1a02004 	mov	r2, r4
 c0079dc:	e3a03003 	mov	r3, #3
 c0079e0:	e1a00007 	mov	r0, r7
 c0079e4:	e58da000 	str	sl, [sp]
 c0079e8:	e58da004 	str	sl, [sp, #4]
 c0079ec:	e58d4008 	str	r4, [sp, #8]
 c0079f0:	eb000140 	bl	c007ef8 <patron_volteo>
		bruto1[i] = timer2_parar();
 c0079f4:	eb000839 	bl	c009ae0 <timer2_parar>
	}
	//t1 = timer2_parar();

	//timer2_empezar();
	for (i = 0; i < DIM; i++){
		l=0;
 c0079f8:	e50b5028 	str	r5, [fp, #-40]	; 0xffffffd8
		timer2_empezar();
 c0079fc:	eb00080b 	bl	c009a30 <timer2_empezar>
		patron_volteo_arm_c(t_t,&l,f,c,vSF[i],vSC[i],color);
 c007a00:	e1a01006 	mov	r1, r6
 c007a04:	e1a02004 	mov	r2, r4
 c007a08:	e3a03003 	mov	r3, #3
 c007a0c:	e1a00007 	mov	r0, r7
 c007a10:	e58da000 	str	sl, [sp]
 c007a14:	e58d5004 	str	r5, [sp, #4]
 c007a18:	e58d4008 	str	r4, [sp, #8]
 c007a1c:	ebffe887 	bl	c001c40 <patron_volteo_arm_c>
		bruto2[i] = timer2_parar();
 c007a20:	eb00082e 	bl	c009ae0 <timer2_parar>
	}
	//t1 = timer2_parar();

	//timer2_empezar();
	for (i = 0; i < DIM; i++){
		l=0;
 c007a24:	e50b5028 	str	r5, [fp, #-40]	; 0xffffffd8
		timer2_empezar();
 c007a28:	eb000800 	bl	c009a30 <timer2_empezar>
		patron_volteo_arm_c(t_t,&l,f,c,vSF[i],vSC[i],color);
 c007a2c:	e1a01006 	mov	r1, r6
 c007a30:	e1a02004 	mov	r2, r4
 c007a34:	e3a03003 	mov	r3, #3
 c007a38:	e1a00007 	mov	r0, r7
 c007a3c:	e58da000 	str	sl, [sp]
 c007a40:	e58d8004 	str	r8, [sp, #4]
 c007a44:	e58d4008 	str	r4, [sp, #8]
 c007a48:	ebffe87c 	bl	c001c40 <patron_volteo_arm_c>
		bruto2[i] = timer2_parar();
 c007a4c:	eb000823 	bl	c009ae0 <timer2_parar>
	}
	//t1 = timer2_parar();

	//timer2_empezar();
	for (i = 0; i < DIM; i++){
		l=0;
 c007a50:	e50b5028 	str	r5, [fp, #-40]	; 0xffffffd8
		timer2_empezar();
 c007a54:	eb0007f5 	bl	c009a30 <timer2_empezar>
		patron_volteo_arm_c(t_t,&l,f,c,vSF[i],vSC[i],color);
 c007a58:	e1a01006 	mov	r1, r6
 c007a5c:	e1a02004 	mov	r2, r4
 c007a60:	e3a03003 	mov	r3, #3
 c007a64:	e1a00007 	mov	r0, r7
 c007a68:	e88d0120 	stm	sp, {r5, r8}
 c007a6c:	e58d4008 	str	r4, [sp, #8]
 c007a70:	ebffe872 	bl	c001c40 <patron_volteo_arm_c>
		bruto2[i] = timer2_parar();
 c007a74:	eb000819 	bl	c009ae0 <timer2_parar>
	}
	//t1 = timer2_parar();

	//timer2_empezar();
	for (i = 0; i < DIM; i++){
		l=0;
 c007a78:	e50b5028 	str	r5, [fp, #-40]	; 0xffffffd8
		timer2_empezar();
 c007a7c:	eb0007eb 	bl	c009a30 <timer2_empezar>
		patron_volteo_arm_c(t_t,&l,f,c,vSF[i],vSC[i],color);
 c007a80:	e1a01006 	mov	r1, r6
 c007a84:	e1a02004 	mov	r2, r4
 c007a88:	e3a03003 	mov	r3, #3
 c007a8c:	e1a00007 	mov	r0, r7
 c007a90:	e58d8000 	str	r8, [sp]
 c007a94:	e58d8004 	str	r8, [sp, #4]
 c007a98:	e58d4008 	str	r4, [sp, #8]
 c007a9c:	ebffe867 	bl	c001c40 <patron_volteo_arm_c>
		bruto2[i] = timer2_parar();
 c007aa0:	eb00080e 	bl	c009ae0 <timer2_parar>
	}
	//t1 = timer2_parar();

	//timer2_empezar();
	for (i = 0; i < DIM; i++){
		l=0;
 c007aa4:	e50b5028 	str	r5, [fp, #-40]	; 0xffffffd8
		timer2_empezar();
 c007aa8:	eb0007e0 	bl	c009a30 <timer2_empezar>
		patron_volteo_arm_c(t_t,&l,f,c,vSF[i],vSC[i],color);
 c007aac:	e1a01006 	mov	r1, r6
 c007ab0:	e1a02004 	mov	r2, r4
 c007ab4:	e3a03003 	mov	r3, #3
 c007ab8:	e1a00007 	mov	r0, r7
 c007abc:	e58d8000 	str	r8, [sp]
 c007ac0:	e58d5004 	str	r5, [sp, #4]
 c007ac4:	e58d4008 	str	r4, [sp, #8]
 c007ac8:	ebffe85c 	bl	c001c40 <patron_volteo_arm_c>
		bruto2[i] = timer2_parar();
 c007acc:	eb000803 	bl	c009ae0 <timer2_parar>
	}
	//t1 = timer2_parar();

	//timer2_empezar();
	for (i = 0; i < DIM; i++){
		l=0;
 c007ad0:	e50b5028 	str	r5, [fp, #-40]	; 0xffffffd8
		timer2_empezar();
 c007ad4:	eb0007d5 	bl	c009a30 <timer2_empezar>
		patron_volteo_arm_c(t_t,&l,f,c,vSF[i],vSC[i],color);
 c007ad8:	e1a01006 	mov	r1, r6
 c007adc:	e1a02004 	mov	r2, r4
 c007ae0:	e3a03003 	mov	r3, #3
 c007ae4:	e1a00007 	mov	r0, r7
 c007ae8:	e88d0500 	stm	sp, {r8, sl}
 c007aec:	e58d4008 	str	r4, [sp, #8]
 c007af0:	ebffe852 	bl	c001c40 <patron_volteo_arm_c>
		bruto2[i] = timer2_parar();
 c007af4:	eb0007f9 	bl	c009ae0 <timer2_parar>
	}
	//t1 = timer2_parar();

	//timer2_empezar();
	for (i = 0; i < DIM; i++){
		l=0;
 c007af8:	e50b5028 	str	r5, [fp, #-40]	; 0xffffffd8
		timer2_empezar();
 c007afc:	eb0007cb 	bl	c009a30 <timer2_empezar>
		patron_volteo_arm_c(t_t,&l,f,c,vSF[i],vSC[i],color);
 c007b00:	e1a01006 	mov	r1, r6
 c007b04:	e1a02004 	mov	r2, r4
 c007b08:	e3a03003 	mov	r3, #3
 c007b0c:	e1a00007 	mov	r0, r7
 c007b10:	e88d0420 	stm	sp, {r5, sl}
 c007b14:	e58d4008 	str	r4, [sp, #8]
 c007b18:	ebffe848 	bl	c001c40 <patron_volteo_arm_c>
		bruto2[i] = timer2_parar();
 c007b1c:	eb0007ef 	bl	c009ae0 <timer2_parar>
	}
	//t1 = timer2_parar();

	//timer2_empezar();
	for (i = 0; i < DIM; i++){
		l=0;
 c007b20:	e50b5028 	str	r5, [fp, #-40]	; 0xffffffd8
		timer2_empezar();
 c007b24:	eb0007c1 	bl	c009a30 <timer2_empezar>
		patron_volteo_arm_c(t_t,&l,f,c,vSF[i],vSC[i],color);
 c007b28:	e1a01006 	mov	r1, r6
 c007b2c:	e1a02004 	mov	r2, r4
 c007b30:	e3a03003 	mov	r3, #3
 c007b34:	e1a00007 	mov	r0, r7
 c007b38:	e58da000 	str	sl, [sp]
 c007b3c:	e58da004 	str	sl, [sp, #4]
 c007b40:	e58d4008 	str	r4, [sp, #8]
 c007b44:	ebffe83d 	bl	c001c40 <patron_volteo_arm_c>
		bruto2[i] = timer2_parar();
 c007b48:	eb0007e4 	bl	c009ae0 <timer2_parar>
	}
	//t2 = timer2_parar();

	//timer2_empezar();
	for (i = 0; i < DIM; i++){
		l=0;
 c007b4c:	e50b5028 	str	r5, [fp, #-40]	; 0xffffffd8
		timer2_empezar();
 c007b50:	eb0007b6 	bl	c009a30 <timer2_empezar>
		patron_volteo_arm_arm(t_t,&l,f,c,vSF[i],vSC[i],color);
 c007b54:	e1a01006 	mov	r1, r6
 c007b58:	e1a02004 	mov	r2, r4
 c007b5c:	e3a03003 	mov	r3, #3
 c007b60:	e1a00007 	mov	r0, r7
 c007b64:	e58da000 	str	sl, [sp]
 c007b68:	e58d5004 	str	r5, [sp, #4]
 c007b6c:	e58d4008 	str	r4, [sp, #8]
 c007b70:	ebffe866 	bl	c001d10 <patron_volteo_arm_arm>
		bruto3[i] = timer2_parar();
 c007b74:	eb0007d9 	bl	c009ae0 <timer2_parar>
	}
	//t2 = timer2_parar();

	//timer2_empezar();
	for (i = 0; i < DIM; i++){
		l=0;
 c007b78:	e50b5028 	str	r5, [fp, #-40]	; 0xffffffd8
		timer2_empezar();
 c007b7c:	eb0007ab 	bl	c009a30 <timer2_empezar>
		patron_volteo_arm_arm(t_t,&l,f,c,vSF[i],vSC[i],color);
 c007b80:	e1a01006 	mov	r1, r6
 c007b84:	e1a02004 	mov	r2, r4
 c007b88:	e3a03003 	mov	r3, #3
 c007b8c:	e1a00007 	mov	r0, r7
 c007b90:	e58da000 	str	sl, [sp]
 c007b94:	e58d8004 	str	r8, [sp, #4]
 c007b98:	e58d4008 	str	r4, [sp, #8]
 c007b9c:	ebffe85b 	bl	c001d10 <patron_volteo_arm_arm>
		bruto3[i] = timer2_parar();
 c007ba0:	eb0007ce 	bl	c009ae0 <timer2_parar>
	}
	//t2 = timer2_parar();

	//timer2_empezar();
	for (i = 0; i < DIM; i++){
		l=0;
 c007ba4:	e50b5028 	str	r5, [fp, #-40]	; 0xffffffd8
		timer2_empezar();
 c007ba8:	eb0007a0 	bl	c009a30 <timer2_empezar>
		patron_volteo_arm_arm(t_t,&l,f,c,vSF[i],vSC[i],color);
 c007bac:	e1a01006 	mov	r1, r6
 c007bb0:	e1a02004 	mov	r2, r4
 c007bb4:	e3a03003 	mov	r3, #3
 c007bb8:	e1a00007 	mov	r0, r7
 c007bbc:	e88d0120 	stm	sp, {r5, r8}
 c007bc0:	e58d4008 	str	r4, [sp, #8]
 c007bc4:	ebffe851 	bl	c001d10 <patron_volteo_arm_arm>
		bruto3[i] = timer2_parar();
 c007bc8:	eb0007c4 	bl	c009ae0 <timer2_parar>
	}
	//t2 = timer2_parar();

	//timer2_empezar();
	for (i = 0; i < DIM; i++){
		l=0;
 c007bcc:	e50b5028 	str	r5, [fp, #-40]	; 0xffffffd8
		timer2_empezar();
 c007bd0:	eb000796 	bl	c009a30 <timer2_empezar>
		patron_volteo_arm_arm(t_t,&l,f,c,vSF[i],vSC[i],color);
 c007bd4:	e1a01006 	mov	r1, r6
 c007bd8:	e1a02004 	mov	r2, r4
 c007bdc:	e3a03003 	mov	r3, #3
 c007be0:	e1a00007 	mov	r0, r7
 c007be4:	e58d8000 	str	r8, [sp]
 c007be8:	e58d8004 	str	r8, [sp, #4]
 c007bec:	e58d4008 	str	r4, [sp, #8]
 c007bf0:	ebffe846 	bl	c001d10 <patron_volteo_arm_arm>
		bruto3[i] = timer2_parar();
 c007bf4:	eb0007b9 	bl	c009ae0 <timer2_parar>
	}
	//t2 = timer2_parar();

	//timer2_empezar();
	for (i = 0; i < DIM; i++){
		l=0;
 c007bf8:	e50b5028 	str	r5, [fp, #-40]	; 0xffffffd8
		timer2_empezar();
 c007bfc:	eb00078b 	bl	c009a30 <timer2_empezar>
		patron_volteo_arm_arm(t_t,&l,f,c,vSF[i],vSC[i],color);
 c007c00:	e1a01006 	mov	r1, r6
 c007c04:	e1a02004 	mov	r2, r4
 c007c08:	e3a03003 	mov	r3, #3
 c007c0c:	e1a00007 	mov	r0, r7
 c007c10:	e58d8000 	str	r8, [sp]
 c007c14:	e58d5004 	str	r5, [sp, #4]
 c007c18:	e58d4008 	str	r4, [sp, #8]
 c007c1c:	ebffe83b 	bl	c001d10 <patron_volteo_arm_arm>
		bruto3[i] = timer2_parar();
 c007c20:	eb0007ae 	bl	c009ae0 <timer2_parar>
	}
	//t2 = timer2_parar();

	//timer2_empezar();
	for (i = 0; i < DIM; i++){
		l=0;
 c007c24:	e50b5028 	str	r5, [fp, #-40]	; 0xffffffd8
		timer2_empezar();
 c007c28:	eb000780 	bl	c009a30 <timer2_empezar>
		patron_volteo_arm_arm(t_t,&l,f,c,vSF[i],vSC[i],color);
 c007c2c:	e1a01006 	mov	r1, r6
 c007c30:	e1a02004 	mov	r2, r4
 c007c34:	e3a03003 	mov	r3, #3
 c007c38:	e1a00007 	mov	r0, r7
 c007c3c:	e88d0500 	stm	sp, {r8, sl}
 c007c40:	e58d4008 	str	r4, [sp, #8]
 c007c44:	ebffe831 	bl	c001d10 <patron_volteo_arm_arm>
		bruto3[i] = timer2_parar();
 c007c48:	eb0007a4 	bl	c009ae0 <timer2_parar>
	}
	//t2 = timer2_parar();

	//timer2_empezar();
	for (i = 0; i < DIM; i++){
		l=0;
 c007c4c:	e50b5028 	str	r5, [fp, #-40]	; 0xffffffd8
		timer2_empezar();
 c007c50:	eb000776 	bl	c009a30 <timer2_empezar>
		patron_volteo_arm_arm(t_t,&l,f,c,vSF[i],vSC[i],color);
 c007c54:	e1a01006 	mov	r1, r6
 c007c58:	e1a02004 	mov	r2, r4
 c007c5c:	e3a03003 	mov	r3, #3
 c007c60:	e1a00007 	mov	r0, r7
 c007c64:	e88d0420 	stm	sp, {r5, sl}
 c007c68:	e58d4008 	str	r4, [sp, #8]
 c007c6c:	ebffe827 	bl	c001d10 <patron_volteo_arm_arm>
		bruto3[i] = timer2_parar();
 c007c70:	eb00079a 	bl	c009ae0 <timer2_parar>
	}
	//t2 = timer2_parar();

	//timer2_empezar();
	for (i = 0; i < DIM; i++){
		l=0;
 c007c74:	e50b5028 	str	r5, [fp, #-40]	; 0xffffffd8
		timer2_empezar();
 c007c78:	eb00076c 	bl	c009a30 <timer2_empezar>
		patron_volteo_arm_arm(t_t,&l,f,c,vSF[i],vSC[i],color);
 c007c7c:	e1a01006 	mov	r1, r6
 c007c80:	e1a02004 	mov	r2, r4
 c007c84:	e3a03003 	mov	r3, #3
 c007c88:	e1a00007 	mov	r0, r7
 c007c8c:	e58da000 	str	sl, [sp]
 c007c90:	e58da004 	str	sl, [sp, #4]
 c007c94:	e58d4008 	str	r4, [sp, #8]
 c007c98:	ebffe81c 	bl	c001d10 <patron_volteo_arm_arm>
		bruto3[i] = timer2_parar();
 c007c9c:	eb00078f 	bl	c009ae0 <timer2_parar>
		t3+=bruto3[i];
	}
	//t3 = timer2_parar();
	total=t1+t2+t3;	// PONER BREAKPOINT AQUI

}
 c007ca0:	e24bd024 	sub	sp, fp, #36	; 0x24
 c007ca4:	e89d6df0 	ldm	sp, {r4, r5, r6, r7, r8, sl, fp, sp, lr}
 c007ca8:	e12fff1e 	bx	lr
 c007cac:	0c00b080 	.word	0x0c00b080

0c007cb0 <init_table>:
/*--- codigo de funciones ---*/

/*
 * Inicializa candidatas y tablero con los valores de inicio de partida
 */
void init_table(char tablero[][DIM], char candidatas[][DIM] ){
 c007cb0:	e92d07f0 	push	{r4, r5, r6, r7, r8, r9, sl}
 c007cb4:	e2103003 	ands	r3, r0, #3
 c007cb8:	e24dd01c 	sub	sp, sp, #28
 c007cbc:	1a00003b 	bne	c007db0 <init_table+0x100>
    int i, j;
    for (i = 0; i < DIM; i++){
        for (j = 0; j < DIM; j++)
            tablero[i][j] = CASILLA_VACIA;
 c007cc0:	e1a02000 	mov	r2, r0
 c007cc4:	e4823004 	str	r3, [r2], #4
 c007cc8:	e282c020 	add	ip, r2, #32
 c007ccc:	e58dc00c 	str	ip, [sp, #12]
 c007cd0:	e282c024 	add	ip, r2, #36	; 0x24
 c007cd4:	e58dc010 	str	ip, [sp, #16]
 c007cd8:	e28cc004 	add	ip, ip, #4
 c007cdc:	e58dc004 	str	ip, [sp, #4]
 c007ce0:	e28cc004 	add	ip, ip, #4
 c007ce4:	e58dc008 	str	ip, [sp, #8]
 c007ce8:	e282a004 	add	sl, r2, #4
 c007cec:	e28cc004 	add	ip, ip, #4
 c007cf0:	e58dc014 	str	ip, [sp, #20]
 c007cf4:	e5803004 	str	r3, [r0, #4]
 c007cf8:	e5823004 	str	r3, [r2, #4]
 c007cfc:	e58a3004 	str	r3, [sl, #4]
 c007d00:	e58a3008 	str	r3, [sl, #8]
 c007d04:	e58a300c 	str	r3, [sl, #12]
 c007d08:	e58a3010 	str	r3, [sl, #16]
 c007d0c:	e58a3014 	str	r3, [sl, #20]
 c007d10:	e58a3018 	str	r3, [sl, #24]
 c007d14:	e58a301c 	str	r3, [sl, #28]
 c007d18:	e280c018 	add	ip, r0, #24
 c007d1c:	e2802020 	add	r2, r0, #32
 c007d20:	e59d000c 	ldr	r0, [sp, #12]
 c007d24:	e5803004 	str	r3, [r0, #4]
 c007d28:	e59d0010 	ldr	r0, [sp, #16]
 c007d2c:	e5803004 	str	r3, [r0, #4]
 c007d30:	e59d0004 	ldr	r0, [sp, #4]
 c007d34:	e5803004 	str	r3, [r0, #4]
 c007d38:	e59d0008 	ldr	r0, [sp, #8]
 c007d3c:	e5803004 	str	r3, [r0, #4]
 c007d40:	e59d0014 	ldr	r0, [sp, #20]
 c007d44:	e5803004 	str	r3, [r0, #4]
 c007d48:	e5803008 	str	r3, [r0, #8]
    }

    for (i = 3; i < 5; ++i) {
    	for(j = 3; j < 5; ++j) {
    		tablero[i][j] = i == j ? FICHA_BLANCA : FICHA_NEGRA;
 c007d4c:	e3a03001 	mov	r3, #1
 c007d50:	e3a00002 	mov	r0, #2
 c007d54:	e5cc3003 	strb	r3, [ip, #3]
 c007d58:	e5cc0004 	strb	r0, [ip, #4]
 c007d5c:	e5c20003 	strb	r0, [r2, #3]
 c007d60:	e5c23004 	strb	r3, [r2, #4]
    for (i = 2; i < 6; ++i) {
    	for (j = 2; j < 6; ++j) {
    		if((i>=3) && (i < 5) && (j>=3) && (j<5)) {
    				candidatas[i][j] = CASILLA_OCUPADA;
    		}else{
    			candidatas[i][j] = SI; //CASILLA_LIBRE;
 c007d64:	e5c13012 	strb	r3, [r1, #18]
 c007d68:	e5c13013 	strb	r3, [r1, #19]
 c007d6c:	e5c13014 	strb	r3, [r1, #20]
 c007d70:	e5c13015 	strb	r3, [r1, #21]
 c007d74:	e5c1301a 	strb	r3, [r1, #26]
    }

    for (i = 2; i < 6; ++i) {
    	for (j = 2; j < 6; ++j) {
    		if((i>=3) && (i < 5) && (j>=3) && (j<5)) {
    				candidatas[i][j] = CASILLA_OCUPADA;
 c007d78:	e5c1001b 	strb	r0, [r1, #27]
 c007d7c:	e5c1001c 	strb	r0, [r1, #28]
    		}else{
    			candidatas[i][j] = SI; //CASILLA_LIBRE;
 c007d80:	e5c1301d 	strb	r3, [r1, #29]
 c007d84:	e5c13022 	strb	r3, [r1, #34]	; 0x22
    }

    for (i = 2; i < 6; ++i) {
    	for (j = 2; j < 6; ++j) {
    		if((i>=3) && (i < 5) && (j>=3) && (j<5)) {
    				candidatas[i][j] = CASILLA_OCUPADA;
 c007d88:	e5c10023 	strb	r0, [r1, #35]	; 0x23
 c007d8c:	e5c10024 	strb	r0, [r1, #36]	; 0x24
    		}else{
    			candidatas[i][j] = SI; //CASILLA_LIBRE;
 c007d90:	e5c13025 	strb	r3, [r1, #37]	; 0x25
 c007d94:	e5c1302a 	strb	r3, [r1, #42]	; 0x2a
 c007d98:	e5c1302b 	strb	r3, [r1, #43]	; 0x2b
 c007d9c:	e5c1302c 	strb	r3, [r1, #44]	; 0x2c
 c007da0:	e5c1302d 	strb	r3, [r1, #45]	; 0x2d
    		}
    	}
    }
}
 c007da4:	e28dd01c 	add	sp, sp, #28
 c007da8:	e8bd07f0 	pop	{r4, r5, r6, r7, r8, r9, sl}
 c007dac:	e12fff1e 	bx	lr
 */
void init_table(char tablero[][DIM], char candidatas[][DIM] ){
    int i, j;
    for (i = 0; i < DIM; i++){
        for (j = 0; j < DIM; j++)
            tablero[i][j] = CASILLA_VACIA;
 c007db0:	e3a03000 	mov	r3, #0
 c007db4:	e5c03000 	strb	r3, [r0]
 c007db8:	e5c03001 	strb	r3, [r0, #1]
 c007dbc:	e5c03002 	strb	r3, [r0, #2]
 c007dc0:	e5c03003 	strb	r3, [r0, #3]
 c007dc4:	e5c03004 	strb	r3, [r0, #4]
 c007dc8:	e5c03005 	strb	r3, [r0, #5]
 c007dcc:	e5c03006 	strb	r3, [r0, #6]
 c007dd0:	e5c03007 	strb	r3, [r0, #7]
 c007dd4:	e5c03008 	strb	r3, [r0, #8]
 c007dd8:	e5c03009 	strb	r3, [r0, #9]
 c007ddc:	e5c0300a 	strb	r3, [r0, #10]
 c007de0:	e5c0300b 	strb	r3, [r0, #11]
 c007de4:	e5c0300c 	strb	r3, [r0, #12]
 c007de8:	e5c0300d 	strb	r3, [r0, #13]
 c007dec:	e5c0300e 	strb	r3, [r0, #14]
 c007df0:	e5c0300f 	strb	r3, [r0, #15]
 c007df4:	e5c03010 	strb	r3, [r0, #16]
 c007df8:	e5c03011 	strb	r3, [r0, #17]
 c007dfc:	e5c03012 	strb	r3, [r0, #18]
 c007e00:	e5c03013 	strb	r3, [r0, #19]
 c007e04:	e5c03014 	strb	r3, [r0, #20]
 c007e08:	e5c03015 	strb	r3, [r0, #21]
 c007e0c:	e5c03016 	strb	r3, [r0, #22]
 c007e10:	e5c03017 	strb	r3, [r0, #23]
 c007e14:	e5c03018 	strb	r3, [r0, #24]
 c007e18:	e5c03019 	strb	r3, [r0, #25]
 c007e1c:	e5c0301a 	strb	r3, [r0, #26]
 c007e20:	e5c0301b 	strb	r3, [r0, #27]
 c007e24:	e5c0301c 	strb	r3, [r0, #28]
 c007e28:	e5c0301d 	strb	r3, [r0, #29]
 c007e2c:	e5c0301e 	strb	r3, [r0, #30]
 c007e30:	e5c0301f 	strb	r3, [r0, #31]
 c007e34:	e5c03020 	strb	r3, [r0, #32]
 c007e38:	e280c018 	add	ip, r0, #24
 c007e3c:	e5c03021 	strb	r3, [r0, #33]	; 0x21
 c007e40:	e2802020 	add	r2, r0, #32
 c007e44:	e5c03022 	strb	r3, [r0, #34]	; 0x22
 c007e48:	e5c03023 	strb	r3, [r0, #35]	; 0x23
 c007e4c:	e5c03024 	strb	r3, [r0, #36]	; 0x24
 c007e50:	e5c03025 	strb	r3, [r0, #37]	; 0x25
 c007e54:	e5c03026 	strb	r3, [r0, #38]	; 0x26
 c007e58:	e5c03027 	strb	r3, [r0, #39]	; 0x27
 c007e5c:	e5c03028 	strb	r3, [r0, #40]	; 0x28
 c007e60:	e5c03029 	strb	r3, [r0, #41]	; 0x29
 c007e64:	e5c0302a 	strb	r3, [r0, #42]	; 0x2a
 c007e68:	e5c0302b 	strb	r3, [r0, #43]	; 0x2b
 c007e6c:	e5c0302c 	strb	r3, [r0, #44]	; 0x2c
 c007e70:	e5c0302d 	strb	r3, [r0, #45]	; 0x2d
 c007e74:	e5c0302e 	strb	r3, [r0, #46]	; 0x2e
 c007e78:	e5c0302f 	strb	r3, [r0, #47]	; 0x2f
 c007e7c:	e5c03030 	strb	r3, [r0, #48]	; 0x30
 c007e80:	e5c03031 	strb	r3, [r0, #49]	; 0x31
 c007e84:	e5c03032 	strb	r3, [r0, #50]	; 0x32
 c007e88:	e5c03033 	strb	r3, [r0, #51]	; 0x33
 c007e8c:	e5c03034 	strb	r3, [r0, #52]	; 0x34
 c007e90:	e5c03035 	strb	r3, [r0, #53]	; 0x35
 c007e94:	e5c03036 	strb	r3, [r0, #54]	; 0x36
 c007e98:	e5c03037 	strb	r3, [r0, #55]	; 0x37
 c007e9c:	e5c03038 	strb	r3, [r0, #56]	; 0x38
 c007ea0:	e5c03039 	strb	r3, [r0, #57]	; 0x39
 c007ea4:	e5c0303a 	strb	r3, [r0, #58]	; 0x3a
 c007ea8:	e5c0303b 	strb	r3, [r0, #59]	; 0x3b
 c007eac:	e5c0303c 	strb	r3, [r0, #60]	; 0x3c
 c007eb0:	e5c0303d 	strb	r3, [r0, #61]	; 0x3d
 c007eb4:	e5c0303e 	strb	r3, [r0, #62]	; 0x3e
 c007eb8:	e5c0303f 	strb	r3, [r0, #63]	; 0x3f
 c007ebc:	eaffffa2 	b	c007d4c <init_table+0x9c>

0c007ec0 <ficha_valida>:
char ficha_valida(char tablero[][DIM], char f, char c, int *posicion_valida){
    char ficha;
    // ficha = tablero[f][c];
    // no puede accederse a tablero[f][c]
    // ya que algún índice puede ser negativo
    if ((f < DIM) && (f >= 0) && (c < DIM) && (c >= 0) && (tablero[f][c] != CASILLA_VACIA)){
 c007ec0:	e3520007 	cmp	r2, #7
 c007ec4:	93510007 	cmpls	r1, #7
 c007ec8:	8a000003 	bhi	c007edc <ficha_valida+0x1c>
 c007ecc:	e0801181 	add	r1, r0, r1, lsl #3
 c007ed0:	e7d10002 	ldrb	r0, [r1, r2]
 c007ed4:	e3500000 	cmp	r0, #0
 c007ed8:	1a000002 	bne	c007ee8 <ficha_valida+0x28>
        *posicion_valida = 1;
        ficha = tablero[f][c];
    }else{
        *posicion_valida = 0;
 c007edc:	e3a00000 	mov	r0, #0
 c007ee0:	e5830000 	str	r0, [r3]
        ficha = CASILLA_VACIA;
    }
    return ficha;
}
 c007ee4:	e12fff1e 	bx	lr
    char ficha;
    // ficha = tablero[f][c];
    // no puede accederse a tablero[f][c]
    // ya que algún índice puede ser negativo
    if ((f < DIM) && (f >= 0) && (c < DIM) && (c >= 0) && (tablero[f][c] != CASILLA_VACIA)){
        *posicion_valida = 1;
 c007ee8:	e3a0c001 	mov	ip, #1
 c007eec:	e583c000 	str	ip, [r3]
        ficha = tablero[f][c];
 c007ef0:	e7d10002 	ldrb	r0, [r1, r2]
 c007ef4:	e12fff1e 	bx	lr

0c007ef8 <patron_volteo>:
// color indica el color de la pieza que se acaba de colocar
// la función devuelve PATRON_ENCONTRADO (1) si encuentra patrón y NO_HAY_PATRON (0) en caso contrario
// FA y CA son la fila y columna a analizar
// longitud es un parámetro por referencia. Sirve para saber la longitud del patrón que se está analizando.
//          Se usa para saber cuantas fichas habría que voltear
int patron_volteo(char tablero[][DIM], int *longitud, char FA, char CA, char SF, char SC, char color){
 c007ef8:	e92d01f0 	push	{r4, r5, r6, r7, r8}
 c007efc:	e5dd4014 	ldrb	r4, [sp, #20]
 c007f00:	e5ddc018 	ldrb	ip, [sp, #24]
	int posicion_valida; // indica si la posición es valida y contiene una ficha de algún jugador
	char casilla;   // casilla es la casilla que se lee del tablero

	FA = FA + SF;
 c007f04:	e0842002 	add	r2, r4, r2
	CA = CA + SC;
 c007f08:	e08c3003 	add	r3, ip, r3
//          Se usa para saber cuantas fichas habría que voltear
int patron_volteo(char tablero[][DIM], int *longitud, char FA, char CA, char SF, char SC, char color){
	int posicion_valida; // indica si la posición es valida y contiene una ficha de algún jugador
	char casilla;   // casilla es la casilla que se lee del tablero

	FA = FA + SF;
 c007f0c:	e20220ff 	and	r2, r2, #255	; 0xff
	CA = CA + SC;
 c007f10:	e20330ff 	and	r3, r3, #255	; 0xff
char ficha_valida(char tablero[][DIM], char f, char c, int *posicion_valida){
    char ficha;
    // ficha = tablero[f][c];
    // no puede accederse a tablero[f][c]
    // ya que algún índice puede ser negativo
    if ((f < DIM) && (f >= 0) && (c < DIM) && (c >= 0) && (tablero[f][c] != CASILLA_VACIA)){
 c007f14:	e3530007 	cmp	r3, #7
 c007f18:	93520007 	cmpls	r2, #7
 c007f1c:	83a05000 	movhi	r5, #0
 c007f20:	93a05001 	movls	r5, #1
// color indica el color de la pieza que se acaba de colocar
// la función devuelve PATRON_ENCONTRADO (1) si encuentra patrón y NO_HAY_PATRON (0) en caso contrario
// FA y CA son la fila y columna a analizar
// longitud es un parámetro por referencia. Sirve para saber la longitud del patrón que se está analizando.
//          Se usa para saber cuantas fichas habría que voltear
int patron_volteo(char tablero[][DIM], int *longitud, char FA, char CA, char SF, char SC, char color){
 c007f24:	e5dd701c 	ldrb	r7, [sp, #28]
char ficha_valida(char tablero[][DIM], char f, char c, int *posicion_valida){
    char ficha;
    // ficha = tablero[f][c];
    // no puede accederse a tablero[f][c]
    // ya que algún índice puede ser negativo
    if ((f < DIM) && (f >= 0) && (c < DIM) && (c >= 0) && (tablero[f][c] != CASILLA_VACIA)){
 c007f28:	8a000016 	bhi	c007f88 <patron_volteo+0x90>
 c007f2c:	e0805182 	add	r5, r0, r2, lsl #3
 c007f30:	e7d56003 	ldrb	r6, [r5, r3]
 c007f34:	e3560000 	cmp	r6, #0
        *posicion_valida = 1;
 c007f38:	01a05006 	moveq	r5, r6
 c007f3c:	13a05001 	movne	r5, #1
	char casilla;   // casilla es la casilla que se lee del tablero

	FA = FA + SF;
	CA = CA + SC;
	casilla = ficha_valida(tablero, FA, CA, &posicion_valida);
	while ((posicion_valida == 1) && (casilla != color)){
 c007f40:	e20550ff 	and	r5, r5, #255	; 0xff
 c007f44:	e1560007 	cmp	r6, r7
 c007f48:	03a08000 	moveq	r8, #0
 c007f4c:	12058001 	andne	r8, r5, #1
char ficha_valida(char tablero[][DIM], char f, char c, int *posicion_valida){
    char ficha;
    // ficha = tablero[f][c];
    // no puede accederse a tablero[f][c]
    // ya que algún índice puede ser negativo
    if ((f < DIM) && (f >= 0) && (c < DIM) && (c >= 0) && (tablero[f][c] != CASILLA_VACIA)){
 c007f50:	e0822004 	add	r2, r2, r4
 c007f54:	e083300c 	add	r3, r3, ip
	char casilla;   // casilla es la casilla que se lee del tablero

	FA = FA + SF;
	CA = CA + SC;
	casilla = ficha_valida(tablero, FA, CA, &posicion_valida);
	while ((posicion_valida == 1) && (casilla != color)){
 c007f58:	e3580000 	cmp	r8, #0
char ficha_valida(char tablero[][DIM], char f, char c, int *posicion_valida){
    char ficha;
    // ficha = tablero[f][c];
    // no puede accederse a tablero[f][c]
    // ya que algún índice puede ser negativo
    if ((f < DIM) && (f >= 0) && (c < DIM) && (c >= 0) && (tablero[f][c] != CASILLA_VACIA)){
 c007f5c:	e20220ff 	and	r2, r2, #255	; 0xff
 c007f60:	e20330ff 	and	r3, r3, #255	; 0xff
	char casilla;   // casilla es la casilla que se lee del tablero

	FA = FA + SF;
	CA = CA + SC;
	casilla = ficha_valida(tablero, FA, CA, &posicion_valida);
	while ((posicion_valida == 1) && (casilla != color)){
 c007f64:	0a000009 	beq	c007f90 <patron_volteo+0x98>
	// mientras la casilla está en el tablero, no está vací­a,
	// y es del color rival seguimos buscando el patron de volteo
		FA = FA + SF;
		CA = CA + SC;
		*longitud = *longitud + 1;
 c007f68:	e5916000 	ldr	r6, [r1]
char ficha_valida(char tablero[][DIM], char f, char c, int *posicion_valida){
    char ficha;
    // ficha = tablero[f][c];
    // no puede accederse a tablero[f][c]
    // ya que algún índice puede ser negativo
    if ((f < DIM) && (f >= 0) && (c < DIM) && (c >= 0) && (tablero[f][c] != CASILLA_VACIA)){
 c007f6c:	e3530007 	cmp	r3, #7
 c007f70:	93520007 	cmpls	r2, #7
	while ((posicion_valida == 1) && (casilla != color)){
	// mientras la casilla está en el tablero, no está vací­a,
	// y es del color rival seguimos buscando el patron de volteo
		FA = FA + SF;
		CA = CA + SC;
		*longitud = *longitud + 1;
 c007f74:	e2868001 	add	r8, r6, #1
char ficha_valida(char tablero[][DIM], char f, char c, int *posicion_valida){
    char ficha;
    // ficha = tablero[f][c];
    // no puede accederse a tablero[f][c]
    // ya que algún índice puede ser negativo
    if ((f < DIM) && (f >= 0) && (c < DIM) && (c >= 0) && (tablero[f][c] != CASILLA_VACIA)){
 c007f78:	83a05000 	movhi	r5, #0
 c007f7c:	93a05001 	movls	r5, #1
	while ((posicion_valida == 1) && (casilla != color)){
	// mientras la casilla está en el tablero, no está vací­a,
	// y es del color rival seguimos buscando el patron de volteo
		FA = FA + SF;
		CA = CA + SC;
		*longitud = *longitud + 1;
 c007f80:	e5818000 	str	r8, [r1]
char ficha_valida(char tablero[][DIM], char f, char c, int *posicion_valida){
    char ficha;
    // ficha = tablero[f][c];
    // no puede accederse a tablero[f][c]
    // ya que algún índice puede ser negativo
    if ((f < DIM) && (f >= 0) && (c < DIM) && (c >= 0) && (tablero[f][c] != CASILLA_VACIA)){
 c007f84:	9affffe8 	bls	c007f2c <patron_volteo+0x34>
        *posicion_valida = 1;
        ficha = tablero[f][c];
    }else{
        *posicion_valida = 0;
        ficha = CASILLA_VACIA;
 c007f88:	e1a06005 	mov	r6, r5
 c007f8c:	eaffffeb 	b	c007f40 <patron_volteo+0x48>
		*longitud = *longitud + 1;
		casilla = ficha_valida(tablero, FA, CA, &posicion_valida);
	}
    // si la ultima posición era válida y la ficha es del jugador actual,
    // entonces hemos encontrado el patrón
	if ((posicion_valida == 1) && (casilla == color) && (*longitud >0))
 c007f90:	e1570006 	cmp	r7, r6
 c007f94:	13a05000 	movne	r5, #0
 c007f98:	02055001 	andeq	r5, r5, #1
 c007f9c:	e3550000 	cmp	r5, #0
		return PATRON_ENCONTRADO; // si hay que voltear una ficha o más hemos encontrado el patrón
	else
		return NO_HAY_PATRON; // si no hay que voltear no hay patrón
 c007fa0:	01a00005 	moveq	r0, r5
		*longitud = *longitud + 1;
		casilla = ficha_valida(tablero, FA, CA, &posicion_valida);
	}
    // si la ultima posición era válida y la ficha es del jugador actual,
    // entonces hemos encontrado el patrón
	if ((posicion_valida == 1) && (casilla == color) && (*longitud >0))
 c007fa4:	0a000003 	beq	c007fb8 <patron_volteo+0xc0>
// color indica el color de la pieza que se acaba de colocar
// la función devuelve PATRON_ENCONTRADO (1) si encuentra patrón y NO_HAY_PATRON (0) en caso contrario
// FA y CA son la fila y columna a analizar
// longitud es un parámetro por referencia. Sirve para saber la longitud del patrón que se está analizando.
//          Se usa para saber cuantas fichas habría que voltear
int patron_volteo(char tablero[][DIM], int *longitud, char FA, char CA, char SF, char SC, char color){
 c007fa8:	e5910000 	ldr	r0, [r1]
 c007fac:	e3500000 	cmp	r0, #0
 c007fb0:	d3a00000 	movle	r0, #0
 c007fb4:	c3a00001 	movgt	r0, #1
    // entonces hemos encontrado el patrón
	if ((posicion_valida == 1) && (casilla == color) && (*longitud >0))
		return PATRON_ENCONTRADO; // si hay que voltear una ficha o más hemos encontrado el patrón
	else
		return NO_HAY_PATRON; // si no hay que voltear no hay patrón
}
 c007fb8:	e8bd01f0 	pop	{r4, r5, r6, r7, r8}
 c007fbc:	e12fff1e 	bx	lr

0c007fc0 <voltear>:

/*
 * Voltea N fichas desde (FA,CA) en la dirección (SF,SC) con ficha COLOR.
 */
void voltear(char tablero[][DIM], char FA, char CA, char SF, char SC, int n, char color){
 c007fc0:	e92d07f0 	push	{r4, r5, r6, r7, r8, r9, sl}
 c007fc4:	e24dd01c 	sub	sp, sp, #28
    int i;
    for (i = 0; i < n; i++){
 c007fc8:	e59d603c 	ldr	r6, [sp, #60]	; 0x3c
 c007fcc:	e3560000 	cmp	r6, #0
}

/*
 * Voltea N fichas desde (FA,CA) en la dirección (SF,SC) con ficha COLOR.
 */
void voltear(char tablero[][DIM], char FA, char CA, char SF, char SC, int n, char color){
 c007fd0:	e5dd5038 	ldrb	r5, [sp, #56]	; 0x38
 c007fd4:	e5dd4040 	ldrb	r4, [sp, #64]	; 0x40
    int i;
    for (i = 0; i < n; i++){
 c007fd8:	da00004b 	ble	c00810c <voltear+0x14c>
        FA = FA + SF;
 c007fdc:	e0811003 	add	r1, r1, r3
 c007fe0:	e1a08006 	mov	r8, r6
 c007fe4:	e20110ff 	and	r1, r1, #255	; 0xff
        CA = CA + SC;
 c007fe8:	e0822005 	add	r2, r2, r5
/*
 * Voltea N fichas desde (FA,CA) en la dirección (SF,SC) con ficha COLOR.
 */
void voltear(char tablero[][DIM], char FA, char CA, char SF, char SC, int n, char color){
    int i;
    for (i = 0; i < n; i++){
 c007fec:	e3a0c001 	mov	ip, #1
 c007ff0:	e2466001 	sub	r6, r6, #1
        FA = FA + SF;
        CA = CA + SC;
 c007ff4:	e20220ff 	and	r2, r2, #255	; 0xff
        tablero[FA][CA] = color;
 c007ff8:	e0807181 	add	r7, r0, r1, lsl #3
/*
 * Voltea N fichas desde (FA,CA) en la dirección (SF,SC) con ficha COLOR.
 */
void voltear(char tablero[][DIM], char FA, char CA, char SF, char SC, int n, char color){
    int i;
    for (i = 0; i < n; i++){
 c007ffc:	e15c0008 	cmp	ip, r8
 c008000:	e2066003 	and	r6, r6, #3
        FA = FA + SF;
        CA = CA + SC;
        tablero[FA][CA] = color;
 c008004:	e7c74002 	strb	r4, [r7, r2]
/*
 * Voltea N fichas desde (FA,CA) en la dirección (SF,SC) con ficha COLOR.
 */
void voltear(char tablero[][DIM], char FA, char CA, char SF, char SC, int n, char color){
    int i;
    for (i = 0; i < n; i++){
 c008008:	0a00003f 	beq	c00810c <voltear+0x14c>
 c00800c:	e3560000 	cmp	r6, #0
 c008010:	0a00001b 	beq	c008084 <voltear+0xc4>
 c008014:	e3560001 	cmp	r6, #1
 c008018:	0a00000f 	beq	c00805c <voltear+0x9c>
 c00801c:	e3560002 	cmp	r6, #2
 c008020:	0a000006 	beq	c008040 <voltear+0x80>
        FA = FA + SF;
 c008024:	e0811003 	add	r1, r1, r3
 c008028:	e20110ff 	and	r1, r1, #255	; 0xff
        CA = CA + SC;
 c00802c:	e0826005 	add	r6, r2, r5
        tablero[FA][CA] = color;
 c008030:	e080c181 	add	ip, r0, r1, lsl #3
 */
void voltear(char tablero[][DIM], char FA, char CA, char SF, char SC, int n, char color){
    int i;
    for (i = 0; i < n; i++){
        FA = FA + SF;
        CA = CA + SC;
 c008034:	e20620ff 	and	r2, r6, #255	; 0xff
        tablero[FA][CA] = color;
 c008038:	e7cc4002 	strb	r4, [ip, r2]
/*
 * Voltea N fichas desde (FA,CA) en la dirección (SF,SC) con ficha COLOR.
 */
void voltear(char tablero[][DIM], char FA, char CA, char SF, char SC, int n, char color){
    int i;
    for (i = 0; i < n; i++){
 c00803c:	e3a0c002 	mov	ip, #2
        FA = FA + SF;
 c008040:	e0816003 	add	r6, r1, r3
 c008044:	e20610ff 	and	r1, r6, #255	; 0xff
        CA = CA + SC;
 c008048:	e0822005 	add	r2, r2, r5
 c00804c:	e20220ff 	and	r2, r2, #255	; 0xff
        tablero[FA][CA] = color;
 c008050:	e0807181 	add	r7, r0, r1, lsl #3
 c008054:	e7c74002 	strb	r4, [r7, r2]
/*
 * Voltea N fichas desde (FA,CA) en la dirección (SF,SC) con ficha COLOR.
 */
void voltear(char tablero[][DIM], char FA, char CA, char SF, char SC, int n, char color){
    int i;
    for (i = 0; i < n; i++){
 c008058:	e28cc001 	add	ip, ip, #1
        FA = FA + SF;
        CA = CA + SC;
 c00805c:	e0827005 	add	r7, r2, r5
 c008060:	e20720ff 	and	r2, r7, #255	; 0xff
 * Voltea N fichas desde (FA,CA) en la dirección (SF,SC) con ficha COLOR.
 */
void voltear(char tablero[][DIM], char FA, char CA, char SF, char SC, int n, char color){
    int i;
    for (i = 0; i < n; i++){
        FA = FA + SF;
 c008064:	e0811003 	add	r1, r1, r3
/*
 * Voltea N fichas desde (FA,CA) en la dirección (SF,SC) con ficha COLOR.
 */
void voltear(char tablero[][DIM], char FA, char CA, char SF, char SC, int n, char color){
    int i;
    for (i = 0; i < n; i++){
 c008068:	e59d703c 	ldr	r7, [sp, #60]	; 0x3c
        FA = FA + SF;
 c00806c:	e20110ff 	and	r1, r1, #255	; 0xff
/*
 * Voltea N fichas desde (FA,CA) en la dirección (SF,SC) con ficha COLOR.
 */
void voltear(char tablero[][DIM], char FA, char CA, char SF, char SC, int n, char color){
    int i;
    for (i = 0; i < n; i++){
 c008070:	e28cc001 	add	ip, ip, #1
        FA = FA + SF;
        CA = CA + SC;
        tablero[FA][CA] = color;
 c008074:	e0806181 	add	r6, r0, r1, lsl #3
/*
 * Voltea N fichas desde (FA,CA) en la dirección (SF,SC) con ficha COLOR.
 */
void voltear(char tablero[][DIM], char FA, char CA, char SF, char SC, int n, char color){
    int i;
    for (i = 0; i < n; i++){
 c008078:	e15c0007 	cmp	ip, r7
        FA = FA + SF;
        CA = CA + SC;
        tablero[FA][CA] = color;
 c00807c:	e7c64002 	strb	r4, [r6, r2]
/*
 * Voltea N fichas desde (FA,CA) en la dirección (SF,SC) con ficha COLOR.
 */
void voltear(char tablero[][DIM], char FA, char CA, char SF, char SC, int n, char color){
    int i;
    for (i = 0; i < n; i++){
 c008080:	0a000021 	beq	c00810c <voltear+0x14c>
        FA = FA + SF;
        CA = CA + SC;
 c008084:	e0827005 	add	r7, r2, r5
 c008088:	e20770ff 	and	r7, r7, #255	; 0xff
 * Voltea N fichas desde (FA,CA) en la dirección (SF,SC) con ficha COLOR.
 */
void voltear(char tablero[][DIM], char FA, char CA, char SF, char SC, int n, char color){
    int i;
    for (i = 0; i < n; i++){
        FA = FA + SF;
 c00808c:	e081a003 	add	sl, r1, r3
 c008090:	e20aa0ff 	and	sl, sl, #255	; 0xff
        CA = CA + SC;
 c008094:	e0871005 	add	r1, r7, r5
 c008098:	e20160ff 	and	r6, r1, #255	; 0xff
 * Voltea N fichas desde (FA,CA) en la dirección (SF,SC) con ficha COLOR.
 */
void voltear(char tablero[][DIM], char FA, char CA, char SF, char SC, int n, char color){
    int i;
    for (i = 0; i < n; i++){
        FA = FA + SF;
 c00809c:	e08a8003 	add	r8, sl, r3
 c0080a0:	e20880ff 	and	r8, r8, #255	; 0xff
        CA = CA + SC;
 c0080a4:	e0869005 	add	r9, r6, r5
 * Voltea N fichas desde (FA,CA) en la dirección (SF,SC) con ficha COLOR.
 */
void voltear(char tablero[][DIM], char FA, char CA, char SF, char SC, int n, char color){
    int i;
    for (i = 0; i < n; i++){
        FA = FA + SF;
 c0080a8:	e0882003 	add	r2, r8, r3
        CA = CA + SC;
 c0080ac:	e20990ff 	and	r9, r9, #255	; 0xff
 c0080b0:	e58d6004 	str	r6, [sp, #4]
 * Voltea N fichas desde (FA,CA) en la dirección (SF,SC) con ficha COLOR.
 */
void voltear(char tablero[][DIM], char FA, char CA, char SF, char SC, int n, char color){
    int i;
    for (i = 0; i < n; i++){
        FA = FA + SF;
 c0080b4:	e20220ff 	and	r2, r2, #255	; 0xff
        CA = CA + SC;
 c0080b8:	e0896005 	add	r6, r9, r5
        tablero[FA][CA] = color;
 c0080bc:	e080a18a 	add	sl, r0, sl, lsl #3
 c0080c0:	e58da00c 	str	sl, [sp, #12]
 * Voltea N fichas desde (FA,CA) en la dirección (SF,SC) con ficha COLOR.
 */
void voltear(char tablero[][DIM], char FA, char CA, char SF, char SC, int n, char color){
    int i;
    for (i = 0; i < n; i++){
        FA = FA + SF;
 c0080c4:	e0821003 	add	r1, r2, r3
        CA = CA + SC;
        tablero[FA][CA] = color;
 c0080c8:	e080a182 	add	sl, r0, r2, lsl #3
 */
void voltear(char tablero[][DIM], char FA, char CA, char SF, char SC, int n, char color){
    int i;
    for (i = 0; i < n; i++){
        FA = FA + SF;
        CA = CA + SC;
 c0080cc:	e20620ff 	and	r2, r6, #255	; 0xff
/*
 * Voltea N fichas desde (FA,CA) en la dirección (SF,SC) con ficha COLOR.
 */
void voltear(char tablero[][DIM], char FA, char CA, char SF, char SC, int n, char color){
    int i;
    for (i = 0; i < n; i++){
 c0080d0:	e59d603c 	ldr	r6, [sp, #60]	; 0x3c
 c0080d4:	e28cc004 	add	ip, ip, #4
 c0080d8:	e15c0006 	cmp	ip, r6
        FA = FA + SF;
        CA = CA + SC;
        tablero[FA][CA] = color;
 c0080dc:	e59d600c 	ldr	r6, [sp, #12]
 c0080e0:	e0808188 	add	r8, r0, r8, lsl #3
 c0080e4:	e58d8010 	str	r8, [sp, #16]
 c0080e8:	e7c64007 	strb	r4, [r6, r7]
 c0080ec:	e59d6010 	ldr	r6, [sp, #16]
 c0080f0:	e59d7004 	ldr	r7, [sp, #4]
 * Voltea N fichas desde (FA,CA) en la dirección (SF,SC) con ficha COLOR.
 */
void voltear(char tablero[][DIM], char FA, char CA, char SF, char SC, int n, char color){
    int i;
    for (i = 0; i < n; i++){
        FA = FA + SF;
 c0080f4:	e20110ff 	and	r1, r1, #255	; 0xff
        CA = CA + SC;
        tablero[FA][CA] = color;
 c0080f8:	e0808181 	add	r8, r0, r1, lsl #3
 c0080fc:	e7c64007 	strb	r4, [r6, r7]
 c008100:	e7ca4009 	strb	r4, [sl, r9]
 c008104:	e7c84002 	strb	r4, [r8, r2]
/*
 * Voltea N fichas desde (FA,CA) en la dirección (SF,SC) con ficha COLOR.
 */
void voltear(char tablero[][DIM], char FA, char CA, char SF, char SC, int n, char color){
    int i;
    for (i = 0; i < n; i++){
 c008108:	1affffdd 	bne	c008084 <voltear+0xc4>
        FA = FA + SF;
        CA = CA + SC;
        tablero[FA][CA] = color;
    }
}
 c00810c:	e28dd01c 	add	sp, sp, #28
 c008110:	e8bd07f0 	pop	{r4, r5, r6, r7, r8, r9, sl}
 c008114:	e12fff1e 	bx	lr

0c008118 <actualizar_tablero>:

/*
 * Comprueba si tras un movimiento (f,c) hay que voltear fichas y las voltea.
 */
int actualizar_tablero(char tablero[][DIM], char f, char c, char color){
 c008118:	e1a0c00d 	mov	ip, sp
 c00811c:	e92ddff0 	push	{r4, r5, r6, r7, r8, r9, sl, fp, ip, lr, pc}
 c008120:	e24cb004 	sub	fp, ip, #4
 c008124:	e24dd04c 	sub	sp, sp, #76	; 0x4c
    char SF, SC; // cantidades a sumar para movernos en la dirección que toque
    int i, flip, patron;

    // char vSF[DIM] = {-1,-1, 0, 1, 1, 1, 0,-1};
    // char vSC[DIM] = { 0, 1, 1, 1, 0,-1,-1,-1};
    for (i = 0; i < DIM; i++){ // 0 es Norte, 1 NE, 2 E ...
 c008128:	e3a06000 	mov	r6, #0
}

/*
 * Comprueba si tras un movimiento (f,c) hay que voltear fichas y las voltea.
 */
int actualizar_tablero(char tablero[][DIM], char f, char c, char color){
 c00812c:	e1a07000 	mov	r7, r0
 c008130:	e50b1038 	str	r1, [fp, #-56]	; 0xffffffc8
 c008134:	e50b203c 	str	r2, [fp, #-60]	; 0xffffffc4
 c008138:	e1a08003 	mov	r8, r3
 c00813c:	ea000002 	b	c00814c <actualizar_tablero+0x34>
    char SF, SC; // cantidades a sumar para movernos en la dirección que toque
    int i, flip, patron;

    // char vSF[DIM] = {-1,-1, 0, 1, 1, 1, 0,-1};
    // char vSC[DIM] = { 0, 1, 1, 1, 0,-1,-1,-1};
    for (i = 0; i < DIM; i++){ // 0 es Norte, 1 NE, 2 E ...
 c008140:	e2866001 	add	r6, r6, #1
 c008144:	e3560008 	cmp	r6, #8
 c008148:	0a00006b 	beq	c0082fc <actualizar_tablero+0x1e4>
        SF = vSF[i];
 c00814c:	e59f01b8 	ldr	r0, [pc, #440]	; c00830c <actualizar_tablero+0x1f4>
        SC = vSC[i];
        // flip: numero de fichas a voltear
        flip = 0;
 c008150:	e3a02000 	mov	r2, #0

    // char vSF[DIM] = {-1,-1, 0, 1, 1, 1, 0,-1};
    // char vSC[DIM] = { 0, 1, 1, 1, 0,-1,-1,-1};
    for (i = 0; i < DIM; i++){ // 0 es Norte, 1 NE, 2 E ...
        SF = vSF[i];
        SC = vSC[i];
 c008154:	e2801008 	add	r1, r0, #8
 c008158:	e7d14006 	ldrb	r4, [r1, r6]
    int i, flip, patron;

    // char vSF[DIM] = {-1,-1, 0, 1, 1, 1, 0,-1};
    // char vSC[DIM] = { 0, 1, 1, 1, 0,-1,-1,-1};
    for (i = 0; i < DIM; i++){ // 0 es Norte, 1 NE, 2 E ...
        SF = vSF[i];
 c00815c:	e7d05006 	ldrb	r5, [r0, r6]
        SC = vSC[i];
        // flip: numero de fichas a voltear
        flip = 0;
 c008160:	e50b2030 	str	r2, [fp, #-48]	; 0xffffffd0
        unsigned int t1,t2;
        t1=timer2_leer();
 c008164:	eb000647 	bl	c009a88 <timer2_leer>
        patron = patron_volteo_arm_arm(tablero, &flip, f, c, SF, SC, color);
 c008168:	e24b1030 	sub	r1, fp, #48	; 0x30
 c00816c:	e51b2038 	ldr	r2, [fp, #-56]	; 0xffffffc8
 c008170:	e51b303c 	ldr	r3, [fp, #-60]	; 0xffffffc4
        SF = vSF[i];
        SC = vSC[i];
        // flip: numero de fichas a voltear
        flip = 0;
        unsigned int t1,t2;
        t1=timer2_leer();
 c008174:	e1a0a000 	mov	sl, r0
        patron = patron_volteo_arm_arm(tablero, &flip, f, c, SF, SC, color);
 c008178:	e1a00007 	mov	r0, r7
 c00817c:	e58d5000 	str	r5, [sp]
 c008180:	e98d0110 	stmib	sp, {r4, r8}
 c008184:	ebffe6e1 	bl	c001d10 <patron_volteo_arm_arm>
 c008188:	e1a09000 	mov	r9, r0
        t2=timer2_leer();
 c00818c:	eb00063d 	bl	c009a88 <timer2_leer>
        LCD_tvolteo(t2-t1);
 c008190:	e06a0000 	rsb	r0, sl, r0
 c008194:	ebfffc5f 	bl	c007318 <LCD_tvolteo>
        //printf("Flip: %d \n", flip);
        if (patron == PATRON_ENCONTRADO ){
 c008198:	e3590001 	cmp	r9, #1
 c00819c:	1affffe7 	bne	c008140 <actualizar_tablero+0x28>
            voltear(tablero, f, c, SF, SC, flip, color);
 c0081a0:	e51b2030 	ldr	r2, [fp, #-48]	; 0xffffffd0
/*
 * Voltea N fichas desde (FA,CA) en la dirección (SF,SC) con ficha COLOR.
 */
void voltear(char tablero[][DIM], char FA, char CA, char SF, char SC, int n, char color){
    int i;
    for (i = 0; i < n; i++){
 c0081a4:	e3520000 	cmp	r2, #0
 c0081a8:	daffffe4 	ble	c008140 <actualizar_tablero+0x28>
        FA = FA + SF;
 c0081ac:	e51b1038 	ldr	r1, [fp, #-56]	; 0xffffffc8
        CA = CA + SC;
 c0081b0:	e51be03c 	ldr	lr, [fp, #-60]	; 0xffffffc4
 * Voltea N fichas desde (FA,CA) en la dirección (SF,SC) con ficha COLOR.
 */
void voltear(char tablero[][DIM], char FA, char CA, char SF, char SC, int n, char color){
    int i;
    for (i = 0; i < n; i++){
        FA = FA + SF;
 c0081b4:	e0813005 	add	r3, r1, r5
        CA = CA + SC;
 c0081b8:	e08ea004 	add	sl, lr, r4
 * Voltea N fichas desde (FA,CA) en la dirección (SF,SC) con ficha COLOR.
 */
void voltear(char tablero[][DIM], char FA, char CA, char SF, char SC, int n, char color){
    int i;
    for (i = 0; i < n; i++){
        FA = FA + SF;
 c0081bc:	e20330ff 	and	r3, r3, #255	; 0xff
        CA = CA + SC;
 c0081c0:	e20a10ff 	and	r1, sl, #255	; 0xff
 c0081c4:	e242c001 	sub	ip, r2, #1
        tablero[FA][CA] = color;
 c0081c8:	e087a183 	add	sl, r7, r3, lsl #3
/*
 * Voltea N fichas desde (FA,CA) en la dirección (SF,SC) con ficha COLOR.
 */
void voltear(char tablero[][DIM], char FA, char CA, char SF, char SC, int n, char color){
    int i;
    for (i = 0; i < n; i++){
 c0081cc:	e1590002 	cmp	r9, r2
 c0081d0:	e1a00009 	mov	r0, r9
 c0081d4:	e20cc003 	and	ip, ip, #3
        FA = FA + SF;
        CA = CA + SC;
        tablero[FA][CA] = color;
 c0081d8:	e7ca8001 	strb	r8, [sl, r1]
/*
 * Voltea N fichas desde (FA,CA) en la dirección (SF,SC) con ficha COLOR.
 */
void voltear(char tablero[][DIM], char FA, char CA, char SF, char SC, int n, char color){
    int i;
    for (i = 0; i < n; i++){
 c0081dc:	0affffd7 	beq	c008140 <actualizar_tablero+0x28>
 c0081e0:	e35c0000 	cmp	ip, #0
 c0081e4:	0a00001a 	beq	c008254 <actualizar_tablero+0x13c>
 c0081e8:	e35c0001 	cmp	ip, #1
 c0081ec:	0a00000f 	beq	c008230 <actualizar_tablero+0x118>
 c0081f0:	e35c0002 	cmp	ip, #2
 c0081f4:	0a000006 	beq	c008214 <actualizar_tablero+0xfc>
        FA = FA + SF;
 c0081f8:	e0833005 	add	r3, r3, r5
 c0081fc:	e20330ff 	and	r3, r3, #255	; 0xff
        CA = CA + SC;
 c008200:	e081c004 	add	ip, r1, r4
        tablero[FA][CA] = color;
 c008204:	e0870183 	add	r0, r7, r3, lsl #3
 */
void voltear(char tablero[][DIM], char FA, char CA, char SF, char SC, int n, char color){
    int i;
    for (i = 0; i < n; i++){
        FA = FA + SF;
        CA = CA + SC;
 c008208:	e20c10ff 	and	r1, ip, #255	; 0xff
        tablero[FA][CA] = color;
 c00820c:	e7c08001 	strb	r8, [r0, r1]
/*
 * Voltea N fichas desde (FA,CA) en la dirección (SF,SC) con ficha COLOR.
 */
void voltear(char tablero[][DIM], char FA, char CA, char SF, char SC, int n, char color){
    int i;
    for (i = 0; i < n; i++){
 c008210:	e3a00002 	mov	r0, #2
        FA = FA + SF;
 c008214:	e083c005 	add	ip, r3, r5
 c008218:	e20c30ff 	and	r3, ip, #255	; 0xff
        CA = CA + SC;
 c00821c:	e0811004 	add	r1, r1, r4
 c008220:	e20110ff 	and	r1, r1, #255	; 0xff
        tablero[FA][CA] = color;
 c008224:	e087e183 	add	lr, r7, r3, lsl #3
 c008228:	e7ce8001 	strb	r8, [lr, r1]
/*
 * Voltea N fichas desde (FA,CA) en la dirección (SF,SC) con ficha COLOR.
 */
void voltear(char tablero[][DIM], char FA, char CA, char SF, char SC, int n, char color){
    int i;
    for (i = 0; i < n; i++){
 c00822c:	e2800001 	add	r0, r0, #1
        FA = FA + SF;
 c008230:	e0833005 	add	r3, r3, r5
 c008234:	e20330ff 	and	r3, r3, #255	; 0xff
        CA = CA + SC;
 c008238:	e0811004 	add	r1, r1, r4
/*
 * Voltea N fichas desde (FA,CA) en la dirección (SF,SC) con ficha COLOR.
 */
void voltear(char tablero[][DIM], char FA, char CA, char SF, char SC, int n, char color){
    int i;
    for (i = 0; i < n; i++){
 c00823c:	e2800001 	add	r0, r0, #1
        FA = FA + SF;
        CA = CA + SC;
 c008240:	e20110ff 	and	r1, r1, #255	; 0xff
        tablero[FA][CA] = color;
 c008244:	e087e183 	add	lr, r7, r3, lsl #3
/*
 * Voltea N fichas desde (FA,CA) en la dirección (SF,SC) con ficha COLOR.
 */
void voltear(char tablero[][DIM], char FA, char CA, char SF, char SC, int n, char color){
    int i;
    for (i = 0; i < n; i++){
 c008248:	e1500002 	cmp	r0, r2
        FA = FA + SF;
        CA = CA + SC;
        tablero[FA][CA] = color;
 c00824c:	e7ce8001 	strb	r8, [lr, r1]
/*
 * Voltea N fichas desde (FA,CA) en la dirección (SF,SC) con ficha COLOR.
 */
void voltear(char tablero[][DIM], char FA, char CA, char SF, char SC, int n, char color){
    int i;
    for (i = 0; i < n; i++){
 c008250:	0affffba 	beq	c008140 <actualizar_tablero+0x28>
 c008254:	e50b204c 	str	r2, [fp, #-76]	; 0xffffffb4
 c008258:	e50b6050 	str	r6, [fp, #-80]	; 0xffffffb0
        FA = FA + SF;
 c00825c:	e083a005 	add	sl, r3, r5
 c008260:	e20aa0ff 	and	sl, sl, #255	; 0xff
 c008264:	e08a2005 	add	r2, sl, r5
        CA = CA + SC;
 c008268:	e0816004 	add	r6, r1, r4
 c00826c:	e20610ff 	and	r1, r6, #255	; 0xff
        tablero[FA][CA] = color;
 c008270:	e087a18a 	add	sl, r7, sl, lsl #3
 * Voltea N fichas desde (FA,CA) en la dirección (SF,SC) con ficha COLOR.
 */
void voltear(char tablero[][DIM], char FA, char CA, char SF, char SC, int n, char color){
    int i;
    for (i = 0; i < n; i++){
        FA = FA + SF;
 c008274:	e20260ff 	and	r6, r2, #255	; 0xff
        CA = CA + SC;
        tablero[FA][CA] = color;
 c008278:	e50ba040 	str	sl, [fp, #-64]	; 0xffffffc0
 * Voltea N fichas desde (FA,CA) en la dirección (SF,SC) con ficha COLOR.
 */
void voltear(char tablero[][DIM], char FA, char CA, char SF, char SC, int n, char color){
    int i;
    for (i = 0; i < n; i++){
        FA = FA + SF;
 c00827c:	e086c005 	add	ip, r6, r5
/*
 * Voltea N fichas desde (FA,CA) en la dirección (SF,SC) con ficha COLOR.
 */
void voltear(char tablero[][DIM], char FA, char CA, char SF, char SC, int n, char color){
    int i;
    for (i = 0; i < n; i++){
 c008280:	e51ba04c 	ldr	sl, [fp, #-76]	; 0xffffffb4
        FA = FA + SF;
        CA = CA + SC;
 c008284:	e081e004 	add	lr, r1, r4
 c008288:	e50b1058 	str	r1, [fp, #-88]	; 0xffffffa8
 * Voltea N fichas desde (FA,CA) en la dirección (SF,SC) con ficha COLOR.
 */
void voltear(char tablero[][DIM], char FA, char CA, char SF, char SC, int n, char color){
    int i;
    for (i = 0; i < n; i++){
        FA = FA + SF;
 c00828c:	e20c20ff 	and	r2, ip, #255	; 0xff
        CA = CA + SC;
 c008290:	e20ee0ff 	and	lr, lr, #255	; 0xff
/*
 * Voltea N fichas desde (FA,CA) en la dirección (SF,SC) con ficha COLOR.
 */
void voltear(char tablero[][DIM], char FA, char CA, char SF, char SC, int n, char color){
    int i;
    for (i = 0; i < n; i++){
 c008294:	e2800004 	add	r0, r0, #4
        FA = FA + SF;
        CA = CA + SC;
        tablero[FA][CA] = color;
 c008298:	e0871182 	add	r1, r7, r2, lsl #3
 * Voltea N fichas desde (FA,CA) en la dirección (SF,SC) con ficha COLOR.
 */
void voltear(char tablero[][DIM], char FA, char CA, char SF, char SC, int n, char color){
    int i;
    for (i = 0; i < n; i++){
        FA = FA + SF;
 c00829c:	e0823005 	add	r3, r2, r5
        CA = CA + SC;
 c0082a0:	e08e9004 	add	r9, lr, r4
        tablero[FA][CA] = color;
 c0082a4:	e51b2058 	ldr	r2, [fp, #-88]	; 0xffffffa8
/*
 * Voltea N fichas desde (FA,CA) en la dirección (SF,SC) con ficha COLOR.
 */
void voltear(char tablero[][DIM], char FA, char CA, char SF, char SC, int n, char color){
    int i;
    for (i = 0; i < n; i++){
 c0082a8:	e150000a 	cmp	r0, sl
        FA = FA + SF;
        CA = CA + SC;
        tablero[FA][CA] = color;
 c0082ac:	e51ba040 	ldr	sl, [fp, #-64]	; 0xffffffc0
 */
void voltear(char tablero[][DIM], char FA, char CA, char SF, char SC, int n, char color){
    int i;
    for (i = 0; i < n; i++){
        FA = FA + SF;
        CA = CA + SC;
 c0082b0:	e20990ff 	and	r9, r9, #255	; 0xff
        tablero[FA][CA] = color;
 c0082b4:	e0876186 	add	r6, r7, r6, lsl #3
 c0082b8:	e50b6044 	str	r6, [fp, #-68]	; 0xffffffbc
 c0082bc:	e50b1060 	str	r1, [fp, #-96]	; 0xffffffa0
 */
void voltear(char tablero[][DIM], char FA, char CA, char SF, char SC, int n, char color){
    int i;
    for (i = 0; i < n; i++){
        FA = FA + SF;
        CA = CA + SC;
 c0082c0:	e089c004 	add	ip, r9, r4
        tablero[FA][CA] = color;
 c0082c4:	e7ca8002 	strb	r8, [sl, r2]
 */
void voltear(char tablero[][DIM], char FA, char CA, char SF, char SC, int n, char color){
    int i;
    for (i = 0; i < n; i++){
        FA = FA + SF;
        CA = CA + SC;
 c0082c8:	e20c10ff 	and	r1, ip, #255	; 0xff
        tablero[FA][CA] = color;
 c0082cc:	e51bc044 	ldr	ip, [fp, #-68]	; 0xffffffbc
 c0082d0:	e7cc800e 	strb	r8, [ip, lr]
 c0082d4:	e51b2060 	ldr	r2, [fp, #-96]	; 0xffffffa0
 * Voltea N fichas desde (FA,CA) en la dirección (SF,SC) con ficha COLOR.
 */
void voltear(char tablero[][DIM], char FA, char CA, char SF, char SC, int n, char color){
    int i;
    for (i = 0; i < n; i++){
        FA = FA + SF;
 c0082d8:	e20330ff 	and	r3, r3, #255	; 0xff
        CA = CA + SC;
        tablero[FA][CA] = color;
 c0082dc:	e0876183 	add	r6, r7, r3, lsl #3
 c0082e0:	e7c28009 	strb	r8, [r2, r9]
 c0082e4:	e7c68001 	strb	r8, [r6, r1]
/*
 * Voltea N fichas desde (FA,CA) en la dirección (SF,SC) con ficha COLOR.
 */
void voltear(char tablero[][DIM], char FA, char CA, char SF, char SC, int n, char color){
    int i;
    for (i = 0; i < n; i++){
 c0082e8:	1affffdb 	bne	c00825c <actualizar_tablero+0x144>
 c0082ec:	e51b6050 	ldr	r6, [fp, #-80]	; 0xffffffb0
    char SF, SC; // cantidades a sumar para movernos en la dirección que toque
    int i, flip, patron;

    // char vSF[DIM] = {-1,-1, 0, 1, 1, 1, 0,-1};
    // char vSC[DIM] = { 0, 1, 1, 1, 0,-1,-1,-1};
    for (i = 0; i < DIM; i++){ // 0 es Norte, 1 NE, 2 E ...
 c0082f0:	e2866001 	add	r6, r6, #1
 c0082f4:	e3560008 	cmp	r6, #8
 c0082f8:	1affff93 	bne	c00814c <actualizar_tablero+0x34>
        if (patron == PATRON_ENCONTRADO ){
            voltear(tablero, f, c, SF, SC, flip, color);
        }
    }
    return 0;
}
 c0082fc:	e3a00000 	mov	r0, #0
 c008300:	e24bd028 	sub	sp, fp, #40	; 0x28
 c008304:	e89d6ff0 	ldm	sp, {r4, r5, r6, r7, r8, r9, sl, fp, sp, lr}
 c008308:	e12fff1e 	bx	lr
 c00830c:	0c00ccd8 	.word	0x0c00ccd8

0c008310 <elegir_mov>:
/*
 * Recorre el tablero comprobando en cada posición si se puede mover.
 * Entre los posibles movimientos compara posiciones y elige la mejor.
 * Devuelve solución en f y c.
 */
int elegir_mov(char candidatas[][DIM], char tablero[][DIM], char *f, char *c){
 c008310:	e1a0c00d 	mov	ip, sp
 c008314:	e92ddff0 	push	{r4, r5, r6, r7, r8, r9, sl, fp, ip, lr, pc}
 c008318:	e24cb004 	sub	fp, ip, #4
 c00831c:	e24dd044 	sub	sp, sp, #68	; 0x44
    int patron, longitud;
    char SF, SC; // cantidades a sumar para movernos en la dirección que toque

    // Recorremos el tablero comprobando dónde podemos mover
    // Comparamos la puntuación de los movimientos encontrados y nos quedamos con el mejor
    for (i=0; i<DIM; i++){
 c008320:	e3a08000 	mov	r8, #0
/*
 * Recorre el tablero comprobando en cada posición si se puede mover.
 * Entre los posibles movimientos compara posiciones y elige la mejor.
 * Devuelve solución en f y c.
 */
int elegir_mov(char candidatas[][DIM], char tablero[][DIM], char *f, char *c){
 c008324:	e50b2050 	str	r2, [fp, #-80]	; 0xffffffb0
    int i, j, k, found;
    int mf = -1; // almacena la fila del mejor movimiento encontrado
 c008328:	e3e02000 	mvn	r2, #0
/*
 * Recorre el tablero comprobando en cada posición si se puede mover.
 * Entre los posibles movimientos compara posiciones y elige la mejor.
 * Devuelve solución en f y c.
 */
int elegir_mov(char candidatas[][DIM], char tablero[][DIM], char *f, char *c){
 c00832c:	e50b1038 	str	r1, [fp, #-56]	; 0xffffffc8
 c008330:	e50b3054 	str	r3, [fp, #-84]	; 0xffffffac
    int i, j, k, found;
    int mf = -1; // almacena la fila del mejor movimiento encontrado
    int mc;      // almacena la columna del mejor movimiento encontrado
    char mejor = 0; // almacena el mejor valor encontrado
 c008334:	e50b803c 	str	r8, [fp, #-60]	; 0xffffffc4
 * Entre los posibles movimientos compara posiciones y elige la mejor.
 * Devuelve solución en f y c.
 */
int elegir_mov(char candidatas[][DIM], char tablero[][DIM], char *f, char *c){
    int i, j, k, found;
    int mf = -1; // almacena la fila del mejor movimiento encontrado
 c008338:	e50b2048 	str	r2, [fp, #-72]	; 0xffffffb8
                        t2=timer2_leer();
                        LCD_tvolteo(t2-t1);
                        //  //printf("%d ", patron);
                        if (patron == PATRON_ENCONTRADO){
                            found = 1;
                            if (tabla_valor[i][j] > mejor){
 c00833c:	e1a07000 	mov	r7, r0
/*
 * Recorre el tablero comprobando en cada posición si se puede mover.
 * Entre los posibles movimientos compara posiciones y elige la mejor.
 * Devuelve solución en f y c.
 */
int elegir_mov(char candidatas[][DIM], char tablero[][DIM], char *f, char *c){
 c008340:	e51b2038 	ldr	r2, [fp, #-56]	; 0xffffffc8
 c008344:	e59fc32c 	ldr	ip, [pc, #812]	; c008678 <elegir_mov+0x368>
 c008348:	e1a01188 	lsl	r1, r8, #3
 c00834c:	e0820001 	add	r0, r2, r1
 c008350:	e08c5001 	add	r5, ip, r1
 c008354:	e3a04000 	mov	r4, #0
 c008358:	e50b0044 	str	r0, [fp, #-68]	; 0xffffffbc
 c00835c:	e50b5040 	str	r5, [fp, #-64]	; 0xffffffc0
 c008360:	ea000002 	b	c008370 <elegir_mov+0x60>
    char SF, SC; // cantidades a sumar para movernos en la dirección que toque

    // Recorremos el tablero comprobando dónde podemos mover
    // Comparamos la puntuación de los movimientos encontrados y nos quedamos con el mejor
    for (i=0; i<DIM; i++){
        for (j=0; j<DIM; j++){   // indica en qué casillas quizá se pueda mover
 c008364:	e2844001 	add	r4, r4, #1
 c008368:	e3540008 	cmp	r4, #8
 c00836c:	0a0000b3 	beq	c008640 <elegir_mov+0x330>
            if (candidatas[i][j] == SI){
 c008370:	e7d75004 	ldrb	r5, [r7, r4]
 c008374:	e3550001 	cmp	r5, #1
 c008378:	1afffff9 	bne	c008364 <elegir_mov+0x54>
                if (tablero[i][j] == CASILLA_VACIA){
 c00837c:	e51b3044 	ldr	r3, [fp, #-68]	; 0xffffffbc
 c008380:	e7d36004 	ldrb	r6, [r3, r4]
 c008384:	e3560000 	cmp	r6, #0
 c008388:	1afffff5 	bne	c008364 <elegir_mov+0x54>
                    while ((found == 0) && (k < DIM)){
                        SF = vSF[k];    // k representa la dirección que miramos
                        SC = vSC[k];    // 1 es norte, 2 NE, 3 E ...

                        // nos dice qué hay que voltear en cada dirección
                        longitud = 0;
 c00838c:	e50b6030 	str	r6, [fp, #-48]	; 0xffffffd0
                        unsigned int t1,t2;
                        t1=timer2_leer();
 c008390:	eb0005bc 	bl	c009a88 <timer2_leer>
    // Recorremos el tablero comprobando dónde podemos mover
    // Comparamos la puntuación de los movimientos encontrados y nos quedamos con el mejor
    for (i=0; i<DIM; i++){
        for (j=0; j<DIM; j++){   // indica en qué casillas quizá se pueda mover
            if (candidatas[i][j] == SI){
                if (tablero[i][j] == CASILLA_VACIA){
 c008394:	e208a0ff 	and	sl, r8, #255	; 0xff
 c008398:	e20490ff 	and	r9, r4, #255	; 0xff
                        SC = vSC[k];    // 1 es norte, 2 NE, 3 E ...

                        // nos dice qué hay que voltear en cada dirección
                        longitud = 0;
                        unsigned int t1,t2;
                        t1=timer2_leer();
 c00839c:	e1a0c000 	mov	ip, r0
                        patron = patron_volteo_arm_arm(tablero, &longitud, i, j, SF, SC, FICHA_BLANCA);
 c0083a0:	e3a0e0ff 	mov	lr, #255	; 0xff
 c0083a4:	e24b1030 	sub	r1, fp, #48	; 0x30
 c0083a8:	e1a0200a 	mov	r2, sl
 c0083ac:	e1a03009 	mov	r3, r9
 c0083b0:	e51b0038 	ldr	r0, [fp, #-56]	; 0xffffffc8
 c0083b4:	e58de000 	str	lr, [sp]
 c0083b8:	e50bc058 	str	ip, [fp, #-88]	; 0xffffffa8
 c0083bc:	e58d6004 	str	r6, [sp, #4]
 c0083c0:	e58d5008 	str	r5, [sp, #8]
 c0083c4:	ebffe651 	bl	c001d10 <patron_volteo_arm_arm>
                        t2=timer2_leer();
 c0083c8:	e50b005c 	str	r0, [fp, #-92]	; 0xffffffa4
 c0083cc:	eb0005ad 	bl	c009a88 <timer2_leer>
                        LCD_tvolteo(t2-t1);
 c0083d0:	e51bc058 	ldr	ip, [fp, #-88]	; 0xffffffa8
 c0083d4:	e06c0000 	rsb	r0, ip, r0
 c0083d8:	ebfffbce 	bl	c007318 <LCD_tvolteo>
                        //  //printf("%d ", patron);
                        if (patron == PATRON_ENCONTRADO){
 c0083dc:	e51b005c 	ldr	r0, [fp, #-92]	; 0xffffffa4
 c0083e0:	e3500001 	cmp	r0, #1
 c0083e4:	0a00008b 	beq	c008618 <elegir_mov+0x308>
                    while ((found == 0) && (k < DIM)){
                        SF = vSF[k];    // k representa la dirección que miramos
                        SC = vSC[k];    // 1 es norte, 2 NE, 3 E ...

                        // nos dice qué hay que voltear en cada dirección
                        longitud = 0;
 c0083e8:	e50b6030 	str	r6, [fp, #-48]	; 0xffffffd0
                        unsigned int t1,t2;
                        t1=timer2_leer();
 c0083ec:	eb0005a5 	bl	c009a88 <timer2_leer>
                        patron = patron_volteo_arm_arm(tablero, &longitud, i, j, SF, SC, FICHA_BLANCA);
 c0083f0:	e24b1030 	sub	r1, fp, #48	; 0x30
                        SC = vSC[k];    // 1 es norte, 2 NE, 3 E ...

                        // nos dice qué hay que voltear en cada dirección
                        longitud = 0;
                        unsigned int t1,t2;
                        t1=timer2_leer();
 c0083f4:	e1a0c000 	mov	ip, r0
                        patron = patron_volteo_arm_arm(tablero, &longitud, i, j, SF, SC, FICHA_BLANCA);
 c0083f8:	e3a0e0ff 	mov	lr, #255	; 0xff
 c0083fc:	e1a0200a 	mov	r2, sl
 c008400:	e1a03009 	mov	r3, r9
 c008404:	e51b0038 	ldr	r0, [fp, #-56]	; 0xffffffc8
 c008408:	e58de000 	str	lr, [sp]
 c00840c:	e50bc058 	str	ip, [fp, #-88]	; 0xffffffa8
 c008410:	e58d5004 	str	r5, [sp, #4]
 c008414:	e58d5008 	str	r5, [sp, #8]
 c008418:	ebffe63c 	bl	c001d10 <patron_volteo_arm_arm>
                        t2=timer2_leer();
 c00841c:	e50b005c 	str	r0, [fp, #-92]	; 0xffffffa4
 c008420:	eb000598 	bl	c009a88 <timer2_leer>
                        LCD_tvolteo(t2-t1);
 c008424:	e51b2058 	ldr	r2, [fp, #-88]	; 0xffffffa8
 c008428:	e0620000 	rsb	r0, r2, r0
 c00842c:	ebfffbb9 	bl	c007318 <LCD_tvolteo>
                        //  //printf("%d ", patron);
                        if (patron == PATRON_ENCONTRADO){
 c008430:	e51b105c 	ldr	r1, [fp, #-92]	; 0xffffffa4
 c008434:	e3510001 	cmp	r1, #1
 c008438:	0a000076 	beq	c008618 <elegir_mov+0x308>
                    while ((found == 0) && (k < DIM)){
                        SF = vSF[k];    // k representa la dirección que miramos
                        SC = vSC[k];    // 1 es norte, 2 NE, 3 E ...

                        // nos dice qué hay que voltear en cada dirección
                        longitud = 0;
 c00843c:	e50b6030 	str	r6, [fp, #-48]	; 0xffffffd0
                        unsigned int t1,t2;
                        t1=timer2_leer();
 c008440:	eb000590 	bl	c009a88 <timer2_leer>
                        patron = patron_volteo_arm_arm(tablero, &longitud, i, j, SF, SC, FICHA_BLANCA);
 c008444:	e1a03009 	mov	r3, r9
                        SC = vSC[k];    // 1 es norte, 2 NE, 3 E ...

                        // nos dice qué hay que voltear en cada dirección
                        longitud = 0;
                        unsigned int t1,t2;
                        t1=timer2_leer();
 c008448:	e1a0c000 	mov	ip, r0
                        patron = patron_volteo_arm_arm(tablero, &longitud, i, j, SF, SC, FICHA_BLANCA);
 c00844c:	e24b1030 	sub	r1, fp, #48	; 0x30
 c008450:	e1a0200a 	mov	r2, sl
 c008454:	e51b0038 	ldr	r0, [fp, #-56]	; 0xffffffc8
 c008458:	e50bc058 	str	ip, [fp, #-88]	; 0xffffffa8
 c00845c:	e58d6000 	str	r6, [sp]
 c008460:	e58d5004 	str	r5, [sp, #4]
 c008464:	e58d5008 	str	r5, [sp, #8]
 c008468:	ebffe628 	bl	c001d10 <patron_volteo_arm_arm>
                        t2=timer2_leer();
 c00846c:	e50b005c 	str	r0, [fp, #-92]	; 0xffffffa4
 c008470:	eb000584 	bl	c009a88 <timer2_leer>
                        LCD_tvolteo(t2-t1);
 c008474:	e51b1058 	ldr	r1, [fp, #-88]	; 0xffffffa8
 c008478:	e0610000 	rsb	r0, r1, r0
 c00847c:	ebfffba5 	bl	c007318 <LCD_tvolteo>
                        //  //printf("%d ", patron);
                        if (patron == PATRON_ENCONTRADO){
 c008480:	e51b305c 	ldr	r3, [fp, #-92]	; 0xffffffa4
 c008484:	e3530001 	cmp	r3, #1
 c008488:	0a000062 	beq	c008618 <elegir_mov+0x308>
                    while ((found == 0) && (k < DIM)){
                        SF = vSF[k];    // k representa la dirección que miramos
                        SC = vSC[k];    // 1 es norte, 2 NE, 3 E ...

                        // nos dice qué hay que voltear en cada dirección
                        longitud = 0;
 c00848c:	e50b6030 	str	r6, [fp, #-48]	; 0xffffffd0
                        unsigned int t1,t2;
                        t1=timer2_leer();
 c008490:	eb00057c 	bl	c009a88 <timer2_leer>
                        patron = patron_volteo_arm_arm(tablero, &longitud, i, j, SF, SC, FICHA_BLANCA);
 c008494:	e24b1030 	sub	r1, fp, #48	; 0x30
                        SC = vSC[k];    // 1 es norte, 2 NE, 3 E ...

                        // nos dice qué hay que voltear en cada dirección
                        longitud = 0;
                        unsigned int t1,t2;
                        t1=timer2_leer();
 c008498:	e1a0c000 	mov	ip, r0
                        patron = patron_volteo_arm_arm(tablero, &longitud, i, j, SF, SC, FICHA_BLANCA);
 c00849c:	e1a0200a 	mov	r2, sl
 c0084a0:	e1a03009 	mov	r3, r9
 c0084a4:	e51b0038 	ldr	r0, [fp, #-56]	; 0xffffffc8
 c0084a8:	e50bc058 	str	ip, [fp, #-88]	; 0xffffffa8
 c0084ac:	e58d5000 	str	r5, [sp]
 c0084b0:	e58d5004 	str	r5, [sp, #4]
 c0084b4:	e58d5008 	str	r5, [sp, #8]
 c0084b8:	ebffe614 	bl	c001d10 <patron_volteo_arm_arm>
                        t2=timer2_leer();
 c0084bc:	e50b005c 	str	r0, [fp, #-92]	; 0xffffffa4
 c0084c0:	eb000570 	bl	c009a88 <timer2_leer>
                        LCD_tvolteo(t2-t1);
 c0084c4:	e51b2058 	ldr	r2, [fp, #-88]	; 0xffffffa8
 c0084c8:	e0620000 	rsb	r0, r2, r0
 c0084cc:	ebfffb91 	bl	c007318 <LCD_tvolteo>
                        //  //printf("%d ", patron);
                        if (patron == PATRON_ENCONTRADO){
 c0084d0:	e51b005c 	ldr	r0, [fp, #-92]	; 0xffffffa4
 c0084d4:	e3500001 	cmp	r0, #1
 c0084d8:	0a00004e 	beq	c008618 <elegir_mov+0x308>
                    while ((found == 0) && (k < DIM)){
                        SF = vSF[k];    // k representa la dirección que miramos
                        SC = vSC[k];    // 1 es norte, 2 NE, 3 E ...

                        // nos dice qué hay que voltear en cada dirección
                        longitud = 0;
 c0084dc:	e50b6030 	str	r6, [fp, #-48]	; 0xffffffd0
                        unsigned int t1,t2;
                        t1=timer2_leer();
 c0084e0:	eb000568 	bl	c009a88 <timer2_leer>
                        patron = patron_volteo_arm_arm(tablero, &longitud, i, j, SF, SC, FICHA_BLANCA);
 c0084e4:	e1a03009 	mov	r3, r9
                        SC = vSC[k];    // 1 es norte, 2 NE, 3 E ...

                        // nos dice qué hay que voltear en cada dirección
                        longitud = 0;
                        unsigned int t1,t2;
                        t1=timer2_leer();
 c0084e8:	e1a0c000 	mov	ip, r0
                        patron = patron_volteo_arm_arm(tablero, &longitud, i, j, SF, SC, FICHA_BLANCA);
 c0084ec:	e24b1030 	sub	r1, fp, #48	; 0x30
 c0084f0:	e1a0200a 	mov	r2, sl
 c0084f4:	e51b0038 	ldr	r0, [fp, #-56]	; 0xffffffc8
 c0084f8:	e50bc058 	str	ip, [fp, #-88]	; 0xffffffa8
 c0084fc:	e88d0060 	stm	sp, {r5, r6}
 c008500:	e58d5008 	str	r5, [sp, #8]
 c008504:	ebffe601 	bl	c001d10 <patron_volteo_arm_arm>
                        t2=timer2_leer();
 c008508:	e50b005c 	str	r0, [fp, #-92]	; 0xffffffa4
 c00850c:	eb00055d 	bl	c009a88 <timer2_leer>
                        LCD_tvolteo(t2-t1);
 c008510:	e51b1058 	ldr	r1, [fp, #-88]	; 0xffffffa8
 c008514:	e0610000 	rsb	r0, r1, r0
 c008518:	ebfffb7e 	bl	c007318 <LCD_tvolteo>
                        //  //printf("%d ", patron);
                        if (patron == PATRON_ENCONTRADO){
 c00851c:	e51b305c 	ldr	r3, [fp, #-92]	; 0xffffffa4
 c008520:	e3530001 	cmp	r3, #1
 c008524:	0a00003b 	beq	c008618 <elegir_mov+0x308>
                    while ((found == 0) && (k < DIM)){
                        SF = vSF[k];    // k representa la dirección que miramos
                        SC = vSC[k];    // 1 es norte, 2 NE, 3 E ...

                        // nos dice qué hay que voltear en cada dirección
                        longitud = 0;
 c008528:	e50b6030 	str	r6, [fp, #-48]	; 0xffffffd0
                        unsigned int t1,t2;
                        t1=timer2_leer();
 c00852c:	eb000555 	bl	c009a88 <timer2_leer>
                        patron = patron_volteo_arm_arm(tablero, &longitud, i, j, SF, SC, FICHA_BLANCA);
 c008530:	e3a0e0ff 	mov	lr, #255	; 0xff
                        SC = vSC[k];    // 1 es norte, 2 NE, 3 E ...

                        // nos dice qué hay que voltear en cada dirección
                        longitud = 0;
                        unsigned int t1,t2;
                        t1=timer2_leer();
 c008534:	e1a0c000 	mov	ip, r0
                        patron = patron_volteo_arm_arm(tablero, &longitud, i, j, SF, SC, FICHA_BLANCA);
 c008538:	e24b1030 	sub	r1, fp, #48	; 0x30
 c00853c:	e1a0200a 	mov	r2, sl
 c008540:	e1a03009 	mov	r3, r9
 c008544:	e51b0038 	ldr	r0, [fp, #-56]	; 0xffffffc8
 c008548:	e58de004 	str	lr, [sp, #4]
 c00854c:	e50bc058 	str	ip, [fp, #-88]	; 0xffffffa8
 c008550:	e58d5000 	str	r5, [sp]
 c008554:	e58d5008 	str	r5, [sp, #8]
 c008558:	ebffe5ec 	bl	c001d10 <patron_volteo_arm_arm>
                        t2=timer2_leer();
 c00855c:	e50b005c 	str	r0, [fp, #-92]	; 0xffffffa4
 c008560:	eb000548 	bl	c009a88 <timer2_leer>
                        LCD_tvolteo(t2-t1);
 c008564:	e51b2058 	ldr	r2, [fp, #-88]	; 0xffffffa8
 c008568:	e0620000 	rsb	r0, r2, r0
 c00856c:	ebfffb69 	bl	c007318 <LCD_tvolteo>
                        //  //printf("%d ", patron);
                        if (patron == PATRON_ENCONTRADO){
 c008570:	e51b005c 	ldr	r0, [fp, #-92]	; 0xffffffa4
 c008574:	e3500001 	cmp	r0, #1
 c008578:	0a000026 	beq	c008618 <elegir_mov+0x308>
                    while ((found == 0) && (k < DIM)){
                        SF = vSF[k];    // k representa la dirección que miramos
                        SC = vSC[k];    // 1 es norte, 2 NE, 3 E ...

                        // nos dice qué hay que voltear en cada dirección
                        longitud = 0;
 c00857c:	e50b6030 	str	r6, [fp, #-48]	; 0xffffffd0
                        unsigned int t1,t2;
                        t1=timer2_leer();
 c008580:	eb000540 	bl	c009a88 <timer2_leer>
                        patron = patron_volteo_arm_arm(tablero, &longitud, i, j, SF, SC, FICHA_BLANCA);
 c008584:	e1a03009 	mov	r3, r9
                        SC = vSC[k];    // 1 es norte, 2 NE, 3 E ...

                        // nos dice qué hay que voltear en cada dirección
                        longitud = 0;
                        unsigned int t1,t2;
                        t1=timer2_leer();
 c008588:	e1a0c000 	mov	ip, r0
                        patron = patron_volteo_arm_arm(tablero, &longitud, i, j, SF, SC, FICHA_BLANCA);
 c00858c:	e3a0e0ff 	mov	lr, #255	; 0xff
 c008590:	e24b1030 	sub	r1, fp, #48	; 0x30
 c008594:	e1a0200a 	mov	r2, sl
 c008598:	e51b0038 	ldr	r0, [fp, #-56]	; 0xffffffc8
 c00859c:	e58de004 	str	lr, [sp, #4]
 c0085a0:	e50bc058 	str	ip, [fp, #-88]	; 0xffffffa8
 c0085a4:	e58d6000 	str	r6, [sp]
 c0085a8:	e58d5008 	str	r5, [sp, #8]
 c0085ac:	ebffe5d7 	bl	c001d10 <patron_volteo_arm_arm>
                        t2=timer2_leer();
 c0085b0:	e50b005c 	str	r0, [fp, #-92]	; 0xffffffa4
 c0085b4:	eb000533 	bl	c009a88 <timer2_leer>
                        LCD_tvolteo(t2-t1);
 c0085b8:	e51b1058 	ldr	r1, [fp, #-88]	; 0xffffffa8
 c0085bc:	e0610000 	rsb	r0, r1, r0
 c0085c0:	ebfffb54 	bl	c007318 <LCD_tvolteo>
                        //  //printf("%d ", patron);
                        if (patron == PATRON_ENCONTRADO){
 c0085c4:	e51b305c 	ldr	r3, [fp, #-92]	; 0xffffffa4
 c0085c8:	e3530001 	cmp	r3, #1
 c0085cc:	0a000011 	beq	c008618 <elegir_mov+0x308>
                    while ((found == 0) && (k < DIM)){
                        SF = vSF[k];    // k representa la dirección que miramos
                        SC = vSC[k];    // 1 es norte, 2 NE, 3 E ...

                        // nos dice qué hay que voltear en cada dirección
                        longitud = 0;
 c0085d0:	e50b6030 	str	r6, [fp, #-48]	; 0xffffffd0
                        unsigned int t1,t2;
                        t1=timer2_leer();
 c0085d4:	eb00052b 	bl	c009a88 <timer2_leer>
                        patron = patron_volteo_arm_arm(tablero, &longitud, i, j, SF, SC, FICHA_BLANCA);
 c0085d8:	e3a0c0ff 	mov	ip, #255	; 0xff
 c0085dc:	e24b1030 	sub	r1, fp, #48	; 0x30
 c0085e0:	e1a0200a 	mov	r2, sl
 c0085e4:	e1a03009 	mov	r3, r9
                        SC = vSC[k];    // 1 es norte, 2 NE, 3 E ...

                        // nos dice qué hay que voltear en cada dirección
                        longitud = 0;
                        unsigned int t1,t2;
                        t1=timer2_leer();
 c0085e8:	e1a06000 	mov	r6, r0
                        patron = patron_volteo_arm_arm(tablero, &longitud, i, j, SF, SC, FICHA_BLANCA);
 c0085ec:	e51b0038 	ldr	r0, [fp, #-56]	; 0xffffffc8
 c0085f0:	e58dc000 	str	ip, [sp]
 c0085f4:	e58dc004 	str	ip, [sp, #4]
 c0085f8:	e58d5008 	str	r5, [sp, #8]
 c0085fc:	ebffe5c3 	bl	c001d10 <patron_volteo_arm_arm>
 c008600:	e1a05000 	mov	r5, r0
                        t2=timer2_leer();
 c008604:	eb00051f 	bl	c009a88 <timer2_leer>
                        LCD_tvolteo(t2-t1);
 c008608:	e0660000 	rsb	r0, r6, r0
 c00860c:	ebfffb41 	bl	c007318 <LCD_tvolteo>
                        //  //printf("%d ", patron);
                        if (patron == PATRON_ENCONTRADO){
 c008610:	e3550001 	cmp	r5, #1
 c008614:	1affff52 	bne	c008364 <elegir_mov+0x54>
                            found = 1;
                            if (tabla_valor[i][j] > mejor){
 c008618:	e51b3040 	ldr	r3, [fp, #-64]	; 0xffffffc0
 c00861c:	e51b203c 	ldr	r2, [fp, #-60]	; 0xffffffc4
 c008620:	e7d30004 	ldrb	r0, [r3, r4]
 c008624:	e1500002 	cmp	r0, r2
 c008628:	850b404c 	strhi	r4, [fp, #-76]	; 0xffffffb4
    char SF, SC; // cantidades a sumar para movernos en la dirección que toque

    // Recorremos el tablero comprobando dónde podemos mover
    // Comparamos la puntuación de los movimientos encontrados y nos quedamos con el mejor
    for (i=0; i<DIM; i++){
        for (j=0; j<DIM; j++){   // indica en qué casillas quizá se pueda mover
 c00862c:	e2844001 	add	r4, r4, #1
                        t2=timer2_leer();
                        LCD_tvolteo(t2-t1);
                        //  //printf("%d ", patron);
                        if (patron == PATRON_ENCONTRADO){
                            found = 1;
                            if (tabla_valor[i][j] > mejor){
 c008630:	850b003c 	strhi	r0, [fp, #-60]	; 0xffffffc4
 c008634:	850b8048 	strhi	r8, [fp, #-72]	; 0xffffffb8
    char SF, SC; // cantidades a sumar para movernos en la dirección que toque

    // Recorremos el tablero comprobando dónde podemos mover
    // Comparamos la puntuación de los movimientos encontrados y nos quedamos con el mejor
    for (i=0; i<DIM; i++){
        for (j=0; j<DIM; j++){   // indica en qué casillas quizá se pueda mover
 c008638:	e3540008 	cmp	r4, #8
 c00863c:	1affff4b 	bne	c008370 <elegir_mov+0x60>
    int patron, longitud;
    char SF, SC; // cantidades a sumar para movernos en la dirección que toque

    // Recorremos el tablero comprobando dónde podemos mover
    // Comparamos la puntuación de los movimientos encontrados y nos quedamos con el mejor
    for (i=0; i<DIM; i++){
 c008640:	e2888001 	add	r8, r8, #1
 c008644:	e3580008 	cmp	r8, #8
 c008648:	e2877008 	add	r7, r7, #8
 c00864c:	1affff3b 	bne	c008340 <elegir_mov+0x30>
                    }
                }
            }
        }
    }
    *f = (char) mf;
 c008650:	e51b0050 	ldr	r0, [fp, #-80]	; 0xffffffb0
 c008654:	e51bc048 	ldr	ip, [fp, #-72]	; 0xffffffb8
 c008658:	e5c0c000 	strb	ip, [r0]
    *c = (char) mc;
 c00865c:	e51b104c 	ldr	r1, [fp, #-76]	; 0xffffffb4
 c008660:	e51b3054 	ldr	r3, [fp, #-84]	; 0xffffffac
    // si no se ha encontrado una posición válida devuelve -1
    return mf;
}
 c008664:	e51b0048 	ldr	r0, [fp, #-72]	; 0xffffffb8
                }
            }
        }
    }
    *f = (char) mf;
    *c = (char) mc;
 c008668:	e5c31000 	strb	r1, [r3]
    // si no se ha encontrado una posición válida devuelve -1
    return mf;
}
 c00866c:	e24bd028 	sub	sp, fp, #40	; 0x28
 c008670:	e89d6ff0 	ldm	sp, {r4, r5, r6, r7, r8, r9, sl, fp, sp, lr}
 c008674:	e12fff1e 	bx	lr
 c008678:	0c00cce8 	.word	0x0c00cce8

0c00867c <contar>:
 * Devuelve el número de fichas existentes de cada color en el tablero
 */
void contar(char tablero[][DIM], int *b, int *n){
    int i,j;

    *b = 0;
 c00867c:	e3a03000 	mov	r3, #0
 c008680:	e5813000 	str	r3, [r1]
    return mf;
}
/*
 * Devuelve el número de fichas existentes de cada color en el tablero
 */
void contar(char tablero[][DIM], int *b, int *n){
 c008684:	e280c040 	add	ip, r0, #64	; 0x40
    int i,j;

    *b = 0;
    *n = 0;
 c008688:	e5823000 	str	r3, [r2]
 c00868c:	ea000027 	b	c008730 <contar+0xb4>
    // recorremos el tablero contando las fichas de cada color
    for (i=0; i<DIM; i++){
        for (j=0; j<DIM; j++){
            if (tablero[i][j] == FICHA_BLANCA){
                (*b)++;
            }else if (tablero[i][j] == FICHA_NEGRA){
 c008690:	e3530002 	cmp	r3, #2
 c008694:	0a000059 	beq	c008800 <contar+0x184>
    *n = 0;

    // recorremos el tablero contando las fichas de cada color
    for (i=0; i<DIM; i++){
        for (j=0; j<DIM; j++){
            if (tablero[i][j] == FICHA_BLANCA){
 c008698:	e5d03001 	ldrb	r3, [r0, #1]
 c00869c:	e3530001 	cmp	r3, #1
 c0086a0:	0a00002b 	beq	c008754 <contar+0xd8>
                (*b)++;
            }else if (tablero[i][j] == FICHA_NEGRA){
 c0086a4:	e3530002 	cmp	r3, #2
 c0086a8:	0a000064 	beq	c008840 <contar+0x1c4>
    *n = 0;

    // recorremos el tablero contando las fichas de cada color
    for (i=0; i<DIM; i++){
        for (j=0; j<DIM; j++){
            if (tablero[i][j] == FICHA_BLANCA){
 c0086ac:	e5d03002 	ldrb	r3, [r0, #2]
 c0086b0:	e3530001 	cmp	r3, #1
 c0086b4:	0a00002c 	beq	c00876c <contar+0xf0>
                (*b)++;
            }else if (tablero[i][j] == FICHA_NEGRA){
 c0086b8:	e3530002 	cmp	r3, #2
 c0086bc:	0a00005b 	beq	c008830 <contar+0x1b4>
    *n = 0;

    // recorremos el tablero contando las fichas de cada color
    for (i=0; i<DIM; i++){
        for (j=0; j<DIM; j++){
            if (tablero[i][j] == FICHA_BLANCA){
 c0086c0:	e5d03003 	ldrb	r3, [r0, #3]
 c0086c4:	e3530001 	cmp	r3, #1
 c0086c8:	0a00002d 	beq	c008784 <contar+0x108>
                (*b)++;
            }else if (tablero[i][j] == FICHA_NEGRA){
 c0086cc:	e3530002 	cmp	r3, #2
 c0086d0:	0a000052 	beq	c008820 <contar+0x1a4>
    *n = 0;

    // recorremos el tablero contando las fichas de cada color
    for (i=0; i<DIM; i++){
        for (j=0; j<DIM; j++){
            if (tablero[i][j] == FICHA_BLANCA){
 c0086d4:	e5d03004 	ldrb	r3, [r0, #4]
 c0086d8:	e3530001 	cmp	r3, #1
 c0086dc:	0a00002e 	beq	c00879c <contar+0x120>
                (*b)++;
            }else if (tablero[i][j] == FICHA_NEGRA){
 c0086e0:	e3530002 	cmp	r3, #2
 c0086e4:	0a000049 	beq	c008810 <contar+0x194>
    *n = 0;

    // recorremos el tablero contando las fichas de cada color
    for (i=0; i<DIM; i++){
        for (j=0; j<DIM; j++){
            if (tablero[i][j] == FICHA_BLANCA){
 c0086e8:	e5d03005 	ldrb	r3, [r0, #5]
 c0086ec:	e3530001 	cmp	r3, #1
 c0086f0:	0a00002f 	beq	c0087b4 <contar+0x138>
                (*b)++;
            }else if (tablero[i][j] == FICHA_NEGRA){
 c0086f4:	e3530002 	cmp	r3, #2
 c0086f8:	0a00005c 	beq	c008870 <contar+0x1f4>
    *n = 0;

    // recorremos el tablero contando las fichas de cada color
    for (i=0; i<DIM; i++){
        for (j=0; j<DIM; j++){
            if (tablero[i][j] == FICHA_BLANCA){
 c0086fc:	e5d03006 	ldrb	r3, [r0, #6]
 c008700:	e3530001 	cmp	r3, #1
 c008704:	0a000030 	beq	c0087cc <contar+0x150>
                (*b)++;
            }else if (tablero[i][j] == FICHA_NEGRA){
 c008708:	e3530002 	cmp	r3, #2
 c00870c:	0a000053 	beq	c008860 <contar+0x1e4>
    *n = 0;

    // recorremos el tablero contando las fichas de cada color
    for (i=0; i<DIM; i++){
        for (j=0; j<DIM; j++){
            if (tablero[i][j] == FICHA_BLANCA){
 c008710:	e5d03007 	ldrb	r3, [r0, #7]
 c008714:	e3530001 	cmp	r3, #1
 c008718:	0a000031 	beq	c0087e4 <contar+0x168>
                (*b)++;
            }else if (tablero[i][j] == FICHA_NEGRA){
 c00871c:	e3530002 	cmp	r3, #2
 c008720:	0a00004a 	beq	c008850 <contar+0x1d4>

    // recorremos el tablero contando las fichas de cada color
    for (i=0; i<DIM; i++){
        for (j=0; j<DIM; j++){
            if (tablero[i][j] == FICHA_BLANCA){
                (*b)++;
 c008724:	e2800008 	add	r0, r0, #8

    *b = 0;
    *n = 0;

    // recorremos el tablero contando las fichas de cada color
    for (i=0; i<DIM; i++){
 c008728:	e150000c 	cmp	r0, ip
 c00872c:	0a000032 	beq	c0087fc <contar+0x180>
        for (j=0; j<DIM; j++){
            if (tablero[i][j] == FICHA_BLANCA){
 c008730:	e5d03000 	ldrb	r3, [r0]
 c008734:	e3530001 	cmp	r3, #1
 c008738:	1affffd4 	bne	c008690 <contar+0x14>
                (*b)++;
 c00873c:	e5913000 	ldr	r3, [r1]
 c008740:	e2833001 	add	r3, r3, #1
 c008744:	e5813000 	str	r3, [r1]
    *n = 0;

    // recorremos el tablero contando las fichas de cada color
    for (i=0; i<DIM; i++){
        for (j=0; j<DIM; j++){
            if (tablero[i][j] == FICHA_BLANCA){
 c008748:	e5d03001 	ldrb	r3, [r0, #1]
 c00874c:	e3530001 	cmp	r3, #1
 c008750:	1affffd3 	bne	c0086a4 <contar+0x28>
                (*b)++;
 c008754:	e5913000 	ldr	r3, [r1]
 c008758:	e2833001 	add	r3, r3, #1
 c00875c:	e5813000 	str	r3, [r1]
    *n = 0;

    // recorremos el tablero contando las fichas de cada color
    for (i=0; i<DIM; i++){
        for (j=0; j<DIM; j++){
            if (tablero[i][j] == FICHA_BLANCA){
 c008760:	e5d03002 	ldrb	r3, [r0, #2]
 c008764:	e3530001 	cmp	r3, #1
 c008768:	1affffd2 	bne	c0086b8 <contar+0x3c>
                (*b)++;
 c00876c:	e5913000 	ldr	r3, [r1]
 c008770:	e2833001 	add	r3, r3, #1
 c008774:	e5813000 	str	r3, [r1]
    *n = 0;

    // recorremos el tablero contando las fichas de cada color
    for (i=0; i<DIM; i++){
        for (j=0; j<DIM; j++){
            if (tablero[i][j] == FICHA_BLANCA){
 c008778:	e5d03003 	ldrb	r3, [r0, #3]
 c00877c:	e3530001 	cmp	r3, #1
 c008780:	1affffd1 	bne	c0086cc <contar+0x50>
                (*b)++;
 c008784:	e5913000 	ldr	r3, [r1]
 c008788:	e2833001 	add	r3, r3, #1
 c00878c:	e5813000 	str	r3, [r1]
    *n = 0;

    // recorremos el tablero contando las fichas de cada color
    for (i=0; i<DIM; i++){
        for (j=0; j<DIM; j++){
            if (tablero[i][j] == FICHA_BLANCA){
 c008790:	e5d03004 	ldrb	r3, [r0, #4]
 c008794:	e3530001 	cmp	r3, #1
 c008798:	1affffd0 	bne	c0086e0 <contar+0x64>
                (*b)++;
 c00879c:	e5913000 	ldr	r3, [r1]
 c0087a0:	e2833001 	add	r3, r3, #1
 c0087a4:	e5813000 	str	r3, [r1]
    *n = 0;

    // recorremos el tablero contando las fichas de cada color
    for (i=0; i<DIM; i++){
        for (j=0; j<DIM; j++){
            if (tablero[i][j] == FICHA_BLANCA){
 c0087a8:	e5d03005 	ldrb	r3, [r0, #5]
 c0087ac:	e3530001 	cmp	r3, #1
 c0087b0:	1affffcf 	bne	c0086f4 <contar+0x78>
                (*b)++;
 c0087b4:	e5913000 	ldr	r3, [r1]
 c0087b8:	e2833001 	add	r3, r3, #1
 c0087bc:	e5813000 	str	r3, [r1]
    *n = 0;

    // recorremos el tablero contando las fichas de cada color
    for (i=0; i<DIM; i++){
        for (j=0; j<DIM; j++){
            if (tablero[i][j] == FICHA_BLANCA){
 c0087c0:	e5d03006 	ldrb	r3, [r0, #6]
 c0087c4:	e3530001 	cmp	r3, #1
 c0087c8:	1affffce 	bne	c008708 <contar+0x8c>
                (*b)++;
 c0087cc:	e5913000 	ldr	r3, [r1]
 c0087d0:	e2833001 	add	r3, r3, #1
 c0087d4:	e5813000 	str	r3, [r1]
    *n = 0;

    // recorremos el tablero contando las fichas de cada color
    for (i=0; i<DIM; i++){
        for (j=0; j<DIM; j++){
            if (tablero[i][j] == FICHA_BLANCA){
 c0087d8:	e5d03007 	ldrb	r3, [r0, #7]
 c0087dc:	e3530001 	cmp	r3, #1
 c0087e0:	1affffcd 	bne	c00871c <contar+0xa0>
                (*b)++;
 c0087e4:	e5913000 	ldr	r3, [r1]
 c0087e8:	e2800008 	add	r0, r0, #8
 c0087ec:	e2833001 	add	r3, r3, #1

    *b = 0;
    *n = 0;

    // recorremos el tablero contando las fichas de cada color
    for (i=0; i<DIM; i++){
 c0087f0:	e150000c 	cmp	r0, ip
        for (j=0; j<DIM; j++){
            if (tablero[i][j] == FICHA_BLANCA){
                (*b)++;
 c0087f4:	e5813000 	str	r3, [r1]

    *b = 0;
    *n = 0;

    // recorremos el tablero contando las fichas de cada color
    for (i=0; i<DIM; i++){
 c0087f8:	1affffcc 	bne	c008730 <contar+0xb4>
            }else if (tablero[i][j] == FICHA_NEGRA){
                (*n)++;
            }
        }
    }
}
 c0087fc:	e12fff1e 	bx	lr
    for (i=0; i<DIM; i++){
        for (j=0; j<DIM; j++){
            if (tablero[i][j] == FICHA_BLANCA){
                (*b)++;
            }else if (tablero[i][j] == FICHA_NEGRA){
                (*n)++;
 c008800:	e5923000 	ldr	r3, [r2]
 c008804:	e2833001 	add	r3, r3, #1
 c008808:	e5823000 	str	r3, [r2]
 c00880c:	eaffffa1 	b	c008698 <contar+0x1c>
 c008810:	e5923000 	ldr	r3, [r2]
 c008814:	e2833001 	add	r3, r3, #1
 c008818:	e5823000 	str	r3, [r2]
 c00881c:	eaffffb1 	b	c0086e8 <contar+0x6c>
 c008820:	e5923000 	ldr	r3, [r2]
 c008824:	e2833001 	add	r3, r3, #1
 c008828:	e5823000 	str	r3, [r2]
 c00882c:	eaffffa8 	b	c0086d4 <contar+0x58>
 c008830:	e5923000 	ldr	r3, [r2]
 c008834:	e2833001 	add	r3, r3, #1
 c008838:	e5823000 	str	r3, [r2]
 c00883c:	eaffff9f 	b	c0086c0 <contar+0x44>
 c008840:	e5923000 	ldr	r3, [r2]
 c008844:	e2833001 	add	r3, r3, #1
 c008848:	e5823000 	str	r3, [r2]
 c00884c:	eaffff96 	b	c0086ac <contar+0x30>
 c008850:	e5923000 	ldr	r3, [r2]
 c008854:	e2833001 	add	r3, r3, #1
 c008858:	e5823000 	str	r3, [r2]
 c00885c:	eaffffb0 	b	c008724 <contar+0xa8>
 c008860:	e5923000 	ldr	r3, [r2]
 c008864:	e2833001 	add	r3, r3, #1
 c008868:	e5823000 	str	r3, [r2]
 c00886c:	eaffffa7 	b	c008710 <contar+0x94>
 c008870:	e5923000 	ldr	r3, [r2]
 c008874:	e2833001 	add	r3, r3, #1
 c008878:	e5823000 	str	r3, [r2]
 c00887c:	eaffff9e 	b	c0086fc <contar+0x80>

0c008880 <actualizar_candidatas>:
 * Actualiza candidatas tras un movimiento
 */
void actualizar_candidatas(char candidatas[][DIM], char f, char c){
    // donde ya se ha colocado no se puede volver a colocar
    // En las posiciones alrededor sí
    candidatas[f][c] = CASILLA_OCUPADA;
 c008880:	e0803181 	add	r3, r0, r1, lsl #3
 c008884:	e3a0c002 	mov	ip, #2
    if (f > 0)
 c008888:	e3510000 	cmp	r1, #0
    }
}
/*
 * Actualiza candidatas tras un movimiento
 */
void actualizar_candidatas(char candidatas[][DIM], char f, char c){
 c00888c:	e92d0030 	push	{r4, r5}
    // donde ya se ha colocado no se puede volver a colocar
    // En las posiciones alrededor sí
    candidatas[f][c] = CASILLA_OCUPADA;
 c008890:	e7c3c002 	strb	ip, [r3, r2]
    if (f > 0)
 c008894:	0a00000e 	beq	c0088d4 <actualizar_candidatas+0x54>
    {
        if (candidatas[f-1][c] != CASILLA_OCUPADA)
 c008898:	e2415001 	sub	r5, r1, #1
 c00889c:	e080c185 	add	ip, r0, r5, lsl #3
 c0088a0:	e7dc4002 	ldrb	r4, [ip, r2]
 c0088a4:	e3540002 	cmp	r4, #2
            candidatas[f-1][c] = SI;
 c0088a8:	13a04001 	movne	r4, #1
 c0088ac:	17cc4002 	strbne	r4, [ip, r2]

        if ((c > 0) && (candidatas[f-1][c-1] != CASILLA_OCUPADA))
 c0088b0:	e3520000 	cmp	r2, #0
 c0088b4:	1a00002a 	bne	c008964 <actualizar_candidatas+0xe4>
            candidatas[f-1][c-1] = SI;

        if ((c < 7) && (candidatas[f-1][c+1] != CASILLA_OCUPADA))
 c0088b8:	e2824001 	add	r4, r2, #1
 c0088bc:	e7dc5004 	ldrb	r5, [ip, r4]
 c0088c0:	e3550002 	cmp	r5, #2
            candidatas[f-1][c+1] = SI;
 c0088c4:	13a05001 	movne	r5, #1
 c0088c8:	17cc5004 	strbne	r5, [ip, r4]
    }
    if (f < 7)
 c0088cc:	e3510006 	cmp	r1, #6
 c0088d0:	8a00000c 	bhi	c008908 <actualizar_candidatas+0x88>
    {
        if (candidatas[f+1][c] != CASILLA_OCUPADA)
 c0088d4:	e281c001 	add	ip, r1, #1
 c0088d8:	e080018c 	add	r0, r0, ip, lsl #3
 c0088dc:	e7d01002 	ldrb	r1, [r0, r2]
 c0088e0:	e3510002 	cmp	r1, #2
            candidatas[f+1][c] = SI;
 c0088e4:	13a01001 	movne	r1, #1
 c0088e8:	17c01002 	strbne	r1, [r0, r2]

        if ((c > 0) && (candidatas[f+1][c-1] != CASILLA_OCUPADA))
 c0088ec:	e3520000 	cmp	r2, #0
 c0088f0:	1a00000d 	bne	c00892c <actualizar_candidatas+0xac>
            candidatas[f+1][c-1] = SI;

        if ((c < 7) && (candidatas[f+1][c+1] != CASILLA_OCUPADA))
 c0088f4:	e2821001 	add	r1, r2, #1
 c0088f8:	e7d0c001 	ldrb	ip, [r0, r1]
 c0088fc:	e35c0002 	cmp	ip, #2
            candidatas[f+1][c+1] = SI;
 c008900:	13a0c001 	movne	ip, #1
 c008904:	17c0c001 	strbne	ip, [r0, r1]
    }
    if ((c > 0) && (candidatas[f][c-1] != CASILLA_OCUPADA))
 c008908:	e3520000 	cmp	r2, #0
 c00890c:	1a00001c 	bne	c008984 <actualizar_candidatas+0x104>
        candidatas[f][c-1] = SI;

    if ((c < 7) && (candidatas[f][c+1] != CASILLA_OCUPADA))
 c008910:	e2822001 	add	r2, r2, #1
 c008914:	e7d31002 	ldrb	r1, [r3, r2]
 c008918:	e3510002 	cmp	r1, #2
        candidatas[f][c+1] = SI;
 c00891c:	13a01001 	movne	r1, #1
 c008920:	17c31002 	strbne	r1, [r3, r2]
}
 c008924:	e8bd0030 	pop	{r4, r5}
 c008928:	e12fff1e 	bx	lr
    if (f < 7)
    {
        if (candidatas[f+1][c] != CASILLA_OCUPADA)
            candidatas[f+1][c] = SI;

        if ((c > 0) && (candidatas[f+1][c-1] != CASILLA_OCUPADA))
 c00892c:	e2421001 	sub	r1, r2, #1
 c008930:	e7d0c001 	ldrb	ip, [r0, r1]
 c008934:	e35c0002 	cmp	ip, #2
            candidatas[f+1][c-1] = SI;
 c008938:	13a0c001 	movne	ip, #1
 c00893c:	17c0c001 	strbne	ip, [r0, r1]

        if ((c < 7) && (candidatas[f+1][c+1] != CASILLA_OCUPADA))
 c008940:	e3520006 	cmp	r2, #6
 c008944:	9affffea 	bls	c0088f4 <actualizar_candidatas+0x74>
            candidatas[f+1][c+1] = SI;
    }
    if ((c > 0) && (candidatas[f][c-1] != CASILLA_OCUPADA))
 c008948:	e7d30001 	ldrb	r0, [r3, r1]
 c00894c:	e3500002 	cmp	r0, #2
        candidatas[f][c-1] = SI;
 c008950:	13a00001 	movne	r0, #1
 c008954:	17c30001 	strbne	r0, [r3, r1]

    if ((c < 7) && (candidatas[f][c+1] != CASILLA_OCUPADA))
 c008958:	e3520006 	cmp	r2, #6
 c00895c:	8afffff0 	bhi	c008924 <actualizar_candidatas+0xa4>
 c008960:	eaffffea 	b	c008910 <actualizar_candidatas+0x90>
    if (f > 0)
    {
        if (candidatas[f-1][c] != CASILLA_OCUPADA)
            candidatas[f-1][c] = SI;

        if ((c > 0) && (candidatas[f-1][c-1] != CASILLA_OCUPADA))
 c008964:	e2424001 	sub	r4, r2, #1
 c008968:	e7dc5004 	ldrb	r5, [ip, r4]
 c00896c:	e3550002 	cmp	r5, #2
            candidatas[f-1][c-1] = SI;
 c008970:	13a05001 	movne	r5, #1
 c008974:	17cc5004 	strbne	r5, [ip, r4]

        if ((c < 7) && (candidatas[f-1][c+1] != CASILLA_OCUPADA))
 c008978:	e3520006 	cmp	r2, #6
 c00897c:	8affffd2 	bhi	c0088cc <actualizar_candidatas+0x4c>
 c008980:	eaffffcc 	b	c0088b8 <actualizar_candidatas+0x38>
            candidatas[f+1][c-1] = SI;

        if ((c < 7) && (candidatas[f+1][c+1] != CASILLA_OCUPADA))
            candidatas[f+1][c+1] = SI;
    }
    if ((c > 0) && (candidatas[f][c-1] != CASILLA_OCUPADA))
 c008984:	e2421001 	sub	r1, r2, #1
 c008988:	eaffffee 	b	c008948 <actualizar_candidatas+0xc8>

0c00898c <movimiento_valido>:
}

/*
 * Comprueba si (f,c) es un movimiento válido
 */
int movimiento_valido(char tablero[][DIM], char f, char c){
 c00898c:	e1a0c00d 	mov	ip, sp
 c008990:	e92ddff0 	push	{r4, r5, r6, r7, r8, r9, sl, fp, ip, lr, pc}
 c008994:	e24cb004 	sub	fp, ip, #4
 c008998:	e24dd024 	sub	sp, sp, #36	; 0x24
 c00899c:	e59f806c 	ldr	r8, [pc, #108]	; c008a10 <movimiento_valido+0x84>
 c0089a0:	e50b2038 	str	r2, [fp, #-56]	; 0xffffffc8
 c0089a4:	e1a0a000 	mov	sl, r0
 c0089a8:	e1a09001 	mov	r9, r1
    char SF, SC; // cantidades a sumar para movernos en la dirección que toque
    int i=0, patron=0, longi;
 c0089ac:	e3a04000 	mov	r4, #0
    // char vSF[DIM] = {-1,-1, 0, 1, 1, 1, 0,-1};
    // char vSC[DIM] = { 0, 1, 1, 1, 0,-1,-1,-1};

    while ( i < DIM & patron==0){ // 0 es Norte, 1 NE, 2 E ...
        SF = vSF[i];
        SC = vSC[i];
 c0089b0:	e59f305c 	ldr	r3, [pc, #92]	; c008a14 <movimiento_valido+0x88>

    // char vSF[DIM] = {-1,-1, 0, 1, 1, 1, 0,-1};
    // char vSC[DIM] = { 0, 1, 1, 1, 0,-1,-1,-1};

    while ( i < DIM & patron==0){ // 0 es Norte, 1 NE, 2 E ...
        SF = vSF[i];
 c0089b4:	e7d85004 	ldrb	r5, [r8, r4]
        SC = vSC[i];
 c0089b8:	e7d36004 	ldrb	r6, [r3, r4]

        unsigned int t1,t2;
        t1=timer2_leer();
 c0089bc:	eb000431 	bl	c009a88 <timer2_leer>
        patron = patron_volteo_arm_arm(tablero, &longi, f, c, SF, SC, FICHA_NEGRA);
 c0089c0:	e3a0c002 	mov	ip, #2
 c0089c4:	e24b1030 	sub	r1, fp, #48	; 0x30
 c0089c8:	e1a02009 	mov	r2, r9
 c0089cc:	e51b3038 	ldr	r3, [fp, #-56]	; 0xffffffc8
    while ( i < DIM & patron==0){ // 0 es Norte, 1 NE, 2 E ...
        SF = vSF[i];
        SC = vSC[i];

        unsigned int t1,t2;
        t1=timer2_leer();
 c0089d0:	e1a07000 	mov	r7, r0
        patron = patron_volteo_arm_arm(tablero, &longi, f, c, SF, SC, FICHA_NEGRA);
 c0089d4:	e1a0000a 	mov	r0, sl
 c0089d8:	e88d1060 	stm	sp, {r5, r6, ip}
 c0089dc:	ebffe4cb 	bl	c001d10 <patron_volteo_arm_arm>
 c0089e0:	e1a05000 	mov	r5, r0
        t2=timer2_leer();
 c0089e4:	eb000427 	bl	c009a88 <timer2_leer>
        LCD_tvolteo(t2-t1);

        i++;
 c0089e8:	e2844001 	add	r4, r4, #1

        unsigned int t1,t2;
        t1=timer2_leer();
        patron = patron_volteo_arm_arm(tablero, &longi, f, c, SF, SC, FICHA_NEGRA);
        t2=timer2_leer();
        LCD_tvolteo(t2-t1);
 c0089ec:	e0670000 	rsb	r0, r7, r0
 c0089f0:	ebfffa48 	bl	c007318 <LCD_tvolteo>
    int i=0, patron=0, longi;

    // char vSF[DIM] = {-1,-1, 0, 1, 1, 1, 0,-1};
    // char vSC[DIM] = { 0, 1, 1, 1, 0,-1,-1,-1};

    while ( i < DIM & patron==0){ // 0 es Norte, 1 NE, 2 E ...
 c0089f4:	e3540007 	cmp	r4, #7
 c0089f8:	d3550000 	cmple	r5, #0
 c0089fc:	0affffeb 	beq	c0089b0 <movimiento_valido+0x24>
        LCD_tvolteo(t2-t1);

        i++;
    }
    return patron;
}
 c008a00:	e1a00005 	mov	r0, r5
 c008a04:	e24bd028 	sub	sp, fp, #40	; 0x28
 c008a08:	e89d6ff0 	ldm	sp, {r4, r5, r6, r7, r8, r9, sl, fp, sp, lr}
 c008a0c:	e12fff1e 	bx	lr
 c008a10:	0c00ccd8 	.word	0x0c00ccd8
 c008a14:	0c00cce0 	.word	0x0c00cce0

0c008a18 <reversi_procesar>:

/*
 * Funcion encargada de realizar la jugada correspondiente con una
 * ficha y columna determinadas
 */
int reversi_procesar(char tablero[][DIM], char candidatas[][DIM], char fila, char columna){
 c008a18:	e1a0c00d 	mov	ip, sp
 c008a1c:	e92ddff0 	push	{r4, r5, r6, r7, r8, r9, sl, fp, ip, lr, pc}
 c008a20:	e24cb004 	sub	fp, ip, #4
 c008a24:	e24dd04c 	sub	sp, sp, #76	; 0x4c
 c008a28:	e1a09002 	mov	r9, r2
 c008a2c:	e1a0a003 	mov	sl, r3
 c008a30:	e1a08000 	mov	r8, r0
 c008a34:	e50b1050 	str	r1, [fp, #-80]	; 0xffffffb0
	unsigned int t1,t2;
	t1=timer2_leer();
 c008a38:	eb000412 	bl	c009a88 <timer2_leer>
		int blancas, negras;// número de fichas de cada color
		int fin = 0;  		// fin vale 1 si no hay casillas vacias
		char f, c;    		// fila y columna elegidas por la máquina para su movimiento

		//movimiento del humano
	    if (((fila) != DIM) && ((columna) != DIM)){
 c008a3c:	e35a0008 	cmp	sl, #8
 c008a40:	13590008 	cmpne	r9, #8
 * Funcion encargada de realizar la jugada correspondiente con una
 * ficha y columna determinadas
 */
int reversi_procesar(char tablero[][DIM], char candidatas[][DIM], char fila, char columna){
	unsigned int t1,t2;
	t1=timer2_leer();
 c008a44:	e50b0054 	str	r0, [fp, #-84]	; 0xffffffac
		int blancas, negras;// número de fichas de cada color
		int fin = 0;  		// fin vale 1 si no hay casillas vacias
		char f, c;    		// fila y columna elegidas por la máquina para su movimiento

		//movimiento del humano
	    if (((fila) != DIM) && ((columna) != DIM)){
 c008a48:	03a00001 	moveq	r0, #1
 c008a4c:	050b0058 	streq	r0, [fp, #-88]	; 0xffffffa8
 c008a50:	0a000005 	beq	c008a6c <reversi_procesar+0x54>
	    	if((tablero[fila][columna]) == CASILLA_VACIA){
 c008a54:	e0883189 	add	r3, r8, r9, lsl #3
 c008a58:	e7d3600a 	ldrb	r6, [r3, sl]
 c008a5c:	e3560000 	cmp	r6, #0
 c008a60:	13a01001 	movne	r1, #1
 c008a64:	150b1058 	strne	r1, [fp, #-88]	; 0xffffffa8
 c008a68:	0a0002db 	beq	c0095dc <reversi_procesar+0xbc4>
    int patron, longitud;
    char SF, SC; // cantidades a sumar para movernos en la dirección que toque

    // Recorremos el tablero comprobando dónde podemos mover
    // Comparamos la puntuación de los movimientos encontrados y nos quedamos con el mejor
    for (i=0; i<DIM; i++){
 c008a6c:	e3a0a000 	mov	sl, #0
 * Entre los posibles movimientos compara posiciones y elige la mejor.
 * Devuelve solución en f y c.
 */
int elegir_mov(char candidatas[][DIM], char tablero[][DIM], char *f, char *c){
    int i, j, k, found;
    int mf = -1; // almacena la fila del mejor movimiento encontrado
 c008a70:	e3e00000 	mvn	r0, #0
	    	if((tablero[fila][columna]) == CASILLA_VACIA){
	    					// Si es posicion correcta y está libre escribimos
	    					// ficha en tablero, volteamos y actualizamos candidatas.
	    		tablero[fila][columna] = FICHA_NEGRA;
	    		actualizar_tablero(tablero, fila, columna, FICHA_NEGRA);
	    		actualizar_candidatas(candidatas, fila, columna);
 c008a74:	e51b7050 	ldr	r7, [fp, #-80]	; 0xffffffb0
 */
int elegir_mov(char candidatas[][DIM], char tablero[][DIM], char *f, char *c){
    int i, j, k, found;
    int mf = -1; // almacena la fila del mejor movimiento encontrado
    int mc;      // almacena la columna del mejor movimiento encontrado
    char mejor = 0; // almacena el mejor valor encontrado
 c008a78:	e50ba03c 	str	sl, [fp, #-60]	; 0xffffffc4
 * Entre los posibles movimientos compara posiciones y elige la mejor.
 * Devuelve solución en f y c.
 */
int elegir_mov(char candidatas[][DIM], char tablero[][DIM], char *f, char *c){
    int i, j, k, found;
    int mf = -1; // almacena la fila del mejor movimiento encontrado
 c008a7c:	e50b0048 	str	r0, [fp, #-72]	; 0xffffffb8

/*
 * Funcion encargada de realizar la jugada correspondiente con una
 * ficha y columna determinadas
 */
int reversi_procesar(char tablero[][DIM], char candidatas[][DIM], char fila, char columna){
 c008a80:	e59fed2c 	ldr	lr, [pc, #3372]	; c0097b4 <reversi_procesar+0xd9c>
 c008a84:	e1a0318a 	lsl	r3, sl, #3
 c008a88:	e088c003 	add	ip, r8, r3
 c008a8c:	e08e5003 	add	r5, lr, r3
	    	if((tablero[fila][columna]) == CASILLA_VACIA){
	    					// Si es posicion correcta y está libre escribimos
	    					// ficha en tablero, volteamos y actualizamos candidatas.
	    		tablero[fila][columna] = FICHA_NEGRA;
	    		actualizar_tablero(tablero, fila, columna, FICHA_NEGRA);
	    		actualizar_candidatas(candidatas, fila, columna);
 c008a90:	e3a04000 	mov	r4, #0

/*
 * Funcion encargada de realizar la jugada correspondiente con una
 * ficha y columna determinadas
 */
int reversi_procesar(char tablero[][DIM], char candidatas[][DIM], char fila, char columna){
 c008a94:	e50bc044 	str	ip, [fp, #-68]	; 0xffffffbc
 c008a98:	e50b5040 	str	r5, [fp, #-64]	; 0xffffffc0
 c008a9c:	ea000002 	b	c008aac <reversi_procesar+0x94>
    char SF, SC; // cantidades a sumar para movernos en la dirección que toque

    // Recorremos el tablero comprobando dónde podemos mover
    // Comparamos la puntuación de los movimientos encontrados y nos quedamos con el mejor
    for (i=0; i<DIM; i++){
        for (j=0; j<DIM; j++){   // indica en qué casillas quizá se pueda mover
 c008aa0:	e2844001 	add	r4, r4, #1
 c008aa4:	e3540008 	cmp	r4, #8
 c008aa8:	0a0000b4 	beq	c008d80 <reversi_procesar+0x368>
            if (candidatas[i][j] == SI){
 c008aac:	e7d75004 	ldrb	r5, [r7, r4]
 c008ab0:	e3550001 	cmp	r5, #1
 c008ab4:	1afffff9 	bne	c008aa0 <reversi_procesar+0x88>
                if (tablero[i][j] == CASILLA_VACIA){
 c008ab8:	e51b3044 	ldr	r3, [fp, #-68]	; 0xffffffbc
 c008abc:	e7d36004 	ldrb	r6, [r3, r4]
 c008ac0:	e3560000 	cmp	r6, #0
 c008ac4:	1afffff5 	bne	c008aa0 <reversi_procesar+0x88>
 c008ac8:	e20400ff 	and	r0, r4, #255	; 0xff
 c008acc:	e50b0038 	str	r0, [fp, #-56]	; 0xffffffc8
                    while ((found == 0) && (k < DIM)){
                        SF = vSF[k];    // k representa la dirección que miramos
                        SC = vSC[k];    // 1 es norte, 2 NE, 3 E ...

                        // nos dice qué hay que voltear en cada dirección
                        longitud = 0;
 c008ad0:	e50b6030 	str	r6, [fp, #-48]	; 0xffffffd0
                        unsigned int t1,t2;
                        t1=timer2_leer();
 c008ad4:	eb0003eb 	bl	c009a88 <timer2_leer>
    // Recorremos el tablero comprobando dónde podemos mover
    // Comparamos la puntuación de los movimientos encontrados y nos quedamos con el mejor
    for (i=0; i<DIM; i++){
        for (j=0; j<DIM; j++){   // indica en qué casillas quizá se pueda mover
            if (candidatas[i][j] == SI){
                if (tablero[i][j] == CASILLA_VACIA){
 c008ad8:	e20a90ff 	and	r9, sl, #255	; 0xff
                        SC = vSC[k];    // 1 es norte, 2 NE, 3 E ...

                        // nos dice qué hay que voltear en cada dirección
                        longitud = 0;
                        unsigned int t1,t2;
                        t1=timer2_leer();
 c008adc:	e1a0c000 	mov	ip, r0
                        patron = patron_volteo_arm_arm(tablero, &longitud, i, j, SF, SC, FICHA_BLANCA);
 c008ae0:	e1a02009 	mov	r2, r9
 c008ae4:	e3a0e0ff 	mov	lr, #255	; 0xff
 c008ae8:	e24b1030 	sub	r1, fp, #48	; 0x30
 c008aec:	e51b3038 	ldr	r3, [fp, #-56]	; 0xffffffc8
 c008af0:	e1a00008 	mov	r0, r8
 c008af4:	e58de000 	str	lr, [sp]
 c008af8:	e50bc05c 	str	ip, [fp, #-92]	; 0xffffffa4
 c008afc:	e58d6004 	str	r6, [sp, #4]
 c008b00:	e58d5008 	str	r5, [sp, #8]
 c008b04:	ebffe481 	bl	c001d10 <patron_volteo_arm_arm>
                        t2=timer2_leer();
 c008b08:	e50b0060 	str	r0, [fp, #-96]	; 0xffffffa0
 c008b0c:	eb0003dd 	bl	c009a88 <timer2_leer>
                        LCD_tvolteo(t2-t1);
 c008b10:	e51b105c 	ldr	r1, [fp, #-92]	; 0xffffffa4
 c008b14:	e0610000 	rsb	r0, r1, r0
 c008b18:	ebfff9fe 	bl	c007318 <LCD_tvolteo>
                        //  //printf("%d ", patron);
                        if (patron == PATRON_ENCONTRADO){
 c008b1c:	e51b2060 	ldr	r2, [fp, #-96]	; 0xffffffa0
 c008b20:	e3520001 	cmp	r2, #1
 c008b24:	0a00008b 	beq	c008d58 <reversi_procesar+0x340>
                    while ((found == 0) && (k < DIM)){
                        SF = vSF[k];    // k representa la dirección que miramos
                        SC = vSC[k];    // 1 es norte, 2 NE, 3 E ...

                        // nos dice qué hay que voltear en cada dirección
                        longitud = 0;
 c008b28:	e50b6030 	str	r6, [fp, #-48]	; 0xffffffd0
                        unsigned int t1,t2;
                        t1=timer2_leer();
 c008b2c:	eb0003d5 	bl	c009a88 <timer2_leer>
                        patron = patron_volteo_arm_arm(tablero, &longitud, i, j, SF, SC, FICHA_BLANCA);
 c008b30:	e51b3038 	ldr	r3, [fp, #-56]	; 0xffffffc8
                        SC = vSC[k];    // 1 es norte, 2 NE, 3 E ...

                        // nos dice qué hay que voltear en cada dirección
                        longitud = 0;
                        unsigned int t1,t2;
                        t1=timer2_leer();
 c008b34:	e1a0c000 	mov	ip, r0
                        patron = patron_volteo_arm_arm(tablero, &longitud, i, j, SF, SC, FICHA_BLANCA);
 c008b38:	e3a0e0ff 	mov	lr, #255	; 0xff
 c008b3c:	e24b1030 	sub	r1, fp, #48	; 0x30
 c008b40:	e1a02009 	mov	r2, r9
 c008b44:	e1a00008 	mov	r0, r8
 c008b48:	e58de000 	str	lr, [sp]
 c008b4c:	e50bc05c 	str	ip, [fp, #-92]	; 0xffffffa4
 c008b50:	e58d5004 	str	r5, [sp, #4]
 c008b54:	e58d5008 	str	r5, [sp, #8]
 c008b58:	ebffe46c 	bl	c001d10 <patron_volteo_arm_arm>
                        t2=timer2_leer();
 c008b5c:	e50b0060 	str	r0, [fp, #-96]	; 0xffffffa0
 c008b60:	eb0003c8 	bl	c009a88 <timer2_leer>
                        LCD_tvolteo(t2-t1);
 c008b64:	e51b205c 	ldr	r2, [fp, #-92]	; 0xffffffa4
 c008b68:	e0620000 	rsb	r0, r2, r0
 c008b6c:	ebfff9e9 	bl	c007318 <LCD_tvolteo>
                        //  //printf("%d ", patron);
                        if (patron == PATRON_ENCONTRADO){
 c008b70:	e51b3060 	ldr	r3, [fp, #-96]	; 0xffffffa0
 c008b74:	e3530001 	cmp	r3, #1
 c008b78:	0a000076 	beq	c008d58 <reversi_procesar+0x340>
                    while ((found == 0) && (k < DIM)){
                        SF = vSF[k];    // k representa la dirección que miramos
                        SC = vSC[k];    // 1 es norte, 2 NE, 3 E ...

                        // nos dice qué hay que voltear en cada dirección
                        longitud = 0;
 c008b7c:	e50b6030 	str	r6, [fp, #-48]	; 0xffffffd0
                        unsigned int t1,t2;
                        t1=timer2_leer();
 c008b80:	eb0003c0 	bl	c009a88 <timer2_leer>
                        patron = patron_volteo_arm_arm(tablero, &longitud, i, j, SF, SC, FICHA_BLANCA);
 c008b84:	e24b1030 	sub	r1, fp, #48	; 0x30
                        SC = vSC[k];    // 1 es norte, 2 NE, 3 E ...

                        // nos dice qué hay que voltear en cada dirección
                        longitud = 0;
                        unsigned int t1,t2;
                        t1=timer2_leer();
 c008b88:	e1a0c000 	mov	ip, r0
                        patron = patron_volteo_arm_arm(tablero, &longitud, i, j, SF, SC, FICHA_BLANCA);
 c008b8c:	e1a02009 	mov	r2, r9
 c008b90:	e51b3038 	ldr	r3, [fp, #-56]	; 0xffffffc8
 c008b94:	e1a00008 	mov	r0, r8
 c008b98:	e50bc05c 	str	ip, [fp, #-92]	; 0xffffffa4
 c008b9c:	e58d6000 	str	r6, [sp]
 c008ba0:	e58d5004 	str	r5, [sp, #4]
 c008ba4:	e58d5008 	str	r5, [sp, #8]
 c008ba8:	ebffe458 	bl	c001d10 <patron_volteo_arm_arm>
                        t2=timer2_leer();
 c008bac:	e50b0060 	str	r0, [fp, #-96]	; 0xffffffa0
 c008bb0:	eb0003b4 	bl	c009a88 <timer2_leer>
                        LCD_tvolteo(t2-t1);
 c008bb4:	e51b305c 	ldr	r3, [fp, #-92]	; 0xffffffa4
 c008bb8:	e0630000 	rsb	r0, r3, r0
 c008bbc:	ebfff9d5 	bl	c007318 <LCD_tvolteo>
                        //  //printf("%d ", patron);
                        if (patron == PATRON_ENCONTRADO){
 c008bc0:	e51b1060 	ldr	r1, [fp, #-96]	; 0xffffffa0
 c008bc4:	e3510001 	cmp	r1, #1
 c008bc8:	0a000062 	beq	c008d58 <reversi_procesar+0x340>
                    while ((found == 0) && (k < DIM)){
                        SF = vSF[k];    // k representa la dirección que miramos
                        SC = vSC[k];    // 1 es norte, 2 NE, 3 E ...

                        // nos dice qué hay que voltear en cada dirección
                        longitud = 0;
 c008bcc:	e50b6030 	str	r6, [fp, #-48]	; 0xffffffd0
                        unsigned int t1,t2;
                        t1=timer2_leer();
 c008bd0:	eb0003ac 	bl	c009a88 <timer2_leer>
                        patron = patron_volteo_arm_arm(tablero, &longitud, i, j, SF, SC, FICHA_BLANCA);
 c008bd4:	e24b1030 	sub	r1, fp, #48	; 0x30
                        SC = vSC[k];    // 1 es norte, 2 NE, 3 E ...

                        // nos dice qué hay que voltear en cada dirección
                        longitud = 0;
                        unsigned int t1,t2;
                        t1=timer2_leer();
 c008bd8:	e1a0c000 	mov	ip, r0
                        patron = patron_volteo_arm_arm(tablero, &longitud, i, j, SF, SC, FICHA_BLANCA);
 c008bdc:	e1a02009 	mov	r2, r9
 c008be0:	e51b3038 	ldr	r3, [fp, #-56]	; 0xffffffc8
 c008be4:	e1a00008 	mov	r0, r8
 c008be8:	e50bc05c 	str	ip, [fp, #-92]	; 0xffffffa4
 c008bec:	e58d5000 	str	r5, [sp]
 c008bf0:	e58d5004 	str	r5, [sp, #4]
 c008bf4:	e58d5008 	str	r5, [sp, #8]
 c008bf8:	ebffe444 	bl	c001d10 <patron_volteo_arm_arm>
                        t2=timer2_leer();
 c008bfc:	e50b0060 	str	r0, [fp, #-96]	; 0xffffffa0
 c008c00:	eb0003a0 	bl	c009a88 <timer2_leer>
                        LCD_tvolteo(t2-t1);
 c008c04:	e51b205c 	ldr	r2, [fp, #-92]	; 0xffffffa4
 c008c08:	e0620000 	rsb	r0, r2, r0
 c008c0c:	ebfff9c1 	bl	c007318 <LCD_tvolteo>
                        //  //printf("%d ", patron);
                        if (patron == PATRON_ENCONTRADO){
 c008c10:	e51b0060 	ldr	r0, [fp, #-96]	; 0xffffffa0
 c008c14:	e3500001 	cmp	r0, #1
 c008c18:	0a00004e 	beq	c008d58 <reversi_procesar+0x340>
                    while ((found == 0) && (k < DIM)){
                        SF = vSF[k];    // k representa la dirección que miramos
                        SC = vSC[k];    // 1 es norte, 2 NE, 3 E ...

                        // nos dice qué hay que voltear en cada dirección
                        longitud = 0;
 c008c1c:	e50b6030 	str	r6, [fp, #-48]	; 0xffffffd0
                        unsigned int t1,t2;
                        t1=timer2_leer();
 c008c20:	eb000398 	bl	c009a88 <timer2_leer>
                        patron = patron_volteo_arm_arm(tablero, &longitud, i, j, SF, SC, FICHA_BLANCA);
 c008c24:	e24b1030 	sub	r1, fp, #48	; 0x30
                        SC = vSC[k];    // 1 es norte, 2 NE, 3 E ...

                        // nos dice qué hay que voltear en cada dirección
                        longitud = 0;
                        unsigned int t1,t2;
                        t1=timer2_leer();
 c008c28:	e1a0c000 	mov	ip, r0
                        patron = patron_volteo_arm_arm(tablero, &longitud, i, j, SF, SC, FICHA_BLANCA);
 c008c2c:	e1a02009 	mov	r2, r9
 c008c30:	e51b3038 	ldr	r3, [fp, #-56]	; 0xffffffc8
 c008c34:	e1a00008 	mov	r0, r8
 c008c38:	e50bc05c 	str	ip, [fp, #-92]	; 0xffffffa4
 c008c3c:	e88d0060 	stm	sp, {r5, r6}
 c008c40:	e58d5008 	str	r5, [sp, #8]
 c008c44:	ebffe431 	bl	c001d10 <patron_volteo_arm_arm>
                        t2=timer2_leer();
 c008c48:	e50b0060 	str	r0, [fp, #-96]	; 0xffffffa0
 c008c4c:	eb00038d 	bl	c009a88 <timer2_leer>
                        LCD_tvolteo(t2-t1);
 c008c50:	e51b305c 	ldr	r3, [fp, #-92]	; 0xffffffa4
 c008c54:	e0630000 	rsb	r0, r3, r0
 c008c58:	ebfff9ae 	bl	c007318 <LCD_tvolteo>
                        //  //printf("%d ", patron);
                        if (patron == PATRON_ENCONTRADO){
 c008c5c:	e51b1060 	ldr	r1, [fp, #-96]	; 0xffffffa0
 c008c60:	e3510001 	cmp	r1, #1
 c008c64:	0a00003b 	beq	c008d58 <reversi_procesar+0x340>
                    while ((found == 0) && (k < DIM)){
                        SF = vSF[k];    // k representa la dirección que miramos
                        SC = vSC[k];    // 1 es norte, 2 NE, 3 E ...

                        // nos dice qué hay que voltear en cada dirección
                        longitud = 0;
 c008c68:	e50b6030 	str	r6, [fp, #-48]	; 0xffffffd0
                        unsigned int t1,t2;
                        t1=timer2_leer();
 c008c6c:	eb000385 	bl	c009a88 <timer2_leer>
                        patron = patron_volteo_arm_arm(tablero, &longitud, i, j, SF, SC, FICHA_BLANCA);
 c008c70:	e3a0e0ff 	mov	lr, #255	; 0xff
                        SC = vSC[k];    // 1 es norte, 2 NE, 3 E ...

                        // nos dice qué hay que voltear en cada dirección
                        longitud = 0;
                        unsigned int t1,t2;
                        t1=timer2_leer();
 c008c74:	e1a0c000 	mov	ip, r0
                        patron = patron_volteo_arm_arm(tablero, &longitud, i, j, SF, SC, FICHA_BLANCA);
 c008c78:	e24b1030 	sub	r1, fp, #48	; 0x30
 c008c7c:	e1a02009 	mov	r2, r9
 c008c80:	e51b3038 	ldr	r3, [fp, #-56]	; 0xffffffc8
 c008c84:	e1a00008 	mov	r0, r8
 c008c88:	e58de004 	str	lr, [sp, #4]
 c008c8c:	e50bc05c 	str	ip, [fp, #-92]	; 0xffffffa4
 c008c90:	e58d5000 	str	r5, [sp]
 c008c94:	e58d5008 	str	r5, [sp, #8]
 c008c98:	ebffe41c 	bl	c001d10 <patron_volteo_arm_arm>
                        t2=timer2_leer();
 c008c9c:	e50b0060 	str	r0, [fp, #-96]	; 0xffffffa0
 c008ca0:	eb000378 	bl	c009a88 <timer2_leer>
                        LCD_tvolteo(t2-t1);
 c008ca4:	e51b205c 	ldr	r2, [fp, #-92]	; 0xffffffa4
 c008ca8:	e0620000 	rsb	r0, r2, r0
 c008cac:	ebfff999 	bl	c007318 <LCD_tvolteo>
                        //  //printf("%d ", patron);
                        if (patron == PATRON_ENCONTRADO){
 c008cb0:	e51b0060 	ldr	r0, [fp, #-96]	; 0xffffffa0
 c008cb4:	e3500001 	cmp	r0, #1
 c008cb8:	0a000026 	beq	c008d58 <reversi_procesar+0x340>
                    while ((found == 0) && (k < DIM)){
                        SF = vSF[k];    // k representa la dirección que miramos
                        SC = vSC[k];    // 1 es norte, 2 NE, 3 E ...

                        // nos dice qué hay que voltear en cada dirección
                        longitud = 0;
 c008cbc:	e50b6030 	str	r6, [fp, #-48]	; 0xffffffd0
                        unsigned int t1,t2;
                        t1=timer2_leer();
 c008cc0:	eb000370 	bl	c009a88 <timer2_leer>
                        patron = patron_volteo_arm_arm(tablero, &longitud, i, j, SF, SC, FICHA_BLANCA);
 c008cc4:	e24b1030 	sub	r1, fp, #48	; 0x30
                        SC = vSC[k];    // 1 es norte, 2 NE, 3 E ...

                        // nos dice qué hay que voltear en cada dirección
                        longitud = 0;
                        unsigned int t1,t2;
                        t1=timer2_leer();
 c008cc8:	e1a0c000 	mov	ip, r0
                        patron = patron_volteo_arm_arm(tablero, &longitud, i, j, SF, SC, FICHA_BLANCA);
 c008ccc:	e3a0e0ff 	mov	lr, #255	; 0xff
 c008cd0:	e1a02009 	mov	r2, r9
 c008cd4:	e51b3038 	ldr	r3, [fp, #-56]	; 0xffffffc8
 c008cd8:	e1a00008 	mov	r0, r8
 c008cdc:	e58de004 	str	lr, [sp, #4]
 c008ce0:	e50bc05c 	str	ip, [fp, #-92]	; 0xffffffa4
 c008ce4:	e58d6000 	str	r6, [sp]
 c008ce8:	e58d5008 	str	r5, [sp, #8]
 c008cec:	ebffe407 	bl	c001d10 <patron_volteo_arm_arm>
                        t2=timer2_leer();
 c008cf0:	e50b0060 	str	r0, [fp, #-96]	; 0xffffffa0
 c008cf4:	eb000363 	bl	c009a88 <timer2_leer>
                        LCD_tvolteo(t2-t1);
 c008cf8:	e51b305c 	ldr	r3, [fp, #-92]	; 0xffffffa4
 c008cfc:	e0630000 	rsb	r0, r3, r0
 c008d00:	ebfff984 	bl	c007318 <LCD_tvolteo>
                        //  //printf("%d ", patron);
                        if (patron == PATRON_ENCONTRADO){
 c008d04:	e51b1060 	ldr	r1, [fp, #-96]	; 0xffffffa0
 c008d08:	e3510001 	cmp	r1, #1
 c008d0c:	0a000011 	beq	c008d58 <reversi_procesar+0x340>
                    while ((found == 0) && (k < DIM)){
                        SF = vSF[k];    // k representa la dirección que miramos
                        SC = vSC[k];    // 1 es norte, 2 NE, 3 E ...

                        // nos dice qué hay que voltear en cada dirección
                        longitud = 0;
 c008d10:	e50b6030 	str	r6, [fp, #-48]	; 0xffffffd0
                        unsigned int t1,t2;
                        t1=timer2_leer();
 c008d14:	eb00035b 	bl	c009a88 <timer2_leer>
                        patron = patron_volteo_arm_arm(tablero, &longitud, i, j, SF, SC, FICHA_BLANCA);
 c008d18:	e3a0c0ff 	mov	ip, #255	; 0xff
 c008d1c:	e24b1030 	sub	r1, fp, #48	; 0x30
 c008d20:	e1a02009 	mov	r2, r9
 c008d24:	e51b3038 	ldr	r3, [fp, #-56]	; 0xffffffc8
                        SC = vSC[k];    // 1 es norte, 2 NE, 3 E ...

                        // nos dice qué hay que voltear en cada dirección
                        longitud = 0;
                        unsigned int t1,t2;
                        t1=timer2_leer();
 c008d28:	e1a06000 	mov	r6, r0
                        patron = patron_volteo_arm_arm(tablero, &longitud, i, j, SF, SC, FICHA_BLANCA);
 c008d2c:	e1a00008 	mov	r0, r8
 c008d30:	e58dc000 	str	ip, [sp]
 c008d34:	e58dc004 	str	ip, [sp, #4]
 c008d38:	e58d5008 	str	r5, [sp, #8]
 c008d3c:	ebffe3f3 	bl	c001d10 <patron_volteo_arm_arm>
 c008d40:	e1a05000 	mov	r5, r0
                        t2=timer2_leer();
 c008d44:	eb00034f 	bl	c009a88 <timer2_leer>
                        LCD_tvolteo(t2-t1);
 c008d48:	e0660000 	rsb	r0, r6, r0
 c008d4c:	ebfff971 	bl	c007318 <LCD_tvolteo>
                        //  //printf("%d ", patron);
                        if (patron == PATRON_ENCONTRADO){
 c008d50:	e3550001 	cmp	r5, #1
 c008d54:	1affff51 	bne	c008aa0 <reversi_procesar+0x88>
                            found = 1;
                            if (tabla_valor[i][j] > mejor){
 c008d58:	e51b1040 	ldr	r1, [fp, #-64]	; 0xffffffc0
 c008d5c:	e51b003c 	ldr	r0, [fp, #-60]	; 0xffffffc4
 c008d60:	e7d12004 	ldrb	r2, [r1, r4]
 c008d64:	e1520000 	cmp	r2, r0
 c008d68:	850b404c 	strhi	r4, [fp, #-76]	; 0xffffffb4
    char SF, SC; // cantidades a sumar para movernos en la dirección que toque

    // Recorremos el tablero comprobando dónde podemos mover
    // Comparamos la puntuación de los movimientos encontrados y nos quedamos con el mejor
    for (i=0; i<DIM; i++){
        for (j=0; j<DIM; j++){   // indica en qué casillas quizá se pueda mover
 c008d6c:	e2844001 	add	r4, r4, #1
                        t2=timer2_leer();
                        LCD_tvolteo(t2-t1);
                        //  //printf("%d ", patron);
                        if (patron == PATRON_ENCONTRADO){
                            found = 1;
                            if (tabla_valor[i][j] > mejor){
 c008d70:	850b203c 	strhi	r2, [fp, #-60]	; 0xffffffc4
 c008d74:	850ba048 	strhi	sl, [fp, #-72]	; 0xffffffb8
    char SF, SC; // cantidades a sumar para movernos en la dirección que toque

    // Recorremos el tablero comprobando dónde podemos mover
    // Comparamos la puntuación de los movimientos encontrados y nos quedamos con el mejor
    for (i=0; i<DIM; i++){
        for (j=0; j<DIM; j++){   // indica en qué casillas quizá se pueda mover
 c008d78:	e3540008 	cmp	r4, #8
 c008d7c:	1affff4a 	bne	c008aac <reversi_procesar+0x94>
    int patron, longitud;
    char SF, SC; // cantidades a sumar para movernos en la dirección que toque

    // Recorremos el tablero comprobando dónde podemos mover
    // Comparamos la puntuación de los movimientos encontrados y nos quedamos con el mejor
    for (i=0; i<DIM; i++){
 c008d80:	e28aa001 	add	sl, sl, #1
 c008d84:	e35a0008 	cmp	sl, #8
 c008d88:	e2877008 	add	r7, r7, #8
 c008d8c:	1affff3b 	bne	c008a80 <reversi_procesar+0x68>
	    	}
	    }

	    //movimiento de la maquina
	    done = elegir_mov(candidatas, tablero, &f, &c);
	    if (done == -1){ 	// La maquina no puede mover
 c008d90:	e51b3048 	ldr	r3, [fp, #-72]	; 0xffffffb8
 c008d94:	e3730001 	cmn	r3, #1
 c008d98:	0a000080 	beq	c008fa0 <reversi_procesar+0x588>
                }
            }
        }
    }
    *f = (char) mf;
    *c = (char) mc;
 c008d9c:	e51b404c 	ldr	r4, [fp, #-76]	; 0xffffffb4
                    }
                }
            }
        }
    }
    *f = (char) mf;
 c008da0:	e20360ff 	and	r6, r3, #255	; 0xff
    *c = (char) mc;
 c008da4:	e204a0ff 	and	sl, r4, #255	; 0xff
	        contar(tablero, &blancas, &negras);
	        if (blancas+negras == DIM*DIM | move==0){
	            fin = 1;	// Si no puede mover la máquina, comprobamos fin de partida,
	        }				// es fin si el humano no ha movido o si el tablero está lleno.
	    }else{
	        tablero[f][c] = FICHA_BLANCA;
 c008da8:	e0889186 	add	r9, r8, r6, lsl #3
 c008dac:	e3a07001 	mov	r7, #1
                    }
                }
            }
        }
    }
    *f = (char) mf;
 c008db0:	e50b6038 	str	r6, [fp, #-56]	; 0xffffffc8
    *c = (char) mc;
 c008db4:	e50ba03c 	str	sl, [fp, #-60]	; 0xffffffc4
    char SF, SC; // cantidades a sumar para movernos en la dirección que toque
    int i, flip, patron;

    // char vSF[DIM] = {-1,-1, 0, 1, 1, 1, 0,-1};
    // char vSC[DIM] = { 0, 1, 1, 1, 0,-1,-1,-1};
    for (i = 0; i < DIM; i++){ // 0 es Norte, 1 NE, 2 E ...
 c008db8:	e3a06000 	mov	r6, #0
	        contar(tablero, &blancas, &negras);
	        if (blancas+negras == DIM*DIM | move==0){
	            fin = 1;	// Si no puede mover la máquina, comprobamos fin de partida,
	        }				// es fin si el humano no ha movido o si el tablero está lleno.
	    }else{
	        tablero[f][c] = FICHA_BLANCA;
 c008dbc:	e7c9700a 	strb	r7, [r9, sl]
 c008dc0:	ea000002 	b	c008dd0 <reversi_procesar+0x3b8>
    char SF, SC; // cantidades a sumar para movernos en la dirección que toque
    int i, flip, patron;

    // char vSF[DIM] = {-1,-1, 0, 1, 1, 1, 0,-1};
    // char vSC[DIM] = { 0, 1, 1, 1, 0,-1,-1,-1};
    for (i = 0; i < DIM; i++){ // 0 es Norte, 1 NE, 2 E ...
 c008dc4:	e2866001 	add	r6, r6, #1
 c008dc8:	e3560008 	cmp	r6, #8
 c008dcc:	0a000066 	beq	c008f6c <reversi_procesar+0x554>
        SF = vSF[i];
 c008dd0:	e59f59e0 	ldr	r5, [pc, #2528]	; c0097b8 <reversi_procesar+0xda0>
        SC = vSC[i];
        // flip: numero de fichas a voltear
        flip = 0;
 c008dd4:	e3a00000 	mov	r0, #0

    // char vSF[DIM] = {-1,-1, 0, 1, 1, 1, 0,-1};
    // char vSC[DIM] = { 0, 1, 1, 1, 0,-1,-1,-1};
    for (i = 0; i < DIM; i++){ // 0 es Norte, 1 NE, 2 E ...
        SF = vSF[i];
        SC = vSC[i];
 c008dd8:	e2851008 	add	r1, r5, #8
    int i, flip, patron;

    // char vSF[DIM] = {-1,-1, 0, 1, 1, 1, 0,-1};
    // char vSC[DIM] = { 0, 1, 1, 1, 0,-1,-1,-1};
    for (i = 0; i < DIM; i++){ // 0 es Norte, 1 NE, 2 E ...
        SF = vSF[i];
 c008ddc:	e7d54006 	ldrb	r4, [r5, r6]
        SC = vSC[i];
        // flip: numero de fichas a voltear
        flip = 0;
 c008de0:	e50b0030 	str	r0, [fp, #-48]	; 0xffffffd0

    // char vSF[DIM] = {-1,-1, 0, 1, 1, 1, 0,-1};
    // char vSC[DIM] = { 0, 1, 1, 1, 0,-1,-1,-1};
    for (i = 0; i < DIM; i++){ // 0 es Norte, 1 NE, 2 E ...
        SF = vSF[i];
        SC = vSC[i];
 c008de4:	e7d15006 	ldrb	r5, [r1, r6]
        // flip: numero de fichas a voltear
        flip = 0;
        unsigned int t1,t2;
        t1=timer2_leer();
 c008de8:	eb000326 	bl	c009a88 <timer2_leer>
        patron = patron_volteo_arm_arm(tablero, &flip, f, c, SF, SC, color);
 c008dec:	e24b1030 	sub	r1, fp, #48	; 0x30
 c008df0:	e51b2038 	ldr	r2, [fp, #-56]	; 0xffffffc8
 c008df4:	e51b303c 	ldr	r3, [fp, #-60]	; 0xffffffc4
        SF = vSF[i];
        SC = vSC[i];
        // flip: numero de fichas a voltear
        flip = 0;
        unsigned int t1,t2;
        t1=timer2_leer();
 c008df8:	e1a0a000 	mov	sl, r0
        patron = patron_volteo_arm_arm(tablero, &flip, f, c, SF, SC, color);
 c008dfc:	e1a00008 	mov	r0, r8
 c008e00:	e88d00b0 	stm	sp, {r4, r5, r7}
 c008e04:	ebffe3c1 	bl	c001d10 <patron_volteo_arm_arm>
 c008e08:	e1a09000 	mov	r9, r0
        t2=timer2_leer();
 c008e0c:	eb00031d 	bl	c009a88 <timer2_leer>
        LCD_tvolteo(t2-t1);
 c008e10:	e06a0000 	rsb	r0, sl, r0
 c008e14:	ebfff93f 	bl	c007318 <LCD_tvolteo>
        //printf("Flip: %d \n", flip);
        if (patron == PATRON_ENCONTRADO ){
 c008e18:	e3590001 	cmp	r9, #1
 c008e1c:	1affffe8 	bne	c008dc4 <reversi_procesar+0x3ac>
            voltear(tablero, f, c, SF, SC, flip, color);
 c008e20:	e51b1030 	ldr	r1, [fp, #-48]	; 0xffffffd0
/*
 * Voltea N fichas desde (FA,CA) en la dirección (SF,SC) con ficha COLOR.
 */
void voltear(char tablero[][DIM], char FA, char CA, char SF, char SC, int n, char color){
    int i;
    for (i = 0; i < n; i++){
 c008e24:	e3510000 	cmp	r1, #0
 c008e28:	daffffe5 	ble	c008dc4 <reversi_procesar+0x3ac>
        FA = FA + SF;
 c008e2c:	e24b003c 	sub	r0, fp, #60	; 0x3c
 c008e30:	e8901001 	ldm	r0, {r0, ip}
 c008e34:	e08c3004 	add	r3, ip, r4
        CA = CA + SC;
 c008e38:	e080e005 	add	lr, r0, r5
 * Voltea N fichas desde (FA,CA) en la dirección (SF,SC) con ficha COLOR.
 */
void voltear(char tablero[][DIM], char FA, char CA, char SF, char SC, int n, char color){
    int i;
    for (i = 0; i < n; i++){
        FA = FA + SF;
 c008e3c:	e20330ff 	and	r3, r3, #255	; 0xff
 c008e40:	e2412001 	sub	r2, r1, #1
        CA = CA + SC;
 c008e44:	e20ee0ff 	and	lr, lr, #255	; 0xff
        tablero[FA][CA] = color;
 c008e48:	e088c183 	add	ip, r8, r3, lsl #3
/*
 * Voltea N fichas desde (FA,CA) en la dirección (SF,SC) con ficha COLOR.
 */
void voltear(char tablero[][DIM], char FA, char CA, char SF, char SC, int n, char color){
    int i;
    for (i = 0; i < n; i++){
 c008e4c:	e1570001 	cmp	r7, r1
 c008e50:	e2020003 	and	r0, r2, #3
        FA = FA + SF;
        CA = CA + SC;
        tablero[FA][CA] = color;
 c008e54:	e7cc700e 	strb	r7, [ip, lr]
/*
 * Voltea N fichas desde (FA,CA) en la dirección (SF,SC) con ficha COLOR.
 */
void voltear(char tablero[][DIM], char FA, char CA, char SF, char SC, int n, char color){
    int i;
    for (i = 0; i < n; i++){
 c008e58:	e1a02007 	mov	r2, r7
 c008e5c:	0affffd8 	beq	c008dc4 <reversi_procesar+0x3ac>
 c008e60:	e3500000 	cmp	r0, #0
 c008e64:	0a00001a 	beq	c008ed4 <reversi_procesar+0x4bc>
 c008e68:	e3500001 	cmp	r0, #1
 c008e6c:	0a00000f 	beq	c008eb0 <reversi_procesar+0x498>
 c008e70:	e3500002 	cmp	r0, #2
 c008e74:	0a000006 	beq	c008e94 <reversi_procesar+0x47c>
        FA = FA + SF;
 c008e78:	e0833004 	add	r3, r3, r4
 c008e7c:	e20330ff 	and	r3, r3, #255	; 0xff
        CA = CA + SC;
 c008e80:	e08ee005 	add	lr, lr, r5
 c008e84:	e20ee0ff 	and	lr, lr, #255	; 0xff
        tablero[FA][CA] = color;
 c008e88:	e0880183 	add	r0, r8, r3, lsl #3
 c008e8c:	e7c0700e 	strb	r7, [r0, lr]
/*
 * Voltea N fichas desde (FA,CA) en la dirección (SF,SC) con ficha COLOR.
 */
void voltear(char tablero[][DIM], char FA, char CA, char SF, char SC, int n, char color){
    int i;
    for (i = 0; i < n; i++){
 c008e90:	e3a02002 	mov	r2, #2
        FA = FA + SF;
 c008e94:	e0833004 	add	r3, r3, r4
 c008e98:	e20330ff 	and	r3, r3, #255	; 0xff
        CA = CA + SC;
 c008e9c:	e08e0005 	add	r0, lr, r5
 c008ea0:	e200e0ff 	and	lr, r0, #255	; 0xff
        tablero[FA][CA] = color;
 c008ea4:	e088c183 	add	ip, r8, r3, lsl #3
 c008ea8:	e7cc700e 	strb	r7, [ip, lr]
/*
 * Voltea N fichas desde (FA,CA) en la dirección (SF,SC) con ficha COLOR.
 */
void voltear(char tablero[][DIM], char FA, char CA, char SF, char SC, int n, char color){
    int i;
    for (i = 0; i < n; i++){
 c008eac:	e2822001 	add	r2, r2, #1
        FA = FA + SF;
 c008eb0:	e0830004 	add	r0, r3, r4
 c008eb4:	e20030ff 	and	r3, r0, #255	; 0xff
        CA = CA + SC;
 c008eb8:	e08ee005 	add	lr, lr, r5
/*
 * Voltea N fichas desde (FA,CA) en la dirección (SF,SC) con ficha COLOR.
 */
void voltear(char tablero[][DIM], char FA, char CA, char SF, char SC, int n, char color){
    int i;
    for (i = 0; i < n; i++){
 c008ebc:	e2822001 	add	r2, r2, #1
        FA = FA + SF;
        CA = CA + SC;
 c008ec0:	e20ee0ff 	and	lr, lr, #255	; 0xff
        tablero[FA][CA] = color;
 c008ec4:	e088c183 	add	ip, r8, r3, lsl #3
/*
 * Voltea N fichas desde (FA,CA) en la dirección (SF,SC) con ficha COLOR.
 */
void voltear(char tablero[][DIM], char FA, char CA, char SF, char SC, int n, char color){
    int i;
    for (i = 0; i < n; i++){
 c008ec8:	e1520001 	cmp	r2, r1
        FA = FA + SF;
        CA = CA + SC;
        tablero[FA][CA] = color;
 c008ecc:	e7cc700e 	strb	r7, [ip, lr]
/*
 * Voltea N fichas desde (FA,CA) en la dirección (SF,SC) con ficha COLOR.
 */
void voltear(char tablero[][DIM], char FA, char CA, char SF, char SC, int n, char color){
    int i;
    for (i = 0; i < n; i++){
 c008ed0:	0affffbb 	beq	c008dc4 <reversi_procesar+0x3ac>
 c008ed4:	e50b1044 	str	r1, [fp, #-68]	; 0xffffffbc
 c008ed8:	e50b6048 	str	r6, [fp, #-72]	; 0xffffffb8
        FA = FA + SF;
 c008edc:	e083a004 	add	sl, r3, r4
 c008ee0:	e20a90ff 	and	r9, sl, #255	; 0xff
 c008ee4:	e0896004 	add	r6, r9, r4
 c008ee8:	e206a0ff 	and	sl, r6, #255	; 0xff
        CA = CA + SC;
 c008eec:	e08ec005 	add	ip, lr, r5
 * Voltea N fichas desde (FA,CA) en la dirección (SF,SC) con ficha COLOR.
 */
void voltear(char tablero[][DIM], char FA, char CA, char SF, char SC, int n, char color){
    int i;
    for (i = 0; i < n; i++){
        FA = FA + SF;
 c008ef0:	e08ae004 	add	lr, sl, r4
 c008ef4:	e20e60ff 	and	r6, lr, #255	; 0xff
        CA = CA + SC;
        tablero[FA][CA] = color;
 c008ef8:	e0889189 	add	r9, r8, r9, lsl #3
 c008efc:	e50b9040 	str	r9, [fp, #-64]	; 0xffffffc0
 */
void voltear(char tablero[][DIM], char FA, char CA, char SF, char SC, int n, char color){
    int i;
    for (i = 0; i < n; i++){
        FA = FA + SF;
        CA = CA + SC;
 c008f00:	e20cc0ff 	and	ip, ip, #255	; 0xff
        tablero[FA][CA] = color;
 c008f04:	e0889186 	add	r9, r8, r6, lsl #3
 * Voltea N fichas desde (FA,CA) en la dirección (SF,SC) con ficha COLOR.
 */
void voltear(char tablero[][DIM], char FA, char CA, char SF, char SC, int n, char color){
    int i;
    for (i = 0; i < n; i++){
        FA = FA + SF;
 c008f08:	e0863004 	add	r3, r6, r4
/*
 * Voltea N fichas desde (FA,CA) en la dirección (SF,SC) con ficha COLOR.
 */
void voltear(char tablero[][DIM], char FA, char CA, char SF, char SC, int n, char color){
    int i;
    for (i = 0; i < n; i++){
 c008f0c:	e51b6044 	ldr	r6, [fp, #-68]	; 0xffffffbc
        FA = FA + SF;
        CA = CA + SC;
 c008f10:	e08c0005 	add	r0, ip, r5
/*
 * Voltea N fichas desde (FA,CA) en la dirección (SF,SC) con ficha COLOR.
 */
void voltear(char tablero[][DIM], char FA, char CA, char SF, char SC, int n, char color){
    int i;
    for (i = 0; i < n; i++){
 c008f14:	e2822004 	add	r2, r2, #4
        FA = FA + SF;
        CA = CA + SC;
 c008f18:	e20000ff 	and	r0, r0, #255	; 0xff
/*
 * Voltea N fichas desde (FA,CA) en la dirección (SF,SC) con ficha COLOR.
 */
void voltear(char tablero[][DIM], char FA, char CA, char SF, char SC, int n, char color){
    int i;
    for (i = 0; i < n; i++){
 c008f1c:	e1520006 	cmp	r2, r6
        FA = FA + SF;
        CA = CA + SC;
        tablero[FA][CA] = color;
 c008f20:	e51b6040 	ldr	r6, [fp, #-64]	; 0xffffffc0
 */
void voltear(char tablero[][DIM], char FA, char CA, char SF, char SC, int n, char color){
    int i;
    for (i = 0; i < n; i++){
        FA = FA + SF;
        CA = CA + SC;
 c008f24:	e0801005 	add	r1, r0, r5
        tablero[FA][CA] = color;
 c008f28:	e088a18a 	add	sl, r8, sl, lsl #3
 c008f2c:	e50b904c 	str	r9, [fp, #-76]	; 0xffffffb4
 */
void voltear(char tablero[][DIM], char FA, char CA, char SF, char SC, int n, char color){
    int i;
    for (i = 0; i < n; i++){
        FA = FA + SF;
        CA = CA + SC;
 c008f30:	e20110ff 	and	r1, r1, #255	; 0xff
        tablero[FA][CA] = color;
 c008f34:	e7c6700c 	strb	r7, [r6, ip]
 c008f38:	e7ca7000 	strb	r7, [sl, r0]
 c008f3c:	e51b604c 	ldr	r6, [fp, #-76]	; 0xffffffb4
 * Voltea N fichas desde (FA,CA) en la dirección (SF,SC) con ficha COLOR.
 */
void voltear(char tablero[][DIM], char FA, char CA, char SF, char SC, int n, char color){
    int i;
    for (i = 0; i < n; i++){
        FA = FA + SF;
 c008f40:	e20330ff 	and	r3, r3, #255	; 0xff
        CA = CA + SC;
 c008f44:	e081e005 	add	lr, r1, r5
 c008f48:	e20ee0ff 	and	lr, lr, #255	; 0xff
        tablero[FA][CA] = color;
 c008f4c:	e0889183 	add	r9, r8, r3, lsl #3
 c008f50:	e7c67001 	strb	r7, [r6, r1]
 c008f54:	e7c9700e 	strb	r7, [r9, lr]
/*
 * Voltea N fichas desde (FA,CA) en la dirección (SF,SC) con ficha COLOR.
 */
void voltear(char tablero[][DIM], char FA, char CA, char SF, char SC, int n, char color){
    int i;
    for (i = 0; i < n; i++){
 c008f58:	1affffdf 	bne	c008edc <reversi_procesar+0x4c4>
 c008f5c:	e51b6048 	ldr	r6, [fp, #-72]	; 0xffffffb8
    char SF, SC; // cantidades a sumar para movernos en la dirección que toque
    int i, flip, patron;

    // char vSF[DIM] = {-1,-1, 0, 1, 1, 1, 0,-1};
    // char vSC[DIM] = { 0, 1, 1, 1, 0,-1,-1,-1};
    for (i = 0; i < DIM; i++){ // 0 es Norte, 1 NE, 2 E ...
 c008f60:	e2866001 	add	r6, r6, #1
 c008f64:	e3560008 	cmp	r6, #8
 c008f68:	1affff98 	bne	c008dd0 <reversi_procesar+0x3b8>
	            fin = 1;	// Si no puede mover la máquina, comprobamos fin de partida,
	        }				// es fin si el humano no ha movido o si el tablero está lleno.
	    }else{
	        tablero[f][c] = FICHA_BLANCA;
	        actualizar_tablero(tablero, f, c, FICHA_BLANCA);
	        actualizar_candidatas(candidatas, f, c);
 c008f6c:	e51b0050 	ldr	r0, [fp, #-80]	; 0xffffffb0
 c008f70:	e51b1038 	ldr	r1, [fp, #-56]	; 0xffffffc8
 c008f74:	e51b203c 	ldr	r2, [fp, #-60]	; 0xffffffc4
 c008f78:	ebfffe40 	bl	c008880 <actualizar_candidatas>
	unsigned int t1,t2;
	t1=timer2_leer();
		int done;     		// la máquina ha conseguido mover o no
		int move = 0; 		// el humano ha conseguido mover o no
		int blancas, negras;// número de fichas de cada color
		int fin = 0;  		// fin vale 1 si no hay casillas vacias
 c008f7c:	e3a04000 	mov	r4, #0
	    }else{
	        tablero[f][c] = FICHA_BLANCA;
	        actualizar_tablero(tablero, f, c, FICHA_BLANCA);
	        actualizar_candidatas(candidatas, f, c);
	    }
	    t2=timer2_leer();	// El tiempo de cálculo es el tiempo de ejecución de reversi_procesar();
 c008f80:	eb0002c0 	bl	c009a88 <timer2_leer>
	    LCD_tcalculo(t2-t1);
 c008f84:	e51b2054 	ldr	r2, [fp, #-84]	; 0xffffffac
 c008f88:	e0620000 	rsb	r0, r2, r0
 c008f8c:	ebfff8db 	bl	c007300 <LCD_tcalculo>
	    return fin;
}
 c008f90:	e1a00004 	mov	r0, r4
 c008f94:	e24bd028 	sub	sp, fp, #40	; 0x28
 c008f98:	e89d6ff0 	ldm	sp, {r4, r5, r6, r7, r8, r9, sl, fp, sp, lr}
 c008f9c:	e12fff1e 	bx	lr
    *n = 0;

    // recorremos el tablero contando las fichas de cada color
    for (i=0; i<DIM; i++){
        for (j=0; j<DIM; j++){
            if (tablero[i][j] == FICHA_BLANCA){
 c008fa0:	e5d82000 	ldrb	r2, [r8]
 c008fa4:	e3520001 	cmp	r2, #1
 c008fa8:	03a03000 	moveq	r3, #0
 c008fac:	0a000004 	beq	c008fc4 <reversi_procesar+0x5ac>
                (*b)++;
            }else if (tablero[i][j] == FICHA_NEGRA){
 c008fb0:	e3520002 	cmp	r2, #2
 c008fb4:	13a03000 	movne	r3, #0
                (*n)++;
 c008fb8:	02833002 	addeq	r3, r3, #2
    // recorremos el tablero contando las fichas de cada color
    for (i=0; i<DIM; i++){
        for (j=0; j<DIM; j++){
            if (tablero[i][j] == FICHA_BLANCA){
                (*b)++;
            }else if (tablero[i][j] == FICHA_NEGRA){
 c008fbc:	03a02000 	moveq	r2, #0
 c008fc0:	11a02003 	movne	r2, r3
    *n = 0;

    // recorremos el tablero contando las fichas de cada color
    for (i=0; i<DIM; i++){
        for (j=0; j<DIM; j++){
            if (tablero[i][j] == FICHA_BLANCA){
 c008fc4:	e5d81001 	ldrb	r1, [r8, #1]
 c008fc8:	e3510001 	cmp	r1, #1
                (*b)++;
 c008fcc:	02822001 	addeq	r2, r2, #1
    *n = 0;

    // recorremos el tablero contando las fichas de cada color
    for (i=0; i<DIM; i++){
        for (j=0; j<DIM; j++){
            if (tablero[i][j] == FICHA_BLANCA){
 c008fd0:	0a000001 	beq	c008fdc <reversi_procesar+0x5c4>
                (*b)++;
            }else if (tablero[i][j] == FICHA_NEGRA){
 c008fd4:	e3510002 	cmp	r1, #2
                (*n)++;
 c008fd8:	02833001 	addeq	r3, r3, #1
    *n = 0;

    // recorremos el tablero contando las fichas de cada color
    for (i=0; i<DIM; i++){
        for (j=0; j<DIM; j++){
            if (tablero[i][j] == FICHA_BLANCA){
 c008fdc:	e5d81002 	ldrb	r1, [r8, #2]
 c008fe0:	e3510001 	cmp	r1, #1
                (*b)++;
 c008fe4:	02822001 	addeq	r2, r2, #1
    *n = 0;

    // recorremos el tablero contando las fichas de cada color
    for (i=0; i<DIM; i++){
        for (j=0; j<DIM; j++){
            if (tablero[i][j] == FICHA_BLANCA){
 c008fe8:	0a000001 	beq	c008ff4 <reversi_procesar+0x5dc>
                (*b)++;
            }else if (tablero[i][j] == FICHA_NEGRA){
 c008fec:	e3510002 	cmp	r1, #2
                (*n)++;
 c008ff0:	02833001 	addeq	r3, r3, #1
    *n = 0;

    // recorremos el tablero contando las fichas de cada color
    for (i=0; i<DIM; i++){
        for (j=0; j<DIM; j++){
            if (tablero[i][j] == FICHA_BLANCA){
 c008ff4:	e5d81003 	ldrb	r1, [r8, #3]
 c008ff8:	e3510001 	cmp	r1, #1
                (*b)++;
 c008ffc:	02822001 	addeq	r2, r2, #1
    *n = 0;

    // recorremos el tablero contando las fichas de cada color
    for (i=0; i<DIM; i++){
        for (j=0; j<DIM; j++){
            if (tablero[i][j] == FICHA_BLANCA){
 c009000:	0a000001 	beq	c00900c <reversi_procesar+0x5f4>
                (*b)++;
            }else if (tablero[i][j] == FICHA_NEGRA){
 c009004:	e3510002 	cmp	r1, #2
                (*n)++;
 c009008:	02833001 	addeq	r3, r3, #1
    *n = 0;

    // recorremos el tablero contando las fichas de cada color
    for (i=0; i<DIM; i++){
        for (j=0; j<DIM; j++){
            if (tablero[i][j] == FICHA_BLANCA){
 c00900c:	e5d81004 	ldrb	r1, [r8, #4]
 c009010:	e3510001 	cmp	r1, #1
                (*b)++;
 c009014:	02822001 	addeq	r2, r2, #1
    *n = 0;

    // recorremos el tablero contando las fichas de cada color
    for (i=0; i<DIM; i++){
        for (j=0; j<DIM; j++){
            if (tablero[i][j] == FICHA_BLANCA){
 c009018:	0a000001 	beq	c009024 <reversi_procesar+0x60c>
                (*b)++;
            }else if (tablero[i][j] == FICHA_NEGRA){
 c00901c:	e3510002 	cmp	r1, #2
                (*n)++;
 c009020:	02833001 	addeq	r3, r3, #1
    *n = 0;

    // recorremos el tablero contando las fichas de cada color
    for (i=0; i<DIM; i++){
        for (j=0; j<DIM; j++){
            if (tablero[i][j] == FICHA_BLANCA){
 c009024:	e5d81005 	ldrb	r1, [r8, #5]
 c009028:	e3510001 	cmp	r1, #1
                (*b)++;
 c00902c:	02822001 	addeq	r2, r2, #1
    *n = 0;

    // recorremos el tablero contando las fichas de cada color
    for (i=0; i<DIM; i++){
        for (j=0; j<DIM; j++){
            if (tablero[i][j] == FICHA_BLANCA){
 c009030:	0a000001 	beq	c00903c <reversi_procesar+0x624>
                (*b)++;
            }else if (tablero[i][j] == FICHA_NEGRA){
 c009034:	e3510002 	cmp	r1, #2
                (*n)++;
 c009038:	02833001 	addeq	r3, r3, #1
    *n = 0;

    // recorremos el tablero contando las fichas de cada color
    for (i=0; i<DIM; i++){
        for (j=0; j<DIM; j++){
            if (tablero[i][j] == FICHA_BLANCA){
 c00903c:	e5d81006 	ldrb	r1, [r8, #6]
 c009040:	e3510001 	cmp	r1, #1
                (*b)++;
 c009044:	02822001 	addeq	r2, r2, #1
    *n = 0;

    // recorremos el tablero contando las fichas de cada color
    for (i=0; i<DIM; i++){
        for (j=0; j<DIM; j++){
            if (tablero[i][j] == FICHA_BLANCA){
 c009048:	0a000001 	beq	c009054 <reversi_procesar+0x63c>
                (*b)++;
            }else if (tablero[i][j] == FICHA_NEGRA){
 c00904c:	e3510002 	cmp	r1, #2
                (*n)++;
 c009050:	02833001 	addeq	r3, r3, #1
    *n = 0;

    // recorremos el tablero contando las fichas de cada color
    for (i=0; i<DIM; i++){
        for (j=0; j<DIM; j++){
            if (tablero[i][j] == FICHA_BLANCA){
 c009054:	e5d81007 	ldrb	r1, [r8, #7]
 c009058:	e3510001 	cmp	r1, #1
                (*b)++;
 c00905c:	02822001 	addeq	r2, r2, #1
    *n = 0;

    // recorremos el tablero contando las fichas de cada color
    for (i=0; i<DIM; i++){
        for (j=0; j<DIM; j++){
            if (tablero[i][j] == FICHA_BLANCA){
 c009060:	0a000001 	beq	c00906c <reversi_procesar+0x654>
                (*b)++;
            }else if (tablero[i][j] == FICHA_NEGRA){
 c009064:	e3510002 	cmp	r1, #2
                (*n)++;
 c009068:	02833001 	addeq	r3, r3, #1
    *n = 0;

    // recorremos el tablero contando las fichas de cada color
    for (i=0; i<DIM; i++){
        for (j=0; j<DIM; j++){
            if (tablero[i][j] == FICHA_BLANCA){
 c00906c:	e5d80008 	ldrb	r0, [r8, #8]
 c009070:	e3500001 	cmp	r0, #1
 c009074:	e2881008 	add	r1, r8, #8
                (*b)++;
 c009078:	02822001 	addeq	r2, r2, #1
    *n = 0;

    // recorremos el tablero contando las fichas de cada color
    for (i=0; i<DIM; i++){
        for (j=0; j<DIM; j++){
            if (tablero[i][j] == FICHA_BLANCA){
 c00907c:	0a000001 	beq	c009088 <reversi_procesar+0x670>
                (*b)++;
            }else if (tablero[i][j] == FICHA_NEGRA){
 c009080:	e3500002 	cmp	r0, #2
                (*n)++;
 c009084:	02833001 	addeq	r3, r3, #1
    *n = 0;

    // recorremos el tablero contando las fichas de cada color
    for (i=0; i<DIM; i++){
        for (j=0; j<DIM; j++){
            if (tablero[i][j] == FICHA_BLANCA){
 c009088:	e5d10001 	ldrb	r0, [r1, #1]
 c00908c:	e3500001 	cmp	r0, #1
                (*b)++;
 c009090:	02822001 	addeq	r2, r2, #1
    *n = 0;

    // recorremos el tablero contando las fichas de cada color
    for (i=0; i<DIM; i++){
        for (j=0; j<DIM; j++){
            if (tablero[i][j] == FICHA_BLANCA){
 c009094:	0a000001 	beq	c0090a0 <reversi_procesar+0x688>
                (*b)++;
            }else if (tablero[i][j] == FICHA_NEGRA){
 c009098:	e3500002 	cmp	r0, #2
                (*n)++;
 c00909c:	02833001 	addeq	r3, r3, #1
    *n = 0;

    // recorremos el tablero contando las fichas de cada color
    for (i=0; i<DIM; i++){
        for (j=0; j<DIM; j++){
            if (tablero[i][j] == FICHA_BLANCA){
 c0090a0:	e5d10002 	ldrb	r0, [r1, #2]
 c0090a4:	e3500001 	cmp	r0, #1
                (*b)++;
 c0090a8:	02822001 	addeq	r2, r2, #1
    *n = 0;

    // recorremos el tablero contando las fichas de cada color
    for (i=0; i<DIM; i++){
        for (j=0; j<DIM; j++){
            if (tablero[i][j] == FICHA_BLANCA){
 c0090ac:	0a000001 	beq	c0090b8 <reversi_procesar+0x6a0>
                (*b)++;
            }else if (tablero[i][j] == FICHA_NEGRA){
 c0090b0:	e3500002 	cmp	r0, #2
                (*n)++;
 c0090b4:	02833001 	addeq	r3, r3, #1
    *n = 0;

    // recorremos el tablero contando las fichas de cada color
    for (i=0; i<DIM; i++){
        for (j=0; j<DIM; j++){
            if (tablero[i][j] == FICHA_BLANCA){
 c0090b8:	e5d10003 	ldrb	r0, [r1, #3]
 c0090bc:	e3500001 	cmp	r0, #1
                (*b)++;
 c0090c0:	02822001 	addeq	r2, r2, #1
    *n = 0;

    // recorremos el tablero contando las fichas de cada color
    for (i=0; i<DIM; i++){
        for (j=0; j<DIM; j++){
            if (tablero[i][j] == FICHA_BLANCA){
 c0090c4:	0a000001 	beq	c0090d0 <reversi_procesar+0x6b8>
                (*b)++;
            }else if (tablero[i][j] == FICHA_NEGRA){
 c0090c8:	e3500002 	cmp	r0, #2
                (*n)++;
 c0090cc:	02833001 	addeq	r3, r3, #1
    *n = 0;

    // recorremos el tablero contando las fichas de cada color
    for (i=0; i<DIM; i++){
        for (j=0; j<DIM; j++){
            if (tablero[i][j] == FICHA_BLANCA){
 c0090d0:	e5d10004 	ldrb	r0, [r1, #4]
 c0090d4:	e3500001 	cmp	r0, #1
                (*b)++;
 c0090d8:	02822001 	addeq	r2, r2, #1
    *n = 0;

    // recorremos el tablero contando las fichas de cada color
    for (i=0; i<DIM; i++){
        for (j=0; j<DIM; j++){
            if (tablero[i][j] == FICHA_BLANCA){
 c0090dc:	0a000001 	beq	c0090e8 <reversi_procesar+0x6d0>
                (*b)++;
            }else if (tablero[i][j] == FICHA_NEGRA){
 c0090e0:	e3500002 	cmp	r0, #2
                (*n)++;
 c0090e4:	02833001 	addeq	r3, r3, #1
    *n = 0;

    // recorremos el tablero contando las fichas de cada color
    for (i=0; i<DIM; i++){
        for (j=0; j<DIM; j++){
            if (tablero[i][j] == FICHA_BLANCA){
 c0090e8:	e5d10005 	ldrb	r0, [r1, #5]
 c0090ec:	e3500001 	cmp	r0, #1
                (*b)++;
 c0090f0:	02822001 	addeq	r2, r2, #1
    *n = 0;

    // recorremos el tablero contando las fichas de cada color
    for (i=0; i<DIM; i++){
        for (j=0; j<DIM; j++){
            if (tablero[i][j] == FICHA_BLANCA){
 c0090f4:	0a000001 	beq	c009100 <reversi_procesar+0x6e8>
                (*b)++;
            }else if (tablero[i][j] == FICHA_NEGRA){
 c0090f8:	e3500002 	cmp	r0, #2
                (*n)++;
 c0090fc:	02833001 	addeq	r3, r3, #1
    *n = 0;

    // recorremos el tablero contando las fichas de cada color
    for (i=0; i<DIM; i++){
        for (j=0; j<DIM; j++){
            if (tablero[i][j] == FICHA_BLANCA){
 c009100:	e5d10006 	ldrb	r0, [r1, #6]
 c009104:	e3500001 	cmp	r0, #1
                (*b)++;
 c009108:	02822001 	addeq	r2, r2, #1
    *n = 0;

    // recorremos el tablero contando las fichas de cada color
    for (i=0; i<DIM; i++){
        for (j=0; j<DIM; j++){
            if (tablero[i][j] == FICHA_BLANCA){
 c00910c:	0a000001 	beq	c009118 <reversi_procesar+0x700>
                (*b)++;
            }else if (tablero[i][j] == FICHA_NEGRA){
 c009110:	e3500002 	cmp	r0, #2
                (*n)++;
 c009114:	02833001 	addeq	r3, r3, #1
    *n = 0;

    // recorremos el tablero contando las fichas de cada color
    for (i=0; i<DIM; i++){
        for (j=0; j<DIM; j++){
            if (tablero[i][j] == FICHA_BLANCA){
 c009118:	e5d11007 	ldrb	r1, [r1, #7]
 c00911c:	e3510001 	cmp	r1, #1
                (*b)++;
 c009120:	02822001 	addeq	r2, r2, #1
    *n = 0;

    // recorremos el tablero contando las fichas de cada color
    for (i=0; i<DIM; i++){
        for (j=0; j<DIM; j++){
            if (tablero[i][j] == FICHA_BLANCA){
 c009124:	0a000001 	beq	c009130 <reversi_procesar+0x718>
                (*b)++;
            }else if (tablero[i][j] == FICHA_NEGRA){
 c009128:	e3510002 	cmp	r1, #2
                (*n)++;
 c00912c:	02833001 	addeq	r3, r3, #1
    *n = 0;

    // recorremos el tablero contando las fichas de cada color
    for (i=0; i<DIM; i++){
        for (j=0; j<DIM; j++){
            if (tablero[i][j] == FICHA_BLANCA){
 c009130:	e5d80010 	ldrb	r0, [r8, #16]
 c009134:	e3500001 	cmp	r0, #1
 c009138:	e2881010 	add	r1, r8, #16
                (*b)++;
 c00913c:	02822001 	addeq	r2, r2, #1
    *n = 0;

    // recorremos el tablero contando las fichas de cada color
    for (i=0; i<DIM; i++){
        for (j=0; j<DIM; j++){
            if (tablero[i][j] == FICHA_BLANCA){
 c009140:	0a000001 	beq	c00914c <reversi_procesar+0x734>
                (*b)++;
            }else if (tablero[i][j] == FICHA_NEGRA){
 c009144:	e3500002 	cmp	r0, #2
                (*n)++;
 c009148:	02833001 	addeq	r3, r3, #1
    *n = 0;

    // recorremos el tablero contando las fichas de cada color
    for (i=0; i<DIM; i++){
        for (j=0; j<DIM; j++){
            if (tablero[i][j] == FICHA_BLANCA){
 c00914c:	e5d10001 	ldrb	r0, [r1, #1]
 c009150:	e3500001 	cmp	r0, #1
                (*b)++;
 c009154:	02822001 	addeq	r2, r2, #1
    *n = 0;

    // recorremos el tablero contando las fichas de cada color
    for (i=0; i<DIM; i++){
        for (j=0; j<DIM; j++){
            if (tablero[i][j] == FICHA_BLANCA){
 c009158:	0a000001 	beq	c009164 <reversi_procesar+0x74c>
                (*b)++;
            }else if (tablero[i][j] == FICHA_NEGRA){
 c00915c:	e3500002 	cmp	r0, #2
                (*n)++;
 c009160:	02833001 	addeq	r3, r3, #1
    *n = 0;

    // recorremos el tablero contando las fichas de cada color
    for (i=0; i<DIM; i++){
        for (j=0; j<DIM; j++){
            if (tablero[i][j] == FICHA_BLANCA){
 c009164:	e5d10002 	ldrb	r0, [r1, #2]
 c009168:	e3500001 	cmp	r0, #1
                (*b)++;
 c00916c:	02822001 	addeq	r2, r2, #1
    *n = 0;

    // recorremos el tablero contando las fichas de cada color
    for (i=0; i<DIM; i++){
        for (j=0; j<DIM; j++){
            if (tablero[i][j] == FICHA_BLANCA){
 c009170:	0a000001 	beq	c00917c <reversi_procesar+0x764>
                (*b)++;
            }else if (tablero[i][j] == FICHA_NEGRA){
 c009174:	e3500002 	cmp	r0, #2
                (*n)++;
 c009178:	02833001 	addeq	r3, r3, #1
    *n = 0;

    // recorremos el tablero contando las fichas de cada color
    for (i=0; i<DIM; i++){
        for (j=0; j<DIM; j++){
            if (tablero[i][j] == FICHA_BLANCA){
 c00917c:	e5d10003 	ldrb	r0, [r1, #3]
 c009180:	e3500001 	cmp	r0, #1
                (*b)++;
 c009184:	02822001 	addeq	r2, r2, #1
    *n = 0;

    // recorremos el tablero contando las fichas de cada color
    for (i=0; i<DIM; i++){
        for (j=0; j<DIM; j++){
            if (tablero[i][j] == FICHA_BLANCA){
 c009188:	0a000001 	beq	c009194 <reversi_procesar+0x77c>
                (*b)++;
            }else if (tablero[i][j] == FICHA_NEGRA){
 c00918c:	e3500002 	cmp	r0, #2
                (*n)++;
 c009190:	02833001 	addeq	r3, r3, #1
    *n = 0;

    // recorremos el tablero contando las fichas de cada color
    for (i=0; i<DIM; i++){
        for (j=0; j<DIM; j++){
            if (tablero[i][j] == FICHA_BLANCA){
 c009194:	e5d10004 	ldrb	r0, [r1, #4]
 c009198:	e3500001 	cmp	r0, #1
                (*b)++;
 c00919c:	02822001 	addeq	r2, r2, #1
    *n = 0;

    // recorremos el tablero contando las fichas de cada color
    for (i=0; i<DIM; i++){
        for (j=0; j<DIM; j++){
            if (tablero[i][j] == FICHA_BLANCA){
 c0091a0:	0a000001 	beq	c0091ac <reversi_procesar+0x794>
                (*b)++;
            }else if (tablero[i][j] == FICHA_NEGRA){
 c0091a4:	e3500002 	cmp	r0, #2
                (*n)++;
 c0091a8:	02833001 	addeq	r3, r3, #1
    *n = 0;

    // recorremos el tablero contando las fichas de cada color
    for (i=0; i<DIM; i++){
        for (j=0; j<DIM; j++){
            if (tablero[i][j] == FICHA_BLANCA){
 c0091ac:	e5d10005 	ldrb	r0, [r1, #5]
 c0091b0:	e3500001 	cmp	r0, #1
                (*b)++;
 c0091b4:	02822001 	addeq	r2, r2, #1
    *n = 0;

    // recorremos el tablero contando las fichas de cada color
    for (i=0; i<DIM; i++){
        for (j=0; j<DIM; j++){
            if (tablero[i][j] == FICHA_BLANCA){
 c0091b8:	0a000001 	beq	c0091c4 <reversi_procesar+0x7ac>
                (*b)++;
            }else if (tablero[i][j] == FICHA_NEGRA){
 c0091bc:	e3500002 	cmp	r0, #2
                (*n)++;
 c0091c0:	02833001 	addeq	r3, r3, #1
    *n = 0;

    // recorremos el tablero contando las fichas de cada color
    for (i=0; i<DIM; i++){
        for (j=0; j<DIM; j++){
            if (tablero[i][j] == FICHA_BLANCA){
 c0091c4:	e5d10006 	ldrb	r0, [r1, #6]
 c0091c8:	e3500001 	cmp	r0, #1
                (*b)++;
 c0091cc:	02822001 	addeq	r2, r2, #1
    *n = 0;

    // recorremos el tablero contando las fichas de cada color
    for (i=0; i<DIM; i++){
        for (j=0; j<DIM; j++){
            if (tablero[i][j] == FICHA_BLANCA){
 c0091d0:	0a000001 	beq	c0091dc <reversi_procesar+0x7c4>
                (*b)++;
            }else if (tablero[i][j] == FICHA_NEGRA){
 c0091d4:	e3500002 	cmp	r0, #2
                (*n)++;
 c0091d8:	02833001 	addeq	r3, r3, #1
    *n = 0;

    // recorremos el tablero contando las fichas de cada color
    for (i=0; i<DIM; i++){
        for (j=0; j<DIM; j++){
            if (tablero[i][j] == FICHA_BLANCA){
 c0091dc:	e5d11007 	ldrb	r1, [r1, #7]
 c0091e0:	e3510001 	cmp	r1, #1
                (*b)++;
 c0091e4:	02822001 	addeq	r2, r2, #1
    *n = 0;

    // recorremos el tablero contando las fichas de cada color
    for (i=0; i<DIM; i++){
        for (j=0; j<DIM; j++){
            if (tablero[i][j] == FICHA_BLANCA){
 c0091e8:	0a000001 	beq	c0091f4 <reversi_procesar+0x7dc>
                (*b)++;
            }else if (tablero[i][j] == FICHA_NEGRA){
 c0091ec:	e3510002 	cmp	r1, #2
                (*n)++;
 c0091f0:	02833001 	addeq	r3, r3, #1
    *n = 0;

    // recorremos el tablero contando las fichas de cada color
    for (i=0; i<DIM; i++){
        for (j=0; j<DIM; j++){
            if (tablero[i][j] == FICHA_BLANCA){
 c0091f4:	e5d80018 	ldrb	r0, [r8, #24]
 c0091f8:	e3500001 	cmp	r0, #1
 c0091fc:	e2881018 	add	r1, r8, #24
                (*b)++;
 c009200:	02822001 	addeq	r2, r2, #1
    *n = 0;

    // recorremos el tablero contando las fichas de cada color
    for (i=0; i<DIM; i++){
        for (j=0; j<DIM; j++){
            if (tablero[i][j] == FICHA_BLANCA){
 c009204:	0a000001 	beq	c009210 <reversi_procesar+0x7f8>
                (*b)++;
            }else if (tablero[i][j] == FICHA_NEGRA){
 c009208:	e3500002 	cmp	r0, #2
                (*n)++;
 c00920c:	02833001 	addeq	r3, r3, #1
    *n = 0;

    // recorremos el tablero contando las fichas de cada color
    for (i=0; i<DIM; i++){
        for (j=0; j<DIM; j++){
            if (tablero[i][j] == FICHA_BLANCA){
 c009210:	e5d10001 	ldrb	r0, [r1, #1]
 c009214:	e3500001 	cmp	r0, #1
                (*b)++;
 c009218:	02822001 	addeq	r2, r2, #1
    *n = 0;

    // recorremos el tablero contando las fichas de cada color
    for (i=0; i<DIM; i++){
        for (j=0; j<DIM; j++){
            if (tablero[i][j] == FICHA_BLANCA){
 c00921c:	0a000001 	beq	c009228 <reversi_procesar+0x810>
                (*b)++;
            }else if (tablero[i][j] == FICHA_NEGRA){
 c009220:	e3500002 	cmp	r0, #2
                (*n)++;
 c009224:	02833001 	addeq	r3, r3, #1
    *n = 0;

    // recorremos el tablero contando las fichas de cada color
    for (i=0; i<DIM; i++){
        for (j=0; j<DIM; j++){
            if (tablero[i][j] == FICHA_BLANCA){
 c009228:	e5d10002 	ldrb	r0, [r1, #2]
 c00922c:	e3500001 	cmp	r0, #1
                (*b)++;
 c009230:	02822001 	addeq	r2, r2, #1
    *n = 0;

    // recorremos el tablero contando las fichas de cada color
    for (i=0; i<DIM; i++){
        for (j=0; j<DIM; j++){
            if (tablero[i][j] == FICHA_BLANCA){
 c009234:	0a000001 	beq	c009240 <reversi_procesar+0x828>
                (*b)++;
            }else if (tablero[i][j] == FICHA_NEGRA){
 c009238:	e3500002 	cmp	r0, #2
                (*n)++;
 c00923c:	02833001 	addeq	r3, r3, #1
    *n = 0;

    // recorremos el tablero contando las fichas de cada color
    for (i=0; i<DIM; i++){
        for (j=0; j<DIM; j++){
            if (tablero[i][j] == FICHA_BLANCA){
 c009240:	e5d10003 	ldrb	r0, [r1, #3]
 c009244:	e3500001 	cmp	r0, #1
                (*b)++;
 c009248:	02822001 	addeq	r2, r2, #1
    *n = 0;

    // recorremos el tablero contando las fichas de cada color
    for (i=0; i<DIM; i++){
        for (j=0; j<DIM; j++){
            if (tablero[i][j] == FICHA_BLANCA){
 c00924c:	0a000001 	beq	c009258 <reversi_procesar+0x840>
                (*b)++;
            }else if (tablero[i][j] == FICHA_NEGRA){
 c009250:	e3500002 	cmp	r0, #2
                (*n)++;
 c009254:	02833001 	addeq	r3, r3, #1
    *n = 0;

    // recorremos el tablero contando las fichas de cada color
    for (i=0; i<DIM; i++){
        for (j=0; j<DIM; j++){
            if (tablero[i][j] == FICHA_BLANCA){
 c009258:	e5d10004 	ldrb	r0, [r1, #4]
 c00925c:	e3500001 	cmp	r0, #1
                (*b)++;
 c009260:	02822001 	addeq	r2, r2, #1
    *n = 0;

    // recorremos el tablero contando las fichas de cada color
    for (i=0; i<DIM; i++){
        for (j=0; j<DIM; j++){
            if (tablero[i][j] == FICHA_BLANCA){
 c009264:	0a000001 	beq	c009270 <reversi_procesar+0x858>
                (*b)++;
            }else if (tablero[i][j] == FICHA_NEGRA){
 c009268:	e3500002 	cmp	r0, #2
                (*n)++;
 c00926c:	02833001 	addeq	r3, r3, #1
    *n = 0;

    // recorremos el tablero contando las fichas de cada color
    for (i=0; i<DIM; i++){
        for (j=0; j<DIM; j++){
            if (tablero[i][j] == FICHA_BLANCA){
 c009270:	e5d10005 	ldrb	r0, [r1, #5]
 c009274:	e3500001 	cmp	r0, #1
                (*b)++;
 c009278:	02822001 	addeq	r2, r2, #1
    *n = 0;

    // recorremos el tablero contando las fichas de cada color
    for (i=0; i<DIM; i++){
        for (j=0; j<DIM; j++){
            if (tablero[i][j] == FICHA_BLANCA){
 c00927c:	0a000001 	beq	c009288 <reversi_procesar+0x870>
                (*b)++;
            }else if (tablero[i][j] == FICHA_NEGRA){
 c009280:	e3500002 	cmp	r0, #2
                (*n)++;
 c009284:	02833001 	addeq	r3, r3, #1
    *n = 0;

    // recorremos el tablero contando las fichas de cada color
    for (i=0; i<DIM; i++){
        for (j=0; j<DIM; j++){
            if (tablero[i][j] == FICHA_BLANCA){
 c009288:	e5d10006 	ldrb	r0, [r1, #6]
 c00928c:	e3500001 	cmp	r0, #1
                (*b)++;
 c009290:	02822001 	addeq	r2, r2, #1
    *n = 0;

    // recorremos el tablero contando las fichas de cada color
    for (i=0; i<DIM; i++){
        for (j=0; j<DIM; j++){
            if (tablero[i][j] == FICHA_BLANCA){
 c009294:	0a000001 	beq	c0092a0 <reversi_procesar+0x888>
                (*b)++;
            }else if (tablero[i][j] == FICHA_NEGRA){
 c009298:	e3500002 	cmp	r0, #2
                (*n)++;
 c00929c:	02833001 	addeq	r3, r3, #1
    *n = 0;

    // recorremos el tablero contando las fichas de cada color
    for (i=0; i<DIM; i++){
        for (j=0; j<DIM; j++){
            if (tablero[i][j] == FICHA_BLANCA){
 c0092a0:	e5d11007 	ldrb	r1, [r1, #7]
 c0092a4:	e3510001 	cmp	r1, #1
                (*b)++;
 c0092a8:	02822001 	addeq	r2, r2, #1
    *n = 0;

    // recorremos el tablero contando las fichas de cada color
    for (i=0; i<DIM; i++){
        for (j=0; j<DIM; j++){
            if (tablero[i][j] == FICHA_BLANCA){
 c0092ac:	0a000001 	beq	c0092b8 <reversi_procesar+0x8a0>
                (*b)++;
            }else if (tablero[i][j] == FICHA_NEGRA){
 c0092b0:	e3510002 	cmp	r1, #2
                (*n)++;
 c0092b4:	02833001 	addeq	r3, r3, #1
    *n = 0;

    // recorremos el tablero contando las fichas de cada color
    for (i=0; i<DIM; i++){
        for (j=0; j<DIM; j++){
            if (tablero[i][j] == FICHA_BLANCA){
 c0092b8:	e5d80020 	ldrb	r0, [r8, #32]
 c0092bc:	e3500001 	cmp	r0, #1
 c0092c0:	e2881020 	add	r1, r8, #32
                (*b)++;
 c0092c4:	02822001 	addeq	r2, r2, #1
    *n = 0;

    // recorremos el tablero contando las fichas de cada color
    for (i=0; i<DIM; i++){
        for (j=0; j<DIM; j++){
            if (tablero[i][j] == FICHA_BLANCA){
 c0092c8:	0a000001 	beq	c0092d4 <reversi_procesar+0x8bc>
                (*b)++;
            }else if (tablero[i][j] == FICHA_NEGRA){
 c0092cc:	e3500002 	cmp	r0, #2
                (*n)++;
 c0092d0:	02833001 	addeq	r3, r3, #1
    *n = 0;

    // recorremos el tablero contando las fichas de cada color
    for (i=0; i<DIM; i++){
        for (j=0; j<DIM; j++){
            if (tablero[i][j] == FICHA_BLANCA){
 c0092d4:	e5d10001 	ldrb	r0, [r1, #1]
 c0092d8:	e3500001 	cmp	r0, #1
                (*b)++;
 c0092dc:	02822001 	addeq	r2, r2, #1
    *n = 0;

    // recorremos el tablero contando las fichas de cada color
    for (i=0; i<DIM; i++){
        for (j=0; j<DIM; j++){
            if (tablero[i][j] == FICHA_BLANCA){
 c0092e0:	0a000001 	beq	c0092ec <reversi_procesar+0x8d4>
                (*b)++;
            }else if (tablero[i][j] == FICHA_NEGRA){
 c0092e4:	e3500002 	cmp	r0, #2
                (*n)++;
 c0092e8:	02833001 	addeq	r3, r3, #1
    *n = 0;

    // recorremos el tablero contando las fichas de cada color
    for (i=0; i<DIM; i++){
        for (j=0; j<DIM; j++){
            if (tablero[i][j] == FICHA_BLANCA){
 c0092ec:	e5d10002 	ldrb	r0, [r1, #2]
 c0092f0:	e3500001 	cmp	r0, #1
                (*b)++;
 c0092f4:	02822001 	addeq	r2, r2, #1
    *n = 0;

    // recorremos el tablero contando las fichas de cada color
    for (i=0; i<DIM; i++){
        for (j=0; j<DIM; j++){
            if (tablero[i][j] == FICHA_BLANCA){
 c0092f8:	0a000001 	beq	c009304 <reversi_procesar+0x8ec>
                (*b)++;
            }else if (tablero[i][j] == FICHA_NEGRA){
 c0092fc:	e3500002 	cmp	r0, #2
                (*n)++;
 c009300:	02833001 	addeq	r3, r3, #1
    *n = 0;

    // recorremos el tablero contando las fichas de cada color
    for (i=0; i<DIM; i++){
        for (j=0; j<DIM; j++){
            if (tablero[i][j] == FICHA_BLANCA){
 c009304:	e5d10003 	ldrb	r0, [r1, #3]
 c009308:	e3500001 	cmp	r0, #1
                (*b)++;
 c00930c:	02822001 	addeq	r2, r2, #1
    *n = 0;

    // recorremos el tablero contando las fichas de cada color
    for (i=0; i<DIM; i++){
        for (j=0; j<DIM; j++){
            if (tablero[i][j] == FICHA_BLANCA){
 c009310:	0a000001 	beq	c00931c <reversi_procesar+0x904>
                (*b)++;
            }else if (tablero[i][j] == FICHA_NEGRA){
 c009314:	e3500002 	cmp	r0, #2
                (*n)++;
 c009318:	02833001 	addeq	r3, r3, #1
    *n = 0;

    // recorremos el tablero contando las fichas de cada color
    for (i=0; i<DIM; i++){
        for (j=0; j<DIM; j++){
            if (tablero[i][j] == FICHA_BLANCA){
 c00931c:	e5d10004 	ldrb	r0, [r1, #4]
 c009320:	e3500001 	cmp	r0, #1
                (*b)++;
 c009324:	02822001 	addeq	r2, r2, #1
    *n = 0;

    // recorremos el tablero contando las fichas de cada color
    for (i=0; i<DIM; i++){
        for (j=0; j<DIM; j++){
            if (tablero[i][j] == FICHA_BLANCA){
 c009328:	0a000001 	beq	c009334 <reversi_procesar+0x91c>
                (*b)++;
            }else if (tablero[i][j] == FICHA_NEGRA){
 c00932c:	e3500002 	cmp	r0, #2
                (*n)++;
 c009330:	02833001 	addeq	r3, r3, #1
    *n = 0;

    // recorremos el tablero contando las fichas de cada color
    for (i=0; i<DIM; i++){
        for (j=0; j<DIM; j++){
            if (tablero[i][j] == FICHA_BLANCA){
 c009334:	e5d10005 	ldrb	r0, [r1, #5]
 c009338:	e3500001 	cmp	r0, #1
                (*b)++;
 c00933c:	02822001 	addeq	r2, r2, #1
    *n = 0;

    // recorremos el tablero contando las fichas de cada color
    for (i=0; i<DIM; i++){
        for (j=0; j<DIM; j++){
            if (tablero[i][j] == FICHA_BLANCA){
 c009340:	0a000001 	beq	c00934c <reversi_procesar+0x934>
                (*b)++;
            }else if (tablero[i][j] == FICHA_NEGRA){
 c009344:	e3500002 	cmp	r0, #2
                (*n)++;
 c009348:	02833001 	addeq	r3, r3, #1
    *n = 0;

    // recorremos el tablero contando las fichas de cada color
    for (i=0; i<DIM; i++){
        for (j=0; j<DIM; j++){
            if (tablero[i][j] == FICHA_BLANCA){
 c00934c:	e5d10006 	ldrb	r0, [r1, #6]
 c009350:	e3500001 	cmp	r0, #1
                (*b)++;
 c009354:	02822001 	addeq	r2, r2, #1
    *n = 0;

    // recorremos el tablero contando las fichas de cada color
    for (i=0; i<DIM; i++){
        for (j=0; j<DIM; j++){
            if (tablero[i][j] == FICHA_BLANCA){
 c009358:	0a000001 	beq	c009364 <reversi_procesar+0x94c>
                (*b)++;
            }else if (tablero[i][j] == FICHA_NEGRA){
 c00935c:	e3500002 	cmp	r0, #2
                (*n)++;
 c009360:	02833001 	addeq	r3, r3, #1
    *n = 0;

    // recorremos el tablero contando las fichas de cada color
    for (i=0; i<DIM; i++){
        for (j=0; j<DIM; j++){
            if (tablero[i][j] == FICHA_BLANCA){
 c009364:	e5d11007 	ldrb	r1, [r1, #7]
 c009368:	e3510001 	cmp	r1, #1
                (*b)++;
 c00936c:	02822001 	addeq	r2, r2, #1
    *n = 0;

    // recorremos el tablero contando las fichas de cada color
    for (i=0; i<DIM; i++){
        for (j=0; j<DIM; j++){
            if (tablero[i][j] == FICHA_BLANCA){
 c009370:	0a000001 	beq	c00937c <reversi_procesar+0x964>
                (*b)++;
            }else if (tablero[i][j] == FICHA_NEGRA){
 c009374:	e3510002 	cmp	r1, #2
                (*n)++;
 c009378:	02833001 	addeq	r3, r3, #1
    *n = 0;

    // recorremos el tablero contando las fichas de cada color
    for (i=0; i<DIM; i++){
        for (j=0; j<DIM; j++){
            if (tablero[i][j] == FICHA_BLANCA){
 c00937c:	e5d80028 	ldrb	r0, [r8, #40]	; 0x28
 c009380:	e3500001 	cmp	r0, #1
 c009384:	e2881028 	add	r1, r8, #40	; 0x28
                (*b)++;
 c009388:	02822001 	addeq	r2, r2, #1
    *n = 0;

    // recorremos el tablero contando las fichas de cada color
    for (i=0; i<DIM; i++){
        for (j=0; j<DIM; j++){
            if (tablero[i][j] == FICHA_BLANCA){
 c00938c:	0a000001 	beq	c009398 <reversi_procesar+0x980>
                (*b)++;
            }else if (tablero[i][j] == FICHA_NEGRA){
 c009390:	e3500002 	cmp	r0, #2
                (*n)++;
 c009394:	02833001 	addeq	r3, r3, #1
    *n = 0;

    // recorremos el tablero contando las fichas de cada color
    for (i=0; i<DIM; i++){
        for (j=0; j<DIM; j++){
            if (tablero[i][j] == FICHA_BLANCA){
 c009398:	e5d10001 	ldrb	r0, [r1, #1]
 c00939c:	e3500001 	cmp	r0, #1
                (*b)++;
 c0093a0:	02822001 	addeq	r2, r2, #1
    *n = 0;

    // recorremos el tablero contando las fichas de cada color
    for (i=0; i<DIM; i++){
        for (j=0; j<DIM; j++){
            if (tablero[i][j] == FICHA_BLANCA){
 c0093a4:	0a000001 	beq	c0093b0 <reversi_procesar+0x998>
                (*b)++;
            }else if (tablero[i][j] == FICHA_NEGRA){
 c0093a8:	e3500002 	cmp	r0, #2
                (*n)++;
 c0093ac:	02833001 	addeq	r3, r3, #1
    *n = 0;

    // recorremos el tablero contando las fichas de cada color
    for (i=0; i<DIM; i++){
        for (j=0; j<DIM; j++){
            if (tablero[i][j] == FICHA_BLANCA){
 c0093b0:	e5d10002 	ldrb	r0, [r1, #2]
 c0093b4:	e3500001 	cmp	r0, #1
                (*b)++;
 c0093b8:	02822001 	addeq	r2, r2, #1
    *n = 0;

    // recorremos el tablero contando las fichas de cada color
    for (i=0; i<DIM; i++){
        for (j=0; j<DIM; j++){
            if (tablero[i][j] == FICHA_BLANCA){
 c0093bc:	0a000001 	beq	c0093c8 <reversi_procesar+0x9b0>
                (*b)++;
            }else if (tablero[i][j] == FICHA_NEGRA){
 c0093c0:	e3500002 	cmp	r0, #2
                (*n)++;
 c0093c4:	02833001 	addeq	r3, r3, #1
    *n = 0;

    // recorremos el tablero contando las fichas de cada color
    for (i=0; i<DIM; i++){
        for (j=0; j<DIM; j++){
            if (tablero[i][j] == FICHA_BLANCA){
 c0093c8:	e5d10003 	ldrb	r0, [r1, #3]
 c0093cc:	e3500001 	cmp	r0, #1
                (*b)++;
 c0093d0:	02822001 	addeq	r2, r2, #1
    *n = 0;

    // recorremos el tablero contando las fichas de cada color
    for (i=0; i<DIM; i++){
        for (j=0; j<DIM; j++){
            if (tablero[i][j] == FICHA_BLANCA){
 c0093d4:	0a000001 	beq	c0093e0 <reversi_procesar+0x9c8>
                (*b)++;
            }else if (tablero[i][j] == FICHA_NEGRA){
 c0093d8:	e3500002 	cmp	r0, #2
                (*n)++;
 c0093dc:	02833001 	addeq	r3, r3, #1
    *n = 0;

    // recorremos el tablero contando las fichas de cada color
    for (i=0; i<DIM; i++){
        for (j=0; j<DIM; j++){
            if (tablero[i][j] == FICHA_BLANCA){
 c0093e0:	e5d10004 	ldrb	r0, [r1, #4]
 c0093e4:	e3500001 	cmp	r0, #1
                (*b)++;
 c0093e8:	02822001 	addeq	r2, r2, #1
    *n = 0;

    // recorremos el tablero contando las fichas de cada color
    for (i=0; i<DIM; i++){
        for (j=0; j<DIM; j++){
            if (tablero[i][j] == FICHA_BLANCA){
 c0093ec:	0a000001 	beq	c0093f8 <reversi_procesar+0x9e0>
                (*b)++;
            }else if (tablero[i][j] == FICHA_NEGRA){
 c0093f0:	e3500002 	cmp	r0, #2
                (*n)++;
 c0093f4:	02833001 	addeq	r3, r3, #1
    *n = 0;

    // recorremos el tablero contando las fichas de cada color
    for (i=0; i<DIM; i++){
        for (j=0; j<DIM; j++){
            if (tablero[i][j] == FICHA_BLANCA){
 c0093f8:	e5d10005 	ldrb	r0, [r1, #5]
 c0093fc:	e3500001 	cmp	r0, #1
                (*b)++;
 c009400:	02822001 	addeq	r2, r2, #1
    *n = 0;

    // recorremos el tablero contando las fichas de cada color
    for (i=0; i<DIM; i++){
        for (j=0; j<DIM; j++){
            if (tablero[i][j] == FICHA_BLANCA){
 c009404:	0a000001 	beq	c009410 <reversi_procesar+0x9f8>
                (*b)++;
            }else if (tablero[i][j] == FICHA_NEGRA){
 c009408:	e3500002 	cmp	r0, #2
                (*n)++;
 c00940c:	02833001 	addeq	r3, r3, #1
    *n = 0;

    // recorremos el tablero contando las fichas de cada color
    for (i=0; i<DIM; i++){
        for (j=0; j<DIM; j++){
            if (tablero[i][j] == FICHA_BLANCA){
 c009410:	e5d10006 	ldrb	r0, [r1, #6]
 c009414:	e3500001 	cmp	r0, #1
                (*b)++;
 c009418:	02822001 	addeq	r2, r2, #1
    *n = 0;

    // recorremos el tablero contando las fichas de cada color
    for (i=0; i<DIM; i++){
        for (j=0; j<DIM; j++){
            if (tablero[i][j] == FICHA_BLANCA){
 c00941c:	0a000001 	beq	c009428 <reversi_procesar+0xa10>
                (*b)++;
            }else if (tablero[i][j] == FICHA_NEGRA){
 c009420:	e3500002 	cmp	r0, #2
                (*n)++;
 c009424:	02833001 	addeq	r3, r3, #1
    *n = 0;

    // recorremos el tablero contando las fichas de cada color
    for (i=0; i<DIM; i++){
        for (j=0; j<DIM; j++){
            if (tablero[i][j] == FICHA_BLANCA){
 c009428:	e5d11007 	ldrb	r1, [r1, #7]
 c00942c:	e3510001 	cmp	r1, #1
                (*b)++;
 c009430:	02822001 	addeq	r2, r2, #1
    *n = 0;

    // recorremos el tablero contando las fichas de cada color
    for (i=0; i<DIM; i++){
        for (j=0; j<DIM; j++){
            if (tablero[i][j] == FICHA_BLANCA){
 c009434:	0a000001 	beq	c009440 <reversi_procesar+0xa28>
                (*b)++;
            }else if (tablero[i][j] == FICHA_NEGRA){
 c009438:	e3510002 	cmp	r1, #2
                (*n)++;
 c00943c:	02833001 	addeq	r3, r3, #1
    *n = 0;

    // recorremos el tablero contando las fichas de cada color
    for (i=0; i<DIM; i++){
        for (j=0; j<DIM; j++){
            if (tablero[i][j] == FICHA_BLANCA){
 c009440:	e5d80030 	ldrb	r0, [r8, #48]	; 0x30
 c009444:	e3500001 	cmp	r0, #1
 c009448:	e2881030 	add	r1, r8, #48	; 0x30
                (*b)++;
 c00944c:	02822001 	addeq	r2, r2, #1
    *n = 0;

    // recorremos el tablero contando las fichas de cada color
    for (i=0; i<DIM; i++){
        for (j=0; j<DIM; j++){
            if (tablero[i][j] == FICHA_BLANCA){
 c009450:	0a000001 	beq	c00945c <reversi_procesar+0xa44>
                (*b)++;
            }else if (tablero[i][j] == FICHA_NEGRA){
 c009454:	e3500002 	cmp	r0, #2
                (*n)++;
 c009458:	02833001 	addeq	r3, r3, #1
    *n = 0;

    // recorremos el tablero contando las fichas de cada color
    for (i=0; i<DIM; i++){
        for (j=0; j<DIM; j++){
            if (tablero[i][j] == FICHA_BLANCA){
 c00945c:	e5d10001 	ldrb	r0, [r1, #1]
 c009460:	e3500001 	cmp	r0, #1
                (*b)++;
 c009464:	02822001 	addeq	r2, r2, #1
    *n = 0;

    // recorremos el tablero contando las fichas de cada color
    for (i=0; i<DIM; i++){
        for (j=0; j<DIM; j++){
            if (tablero[i][j] == FICHA_BLANCA){
 c009468:	0a000001 	beq	c009474 <reversi_procesar+0xa5c>
                (*b)++;
            }else if (tablero[i][j] == FICHA_NEGRA){
 c00946c:	e3500002 	cmp	r0, #2
                (*n)++;
 c009470:	02833001 	addeq	r3, r3, #1
    *n = 0;

    // recorremos el tablero contando las fichas de cada color
    for (i=0; i<DIM; i++){
        for (j=0; j<DIM; j++){
            if (tablero[i][j] == FICHA_BLANCA){
 c009474:	e5d10002 	ldrb	r0, [r1, #2]
 c009478:	e3500001 	cmp	r0, #1
                (*b)++;
 c00947c:	02822001 	addeq	r2, r2, #1
    *n = 0;

    // recorremos el tablero contando las fichas de cada color
    for (i=0; i<DIM; i++){
        for (j=0; j<DIM; j++){
            if (tablero[i][j] == FICHA_BLANCA){
 c009480:	0a000001 	beq	c00948c <reversi_procesar+0xa74>
                (*b)++;
            }else if (tablero[i][j] == FICHA_NEGRA){
 c009484:	e3500002 	cmp	r0, #2
                (*n)++;
 c009488:	02833001 	addeq	r3, r3, #1
    *n = 0;

    // recorremos el tablero contando las fichas de cada color
    for (i=0; i<DIM; i++){
        for (j=0; j<DIM; j++){
            if (tablero[i][j] == FICHA_BLANCA){
 c00948c:	e5d10003 	ldrb	r0, [r1, #3]
 c009490:	e3500001 	cmp	r0, #1
                (*b)++;
 c009494:	02822001 	addeq	r2, r2, #1
    *n = 0;

    // recorremos el tablero contando las fichas de cada color
    for (i=0; i<DIM; i++){
        for (j=0; j<DIM; j++){
            if (tablero[i][j] == FICHA_BLANCA){
 c009498:	0a000001 	beq	c0094a4 <reversi_procesar+0xa8c>
                (*b)++;
            }else if (tablero[i][j] == FICHA_NEGRA){
 c00949c:	e3500002 	cmp	r0, #2
                (*n)++;
 c0094a0:	02833001 	addeq	r3, r3, #1
    *n = 0;

    // recorremos el tablero contando las fichas de cada color
    for (i=0; i<DIM; i++){
        for (j=0; j<DIM; j++){
            if (tablero[i][j] == FICHA_BLANCA){
 c0094a4:	e5d10004 	ldrb	r0, [r1, #4]
 c0094a8:	e3500001 	cmp	r0, #1
                (*b)++;
 c0094ac:	02822001 	addeq	r2, r2, #1
    *n = 0;

    // recorremos el tablero contando las fichas de cada color
    for (i=0; i<DIM; i++){
        for (j=0; j<DIM; j++){
            if (tablero[i][j] == FICHA_BLANCA){
 c0094b0:	0a000001 	beq	c0094bc <reversi_procesar+0xaa4>
                (*b)++;
            }else if (tablero[i][j] == FICHA_NEGRA){
 c0094b4:	e3500002 	cmp	r0, #2
                (*n)++;
 c0094b8:	02833001 	addeq	r3, r3, #1
    *n = 0;

    // recorremos el tablero contando las fichas de cada color
    for (i=0; i<DIM; i++){
        for (j=0; j<DIM; j++){
            if (tablero[i][j] == FICHA_BLANCA){
 c0094bc:	e5d10005 	ldrb	r0, [r1, #5]
 c0094c0:	e3500001 	cmp	r0, #1
                (*b)++;
 c0094c4:	02822001 	addeq	r2, r2, #1
    *n = 0;

    // recorremos el tablero contando las fichas de cada color
    for (i=0; i<DIM; i++){
        for (j=0; j<DIM; j++){
            if (tablero[i][j] == FICHA_BLANCA){
 c0094c8:	0a000001 	beq	c0094d4 <reversi_procesar+0xabc>
                (*b)++;
            }else if (tablero[i][j] == FICHA_NEGRA){
 c0094cc:	e3500002 	cmp	r0, #2
                (*n)++;
 c0094d0:	02833001 	addeq	r3, r3, #1
    *n = 0;

    // recorremos el tablero contando las fichas de cada color
    for (i=0; i<DIM; i++){
        for (j=0; j<DIM; j++){
            if (tablero[i][j] == FICHA_BLANCA){
 c0094d4:	e5d10006 	ldrb	r0, [r1, #6]
 c0094d8:	e3500001 	cmp	r0, #1
                (*b)++;
 c0094dc:	02822001 	addeq	r2, r2, #1
    *n = 0;

    // recorremos el tablero contando las fichas de cada color
    for (i=0; i<DIM; i++){
        for (j=0; j<DIM; j++){
            if (tablero[i][j] == FICHA_BLANCA){
 c0094e0:	0a000001 	beq	c0094ec <reversi_procesar+0xad4>
                (*b)++;
            }else if (tablero[i][j] == FICHA_NEGRA){
 c0094e4:	e3500002 	cmp	r0, #2
                (*n)++;
 c0094e8:	02833001 	addeq	r3, r3, #1
    *n = 0;

    // recorremos el tablero contando las fichas de cada color
    for (i=0; i<DIM; i++){
        for (j=0; j<DIM; j++){
            if (tablero[i][j] == FICHA_BLANCA){
 c0094ec:	e5d11007 	ldrb	r1, [r1, #7]
 c0094f0:	e3510001 	cmp	r1, #1
                (*b)++;
 c0094f4:	02822001 	addeq	r2, r2, #1
    *n = 0;

    // recorremos el tablero contando las fichas de cada color
    for (i=0; i<DIM; i++){
        for (j=0; j<DIM; j++){
            if (tablero[i][j] == FICHA_BLANCA){
 c0094f8:	0a000001 	beq	c009504 <reversi_procesar+0xaec>
                (*b)++;
            }else if (tablero[i][j] == FICHA_NEGRA){
 c0094fc:	e3510002 	cmp	r1, #2
                (*n)++;
 c009500:	02833001 	addeq	r3, r3, #1
    *n = 0;

    // recorremos el tablero contando las fichas de cada color
    for (i=0; i<DIM; i++){
        for (j=0; j<DIM; j++){
            if (tablero[i][j] == FICHA_BLANCA){
 c009504:	e5d81038 	ldrb	r1, [r8, #56]	; 0x38
 c009508:	e3510001 	cmp	r1, #1
 c00950c:	e2888038 	add	r8, r8, #56	; 0x38
                (*b)++;
 c009510:	02822001 	addeq	r2, r2, #1
    *n = 0;

    // recorremos el tablero contando las fichas de cada color
    for (i=0; i<DIM; i++){
        for (j=0; j<DIM; j++){
            if (tablero[i][j] == FICHA_BLANCA){
 c009514:	0a000001 	beq	c009520 <reversi_procesar+0xb08>
                (*b)++;
            }else if (tablero[i][j] == FICHA_NEGRA){
 c009518:	e3510002 	cmp	r1, #2
                (*n)++;
 c00951c:	02833001 	addeq	r3, r3, #1
    *n = 0;

    // recorremos el tablero contando las fichas de cada color
    for (i=0; i<DIM; i++){
        for (j=0; j<DIM; j++){
            if (tablero[i][j] == FICHA_BLANCA){
 c009520:	e5d81001 	ldrb	r1, [r8, #1]
 c009524:	e3510001 	cmp	r1, #1
                (*b)++;
 c009528:	02822001 	addeq	r2, r2, #1
    *n = 0;

    // recorremos el tablero contando las fichas de cada color
    for (i=0; i<DIM; i++){
        for (j=0; j<DIM; j++){
            if (tablero[i][j] == FICHA_BLANCA){
 c00952c:	0a000001 	beq	c009538 <reversi_procesar+0xb20>
                (*b)++;
            }else if (tablero[i][j] == FICHA_NEGRA){
 c009530:	e3510002 	cmp	r1, #2
                (*n)++;
 c009534:	02833001 	addeq	r3, r3, #1
    *n = 0;

    // recorremos el tablero contando las fichas de cada color
    for (i=0; i<DIM; i++){
        for (j=0; j<DIM; j++){
            if (tablero[i][j] == FICHA_BLANCA){
 c009538:	e5d81002 	ldrb	r1, [r8, #2]
 c00953c:	e3510001 	cmp	r1, #1
                (*b)++;
 c009540:	02822001 	addeq	r2, r2, #1
    *n = 0;

    // recorremos el tablero contando las fichas de cada color
    for (i=0; i<DIM; i++){
        for (j=0; j<DIM; j++){
            if (tablero[i][j] == FICHA_BLANCA){
 c009544:	0a000001 	beq	c009550 <reversi_procesar+0xb38>
                (*b)++;
            }else if (tablero[i][j] == FICHA_NEGRA){
 c009548:	e3510002 	cmp	r1, #2
                (*n)++;
 c00954c:	02833001 	addeq	r3, r3, #1
    *n = 0;

    // recorremos el tablero contando las fichas de cada color
    for (i=0; i<DIM; i++){
        for (j=0; j<DIM; j++){
            if (tablero[i][j] == FICHA_BLANCA){
 c009550:	e5d81003 	ldrb	r1, [r8, #3]
 c009554:	e3510001 	cmp	r1, #1
                (*b)++;
 c009558:	02822001 	addeq	r2, r2, #1
    *n = 0;

    // recorremos el tablero contando las fichas de cada color
    for (i=0; i<DIM; i++){
        for (j=0; j<DIM; j++){
            if (tablero[i][j] == FICHA_BLANCA){
 c00955c:	0a000001 	beq	c009568 <reversi_procesar+0xb50>
                (*b)++;
            }else if (tablero[i][j] == FICHA_NEGRA){
 c009560:	e3510002 	cmp	r1, #2
                (*n)++;
 c009564:	02833001 	addeq	r3, r3, #1
    *n = 0;

    // recorremos el tablero contando las fichas de cada color
    for (i=0; i<DIM; i++){
        for (j=0; j<DIM; j++){
            if (tablero[i][j] == FICHA_BLANCA){
 c009568:	e5d81004 	ldrb	r1, [r8, #4]
 c00956c:	e3510001 	cmp	r1, #1
                (*b)++;
 c009570:	02822001 	addeq	r2, r2, #1
    *n = 0;

    // recorremos el tablero contando las fichas de cada color
    for (i=0; i<DIM; i++){
        for (j=0; j<DIM; j++){
            if (tablero[i][j] == FICHA_BLANCA){
 c009574:	0a000001 	beq	c009580 <reversi_procesar+0xb68>
                (*b)++;
            }else if (tablero[i][j] == FICHA_NEGRA){
 c009578:	e3510002 	cmp	r1, #2
                (*n)++;
 c00957c:	02833001 	addeq	r3, r3, #1
    *n = 0;

    // recorremos el tablero contando las fichas de cada color
    for (i=0; i<DIM; i++){
        for (j=0; j<DIM; j++){
            if (tablero[i][j] == FICHA_BLANCA){
 c009580:	e5d81005 	ldrb	r1, [r8, #5]
 c009584:	e3510001 	cmp	r1, #1
                (*b)++;
 c009588:	02822001 	addeq	r2, r2, #1
    *n = 0;

    // recorremos el tablero contando las fichas de cada color
    for (i=0; i<DIM; i++){
        for (j=0; j<DIM; j++){
            if (tablero[i][j] == FICHA_BLANCA){
 c00958c:	0a000001 	beq	c009598 <reversi_procesar+0xb80>
                (*b)++;
            }else if (tablero[i][j] == FICHA_NEGRA){
 c009590:	e3510002 	cmp	r1, #2
                (*n)++;
 c009594:	02833001 	addeq	r3, r3, #1
    *n = 0;

    // recorremos el tablero contando las fichas de cada color
    for (i=0; i<DIM; i++){
        for (j=0; j<DIM; j++){
            if (tablero[i][j] == FICHA_BLANCA){
 c009598:	e5d81006 	ldrb	r1, [r8, #6]
 c00959c:	e3510001 	cmp	r1, #1
                (*b)++;
 c0095a0:	02822001 	addeq	r2, r2, #1
    *n = 0;

    // recorremos el tablero contando las fichas de cada color
    for (i=0; i<DIM; i++){
        for (j=0; j<DIM; j++){
            if (tablero[i][j] == FICHA_BLANCA){
 c0095a4:	0a000001 	beq	c0095b0 <reversi_procesar+0xb98>
                (*b)++;
            }else if (tablero[i][j] == FICHA_NEGRA){
 c0095a8:	e3510002 	cmp	r1, #2
                (*n)++;
 c0095ac:	02833001 	addeq	r3, r3, #1
    *n = 0;

    // recorremos el tablero contando las fichas de cada color
    for (i=0; i<DIM; i++){
        for (j=0; j<DIM; j++){
            if (tablero[i][j] == FICHA_BLANCA){
 c0095b0:	e5d81007 	ldrb	r1, [r8, #7]
 c0095b4:	e3510001 	cmp	r1, #1
                (*b)++;
 c0095b8:	02822001 	addeq	r2, r2, #1
    *n = 0;

    // recorremos el tablero contando las fichas de cada color
    for (i=0; i<DIM; i++){
        for (j=0; j<DIM; j++){
            if (tablero[i][j] == FICHA_BLANCA){
 c0095bc:	0a000001 	beq	c0095c8 <reversi_procesar+0xbb0>
                (*b)++;
            }else if (tablero[i][j] == FICHA_NEGRA){
 c0095c0:	e3510002 	cmp	r1, #2
                (*n)++;
 c0095c4:	02833001 	addeq	r3, r3, #1
	unsigned int t1,t2;
	t1=timer2_leer();
		int done;     		// la máquina ha conseguido mover o no
		int move = 0; 		// el humano ha conseguido mover o no
		int blancas, negras;// número de fichas de cada color
		int fin = 0;  		// fin vale 1 si no hay casillas vacias
 c0095c8:	e51b4058 	ldr	r4, [fp, #-88]	; 0xffffffa8

	    //movimiento de la maquina
	    done = elegir_mov(candidatas, tablero, &f, &c);
	    if (done == -1){ 	// La maquina no puede mover
	        contar(tablero, &blancas, &negras);
	        if (blancas+negras == DIM*DIM | move==0){
 c0095cc:	e0822003 	add	r2, r2, r3
	unsigned int t1,t2;
	t1=timer2_leer();
		int done;     		// la máquina ha conseguido mover o no
		int move = 0; 		// el humano ha conseguido mover o no
		int blancas, negras;// número de fichas de cada color
		int fin = 0;  		// fin vale 1 si no hay casillas vacias
 c0095d0:	e3520040 	cmp	r2, #64	; 0x40
 c0095d4:	03844001 	orreq	r4, r4, #1
 c0095d8:	eafffe68 	b	c008f80 <reversi_procesar+0x568>
		//movimiento del humano
	    if (((fila) != DIM) && ((columna) != DIM)){
	    	if((tablero[fila][columna]) == CASILLA_VACIA){
	    					// Si es posicion correcta y está libre escribimos
	    					// ficha en tablero, volteamos y actualizamos candidatas.
	    		tablero[fila][columna] = FICHA_NEGRA;
 c0095dc:	e3a07002 	mov	r7, #2
 c0095e0:	e7c3700a 	strb	r7, [r3, sl]
        SC = vSC[i];
        // flip: numero de fichas a voltear
        flip = 0;
        unsigned int t1,t2;
        t1=timer2_leer();
        patron = patron_volteo_arm_arm(tablero, &flip, f, c, SF, SC, color);
 c0095e4:	e50b9038 	str	r9, [fp, #-56]	; 0xffffffc8
 c0095e8:	e50ba03c 	str	sl, [fp, #-60]	; 0xffffffc4
 c0095ec:	ea000002 	b	c0095fc <reversi_procesar+0xbe4>
    char SF, SC; // cantidades a sumar para movernos en la dirección que toque
    int i, flip, patron;

    // char vSF[DIM] = {-1,-1, 0, 1, 1, 1, 0,-1};
    // char vSC[DIM] = { 0, 1, 1, 1, 0,-1,-1,-1};
    for (i = 0; i < DIM; i++){ // 0 es Norte, 1 NE, 2 E ...
 c0095f0:	e2866001 	add	r6, r6, #1
 c0095f4:	e3560008 	cmp	r6, #8
 c0095f8:	0a000064 	beq	c009790 <reversi_procesar+0xd78>
        SF = vSF[i];
 c0095fc:	e59f01b4 	ldr	r0, [pc, #436]	; c0097b8 <reversi_procesar+0xda0>
        SC = vSC[i];
        // flip: numero de fichas a voltear
        flip = 0;
 c009600:	e3a02000 	mov	r2, #0

    // char vSF[DIM] = {-1,-1, 0, 1, 1, 1, 0,-1};
    // char vSC[DIM] = { 0, 1, 1, 1, 0,-1,-1,-1};
    for (i = 0; i < DIM; i++){ // 0 es Norte, 1 NE, 2 E ...
        SF = vSF[i];
        SC = vSC[i];
 c009604:	e2801008 	add	r1, r0, #8
 c009608:	e7d15006 	ldrb	r5, [r1, r6]
    int i, flip, patron;

    // char vSF[DIM] = {-1,-1, 0, 1, 1, 1, 0,-1};
    // char vSC[DIM] = { 0, 1, 1, 1, 0,-1,-1,-1};
    for (i = 0; i < DIM; i++){ // 0 es Norte, 1 NE, 2 E ...
        SF = vSF[i];
 c00960c:	e7d04006 	ldrb	r4, [r0, r6]
        SC = vSC[i];
        // flip: numero de fichas a voltear
        flip = 0;
 c009610:	e50b2030 	str	r2, [fp, #-48]	; 0xffffffd0
        unsigned int t1,t2;
        t1=timer2_leer();
 c009614:	eb00011b 	bl	c009a88 <timer2_leer>
        patron = patron_volteo_arm_arm(tablero, &flip, f, c, SF, SC, color);
 c009618:	e24b1030 	sub	r1, fp, #48	; 0x30
 c00961c:	e51b2038 	ldr	r2, [fp, #-56]	; 0xffffffc8
 c009620:	e51b303c 	ldr	r3, [fp, #-60]	; 0xffffffc4
        SF = vSF[i];
        SC = vSC[i];
        // flip: numero de fichas a voltear
        flip = 0;
        unsigned int t1,t2;
        t1=timer2_leer();
 c009624:	e1a0a000 	mov	sl, r0
        patron = patron_volteo_arm_arm(tablero, &flip, f, c, SF, SC, color);
 c009628:	e1a00008 	mov	r0, r8
 c00962c:	e88d00b0 	stm	sp, {r4, r5, r7}
 c009630:	ebffe1b6 	bl	c001d10 <patron_volteo_arm_arm>
 c009634:	e1a09000 	mov	r9, r0
        t2=timer2_leer();
 c009638:	eb000112 	bl	c009a88 <timer2_leer>
        LCD_tvolteo(t2-t1);
 c00963c:	e06a0000 	rsb	r0, sl, r0
 c009640:	ebfff734 	bl	c007318 <LCD_tvolteo>
        //printf("Flip: %d \n", flip);
        if (patron == PATRON_ENCONTRADO ){
 c009644:	e3590001 	cmp	r9, #1
 c009648:	1affffe8 	bne	c0095f0 <reversi_procesar+0xbd8>
            voltear(tablero, f, c, SF, SC, flip, color);
 c00964c:	e51b2030 	ldr	r2, [fp, #-48]	; 0xffffffd0
/*
 * Voltea N fichas desde (FA,CA) en la dirección (SF,SC) con ficha COLOR.
 */
void voltear(char tablero[][DIM], char FA, char CA, char SF, char SC, int n, char color){
    int i;
    for (i = 0; i < n; i++){
 c009650:	e3520000 	cmp	r2, #0
 c009654:	daffffe5 	ble	c0095f0 <reversi_procesar+0xbd8>
        FA = FA + SF;
 c009658:	e51b0038 	ldr	r0, [fp, #-56]	; 0xffffffc8
        CA = CA + SC;
 c00965c:	e51b103c 	ldr	r1, [fp, #-60]	; 0xffffffc4
 * Voltea N fichas desde (FA,CA) en la dirección (SF,SC) con ficha COLOR.
 */
void voltear(char tablero[][DIM], char FA, char CA, char SF, char SC, int n, char color){
    int i;
    for (i = 0; i < n; i++){
        FA = FA + SF;
 c009660:	e0803004 	add	r3, r0, r4
        CA = CA + SC;
 c009664:	e081e005 	add	lr, r1, r5
 * Voltea N fichas desde (FA,CA) en la dirección (SF,SC) con ficha COLOR.
 */
void voltear(char tablero[][DIM], char FA, char CA, char SF, char SC, int n, char color){
    int i;
    for (i = 0; i < n; i++){
        FA = FA + SF;
 c009668:	e20330ff 	and	r3, r3, #255	; 0xff
 c00966c:	e242a001 	sub	sl, r2, #1
        CA = CA + SC;
 c009670:	e20ee0ff 	and	lr, lr, #255	; 0xff
        tablero[FA][CA] = color;
 c009674:	e088c183 	add	ip, r8, r3, lsl #3
/*
 * Voltea N fichas desde (FA,CA) en la dirección (SF,SC) con ficha COLOR.
 */
void voltear(char tablero[][DIM], char FA, char CA, char SF, char SC, int n, char color){
    int i;
    for (i = 0; i < n; i++){
 c009678:	e1590002 	cmp	r9, r2
 c00967c:	e1a00009 	mov	r0, r9
 c009680:	e20a1003 	and	r1, sl, #3
        FA = FA + SF;
        CA = CA + SC;
        tablero[FA][CA] = color;
 c009684:	e7cc700e 	strb	r7, [ip, lr]
/*
 * Voltea N fichas desde (FA,CA) en la dirección (SF,SC) con ficha COLOR.
 */
void voltear(char tablero[][DIM], char FA, char CA, char SF, char SC, int n, char color){
    int i;
    for (i = 0; i < n; i++){
 c009688:	0affffd8 	beq	c0095f0 <reversi_procesar+0xbd8>
 c00968c:	e3510000 	cmp	r1, #0
 c009690:	0a00001a 	beq	c009700 <reversi_procesar+0xce8>
 c009694:	e3510001 	cmp	r1, #1
 c009698:	0a00000f 	beq	c0096dc <reversi_procesar+0xcc4>
 c00969c:	e3510002 	cmp	r1, #2
 c0096a0:	0a000006 	beq	c0096c0 <reversi_procesar+0xca8>
        FA = FA + SF;
 c0096a4:	e083a004 	add	sl, r3, r4
 c0096a8:	e20a30ff 	and	r3, sl, #255	; 0xff
        CA = CA + SC;
 c0096ac:	e08e1005 	add	r1, lr, r5
 c0096b0:	e201e0ff 	and	lr, r1, #255	; 0xff
        tablero[FA][CA] = color;
 c0096b4:	e0889183 	add	r9, r8, r3, lsl #3
 c0096b8:	e7c9700e 	strb	r7, [r9, lr]
/*
 * Voltea N fichas desde (FA,CA) en la dirección (SF,SC) con ficha COLOR.
 */
void voltear(char tablero[][DIM], char FA, char CA, char SF, char SC, int n, char color){
    int i;
    for (i = 0; i < n; i++){
 c0096bc:	e1a00007 	mov	r0, r7
        FA = FA + SF;
 c0096c0:	e0833004 	add	r3, r3, r4
 c0096c4:	e20330ff 	and	r3, r3, #255	; 0xff
        CA = CA + SC;
 c0096c8:	e08ee005 	add	lr, lr, r5
 c0096cc:	e20ee0ff 	and	lr, lr, #255	; 0xff
        tablero[FA][CA] = color;
 c0096d0:	e088c183 	add	ip, r8, r3, lsl #3
 c0096d4:	e7cc700e 	strb	r7, [ip, lr]
/*
 * Voltea N fichas desde (FA,CA) en la dirección (SF,SC) con ficha COLOR.
 */
void voltear(char tablero[][DIM], char FA, char CA, char SF, char SC, int n, char color){
    int i;
    for (i = 0; i < n; i++){
 c0096d8:	e2800001 	add	r0, r0, #1
        FA = FA + SF;
 c0096dc:	e083a004 	add	sl, r3, r4
 c0096e0:	e20a30ff 	and	r3, sl, #255	; 0xff
        CA = CA + SC;
 c0096e4:	e08e1005 	add	r1, lr, r5
/*
 * Voltea N fichas desde (FA,CA) en la dirección (SF,SC) con ficha COLOR.
 */
void voltear(char tablero[][DIM], char FA, char CA, char SF, char SC, int n, char color){
    int i;
    for (i = 0; i < n; i++){
 c0096e8:	e2800001 	add	r0, r0, #1
        FA = FA + SF;
        CA = CA + SC;
 c0096ec:	e201e0ff 	and	lr, r1, #255	; 0xff
        tablero[FA][CA] = color;
 c0096f0:	e0889183 	add	r9, r8, r3, lsl #3
/*
 * Voltea N fichas desde (FA,CA) en la dirección (SF,SC) con ficha COLOR.
 */
void voltear(char tablero[][DIM], char FA, char CA, char SF, char SC, int n, char color){
    int i;
    for (i = 0; i < n; i++){
 c0096f4:	e1500002 	cmp	r0, r2
        FA = FA + SF;
        CA = CA + SC;
        tablero[FA][CA] = color;
 c0096f8:	e7c9700e 	strb	r7, [r9, lr]
/*
 * Voltea N fichas desde (FA,CA) en la dirección (SF,SC) con ficha COLOR.
 */
void voltear(char tablero[][DIM], char FA, char CA, char SF, char SC, int n, char color){
    int i;
    for (i = 0; i < n; i++){
 c0096fc:	0affffbb 	beq	c0095f0 <reversi_procesar+0xbd8>
 c009700:	e50b2044 	str	r2, [fp, #-68]	; 0xffffffbc
 c009704:	e50b6048 	str	r6, [fp, #-72]	; 0xffffffb8
        FA = FA + SF;
 c009708:	e083a004 	add	sl, r3, r4
 c00970c:	e20a90ff 	and	r9, sl, #255	; 0xff
 c009710:	e0896004 	add	r6, r9, r4
 c009714:	e206a0ff 	and	sl, r6, #255	; 0xff
        CA = CA + SC;
 c009718:	e08ec005 	add	ip, lr, r5
 * Voltea N fichas desde (FA,CA) en la dirección (SF,SC) con ficha COLOR.
 */
void voltear(char tablero[][DIM], char FA, char CA, char SF, char SC, int n, char color){
    int i;
    for (i = 0; i < n; i++){
        FA = FA + SF;
 c00971c:	e08ae004 	add	lr, sl, r4
 c009720:	e20e60ff 	and	r6, lr, #255	; 0xff
        CA = CA + SC;
        tablero[FA][CA] = color;
 c009724:	e0889189 	add	r9, r8, r9, lsl #3
 c009728:	e50b9040 	str	r9, [fp, #-64]	; 0xffffffc0
 */
void voltear(char tablero[][DIM], char FA, char CA, char SF, char SC, int n, char color){
    int i;
    for (i = 0; i < n; i++){
        FA = FA + SF;
        CA = CA + SC;
 c00972c:	e20cc0ff 	and	ip, ip, #255	; 0xff
        tablero[FA][CA] = color;
 c009730:	e0889186 	add	r9, r8, r6, lsl #3
 * Voltea N fichas desde (FA,CA) en la dirección (SF,SC) con ficha COLOR.
 */
void voltear(char tablero[][DIM], char FA, char CA, char SF, char SC, int n, char color){
    int i;
    for (i = 0; i < n; i++){
        FA = FA + SF;
 c009734:	e0863004 	add	r3, r6, r4
/*
 * Voltea N fichas desde (FA,CA) en la dirección (SF,SC) con ficha COLOR.
 */
void voltear(char tablero[][DIM], char FA, char CA, char SF, char SC, int n, char color){
    int i;
    for (i = 0; i < n; i++){
 c009738:	e51b6044 	ldr	r6, [fp, #-68]	; 0xffffffbc
        FA = FA + SF;
        CA = CA + SC;
 c00973c:	e08c1005 	add	r1, ip, r5
/*
 * Voltea N fichas desde (FA,CA) en la dirección (SF,SC) con ficha COLOR.
 */
void voltear(char tablero[][DIM], char FA, char CA, char SF, char SC, int n, char color){
    int i;
    for (i = 0; i < n; i++){
 c009740:	e2800004 	add	r0, r0, #4
        FA = FA + SF;
        CA = CA + SC;
 c009744:	e20110ff 	and	r1, r1, #255	; 0xff
/*
 * Voltea N fichas desde (FA,CA) en la dirección (SF,SC) con ficha COLOR.
 */
void voltear(char tablero[][DIM], char FA, char CA, char SF, char SC, int n, char color){
    int i;
    for (i = 0; i < n; i++){
 c009748:	e1500006 	cmp	r0, r6
        FA = FA + SF;
        CA = CA + SC;
        tablero[FA][CA] = color;
 c00974c:	e51b6040 	ldr	r6, [fp, #-64]	; 0xffffffc0
 */
void voltear(char tablero[][DIM], char FA, char CA, char SF, char SC, int n, char color){
    int i;
    for (i = 0; i < n; i++){
        FA = FA + SF;
        CA = CA + SC;
 c009750:	e0812005 	add	r2, r1, r5
        tablero[FA][CA] = color;
 c009754:	e088a18a 	add	sl, r8, sl, lsl #3
 c009758:	e50b9058 	str	r9, [fp, #-88]	; 0xffffffa8
 */
void voltear(char tablero[][DIM], char FA, char CA, char SF, char SC, int n, char color){
    int i;
    for (i = 0; i < n; i++){
        FA = FA + SF;
        CA = CA + SC;
 c00975c:	e20220ff 	and	r2, r2, #255	; 0xff
        tablero[FA][CA] = color;
 c009760:	e7c6700c 	strb	r7, [r6, ip]
 c009764:	e7ca7001 	strb	r7, [sl, r1]
 c009768:	e51b6058 	ldr	r6, [fp, #-88]	; 0xffffffa8
 * Voltea N fichas desde (FA,CA) en la dirección (SF,SC) con ficha COLOR.
 */
void voltear(char tablero[][DIM], char FA, char CA, char SF, char SC, int n, char color){
    int i;
    for (i = 0; i < n; i++){
        FA = FA + SF;
 c00976c:	e20330ff 	and	r3, r3, #255	; 0xff
        CA = CA + SC;
 c009770:	e082e005 	add	lr, r2, r5
 c009774:	e20ee0ff 	and	lr, lr, #255	; 0xff
        tablero[FA][CA] = color;
 c009778:	e0889183 	add	r9, r8, r3, lsl #3
 c00977c:	e7c67002 	strb	r7, [r6, r2]
 c009780:	e7c9700e 	strb	r7, [r9, lr]
/*
 * Voltea N fichas desde (FA,CA) en la dirección (SF,SC) con ficha COLOR.
 */
void voltear(char tablero[][DIM], char FA, char CA, char SF, char SC, int n, char color){
    int i;
    for (i = 0; i < n; i++){
 c009784:	1affffdf 	bne	c009708 <reversi_procesar+0xcf0>
 c009788:	e51b6048 	ldr	r6, [fp, #-72]	; 0xffffffb8
 c00978c:	eaffff97 	b	c0095f0 <reversi_procesar+0xbd8>
 c009790:	e24b503c 	sub	r5, fp, #60	; 0x3c
 c009794:	e8950220 	ldm	r5, {r5, r9}
	    	if((tablero[fila][columna]) == CASILLA_VACIA){
	    					// Si es posicion correcta y está libre escribimos
	    					// ficha en tablero, volteamos y actualizamos candidatas.
	    		tablero[fila][columna] = FICHA_NEGRA;
	    		actualizar_tablero(tablero, fila, columna, FICHA_NEGRA);
	    		actualizar_candidatas(candidatas, fila, columna);
 c009798:	e51b0050 	ldr	r0, [fp, #-80]	; 0xffffffb0
 c00979c:	e1a01009 	mov	r1, r9
 c0097a0:	e1a02005 	mov	r2, r5
 c0097a4:	e3a04000 	mov	r4, #0
 c0097a8:	ebfffc34 	bl	c008880 <actualizar_candidatas>
 c0097ac:	e50b4058 	str	r4, [fp, #-88]	; 0xffffffa8
 c0097b0:	eafffcad 	b	c008a6c <reversi_procesar+0x54>
 c0097b4:	0c00cce8 	.word	0x0c00cce8
 c0097b8:	0c00ccd8 	.word	0x0c00ccd8

0c0097bc <dormir_procesador>:
/*
 * Configura el procesador en modo ahorro de energia
 */
void dormir_procesador(){
	//modo de bajo consumo de energía
	rCLKCON |= 0x404; // GPIO + IDLE
 c0097bc:	e3a03776 	mov	r3, #30932992	; 0x1d80000
 c0097c0:	e5931004 	ldr	r1, [r3, #4]
 c0097c4:	e3810b01 	orr	r0, r1, #1024	; 0x400
 c0097c8:	e3802004 	orr	r2, r0, #4
 c0097cc:	e5832004 	str	r2, [r3, #4]
}
 c0097d0:	e12fff1e 	bx	lr

0c0097d4 <reversi_main>:

/*
 * Comprueba si hay eventos y los procesa segun el tipo de evento.
 */
void reversi_main(){
 c0097d4:	e1a0c00d 	mov	ip, sp
 c0097d8:	e92dd810 	push	{r4, fp, ip, lr, pc}
 c0097dc:	e24cb004 	sub	fp, ip, #4
 c0097e0:	e24dd014 	sub	sp, sp, #20
/*
 * Configura el procesador en modo ahorro de energia
 */
void dormir_procesador(){
	//modo de bajo consumo de energía
	rCLKCON |= 0x404; // GPIO + IDLE
 c0097e4:	e3a04776 	mov	r4, #30932992	; 0x1d80000
 * Comprueba si hay eventos y los procesa segun el tipo de evento.
 */
void reversi_main(){

	while(1){
		while(hayEvento()){
 c0097e8:	ebffe24f 	bl	c00212c <hayEvento>
 c0097ec:	e3500000 	cmp	r0, #0
 c0097f0:	0a000012 	beq	c009840 <reversi_main+0x6c>
			ID_evento evento;
			uint32_t info;
			unsigned int t;
			pop_debug(&evento,&info,&t);//obtenemos evento, info e instante
 c0097f4:	e24b0015 	sub	r0, fp, #21
 c0097f8:	e24b101c 	sub	r1, fp, #28
 c0097fc:	e24b2020 	sub	r2, fp, #32
 c009800:	ebffe230 	bl	c0020c8 <pop_debug>

			if (evento==ev_tick0){//-------------------------------------------------------
 c009804:	e55b0015 	ldrb	r0, [fp, #-21]	; 0xffffffeb
 c009808:	e3500001 	cmp	r0, #1
 c00980c:	0a000015 	beq	c009868 <reversi_main+0x94>
				LCD_Refresca_ttotal();			// comprueba si hay que refrescar el ttotal
				LCD_imprimir();					// IMPRIME pantalla si hay cambios
				Latido_ev_new_tick();			// latido led
				antirrebotes_ev_tick();			// antirrebotes botones
				tp_antirrebotes_ev_tick();		// antirrebotes tactil
			}else if (evento==ev_pulsacion){//---------------------------------------------
 c009810:	e3500002 	cmp	r0, #2
 c009814:	0a000019 	beq	c009880 <reversi_main+0xac>
				antirrebotes_ev_boton();		// antirrebotes botones
				jugada_x_pantalla(evento,info);	// AUTÓMATA juego
			}else if (evento==ev_mantener){//----------------------------------------------
 c009818:	e3500003 	cmp	r0, #3
 c00981c:	0a00000e 	beq	c00985c <reversi_main+0x88>
				jugada_x_pantalla(evento,info);	// AUTÓMATA juego
			}else if (evento==ev_tactil){//------------------------------------------------
 c009820:	e3500004 	cmp	r0, #4
 c009824:	0a00000a 	beq	c009854 <reversi_main+0x80>
				tp_antirrebotes_ev_tactil();	// antirrebotes tactil
				jugada_x_pantalla(evento,info);	// AUTÓMATA juego
			}else if (evento==ev_dma){//---------------------------------------------------
 c009828:	e3500005 	cmp	r0, #5
 c00982c:	1affffed 	bne	c0097e8 <reversi_main+0x14>
				LCD_DMA_ready();				// comunica que dma ha terminado
 c009830:	ebfff6ca 	bl	c007360 <LCD_DMA_ready>
 * Comprueba si hay eventos y los procesa segun el tipo de evento.
 */
void reversi_main(){

	while(1){
		while(hayEvento()){
 c009834:	ebffe23c 	bl	c00212c <hayEvento>
 c009838:	e3500000 	cmp	r0, #0
 c00983c:	1affffec 	bne	c0097f4 <reversi_main+0x20>
/*
 * Configura el procesador en modo ahorro de energia
 */
void dormir_procesador(){
	//modo de bajo consumo de energía
	rCLKCON |= 0x404; // GPIO + IDLE
 c009840:	e5941004 	ldr	r1, [r4, #4]
 c009844:	e3810b01 	orr	r0, r1, #1024	; 0x400
 c009848:	e3803004 	orr	r3, r0, #4
 c00984c:	e5843004 	str	r3, [r4, #4]
 c009850:	eaffffe4 	b	c0097e8 <reversi_main+0x14>
				antirrebotes_ev_boton();		// antirrebotes botones
				jugada_x_pantalla(evento,info);	// AUTÓMATA juego
			}else if (evento==ev_mantener){//----------------------------------------------
				jugada_x_pantalla(evento,info);	// AUTÓMATA juego
			}else if (evento==ev_tactil){//------------------------------------------------
				tp_antirrebotes_ev_tactil();	// antirrebotes tactil
 c009854:	eb0001f2 	bl	c00a024 <tp_antirrebotes_ev_tactil>
				jugada_x_pantalla(evento,info);	// AUTÓMATA juego
 c009858:	e55b0015 	ldrb	r0, [fp, #-21]	; 0xffffffeb
 c00985c:	e51b101c 	ldr	r1, [fp, #-28]	; 0xffffffe4
 c009860:	ebffe294 	bl	c0022b8 <jugada_x_pantalla>
 c009864:	eaffffdf 	b	c0097e8 <reversi_main+0x14>
			uint32_t info;
			unsigned int t;
			pop_debug(&evento,&info,&t);//obtenemos evento, info e instante

			if (evento==ev_tick0){//-------------------------------------------------------
				LCD_Refresca_ttotal();			// comprueba si hay que refrescar el ttotal
 c009868:	ebfff6c6 	bl	c007388 <LCD_Refresca_ttotal>
				LCD_imprimir();					// IMPRIME pantalla si hay cambios
 c00986c:	ebfff47b 	bl	c006a60 <LCD_imprimir>
				Latido_ev_new_tick();			// latido led
 c009870:	ebffe348 	bl	c002598 <Latido_ev_new_tick>
				antirrebotes_ev_tick();			// antirrebotes botones
 c009874:	ebffe160 	bl	c001dfc <antirrebotes_ev_tick>
				tp_antirrebotes_ev_tick();		// antirrebotes tactil
 c009878:	eb0001ef 	bl	c00a03c <tp_antirrebotes_ev_tick>
 c00987c:	eaffffd9 	b	c0097e8 <reversi_main+0x14>
			}else if (evento==ev_pulsacion){//---------------------------------------------
				antirrebotes_ev_boton();		// antirrebotes botones
 c009880:	ebffe157 	bl	c001de4 <antirrebotes_ev_boton>
				jugada_x_pantalla(evento,info);	// AUTÓMATA juego
 c009884:	e55b0015 	ldrb	r0, [fp, #-21]	; 0xffffffeb
 c009888:	e51b101c 	ldr	r1, [fp, #-28]	; 0xffffffe4
 c00988c:	ebffe289 	bl	c0022b8 <jugada_x_pantalla>
 c009890:	eaffffd4 	b	c0097e8 <reversi_main+0x14>

0c009894 <timer_ISR>:

/*
 * ISR TIMER0. Guarda un evento ev_tick0 en la cola de depuracion.
 */
void timer_ISR(void)
{
 c009894:	e52dc004 	push	{ip}		; (str ip, [sp, #-4]!)
 c009898:	e1a0c00d 	mov	ip, sp
 c00989c:	e92dd80f 	push	{r0, r1, r2, r3, fp, ip, lr, pc}
#ifdef MEDICION_RETARDOS
#else
	push_debug(ev_tick0,0);
 c0098a0:	e3a00001 	mov	r0, #1

/*
 * ISR TIMER0. Guarda un evento ev_tick0 en la cola de depuracion.
 */
void timer_ISR(void)
{
 c0098a4:	e24cb004 	sub	fp, ip, #4
#ifdef MEDICION_RETARDOS
#else
	push_debug(ev_tick0,0);
 c0098a8:	e3a01000 	mov	r1, #0
 c0098ac:	ebffe1ec 	bl	c002064 <push_debug>
#endif

	/* borrar bit en I_ISPC para desactivar la solicitud de interrupción*/
	rI_ISPC |= BIT_TIMER0; // BIT_TIMER0 está definido en 44b.h y pone un uno en el bit 13 que correponde al Timer0
 c0098b0:	e3a0361e 	mov	r3, #31457280	; 0x1e00000
 c0098b4:	e5930024 	ldr	r0, [r3, #36]	; 0x24
 c0098b8:	e3802a02 	orr	r2, r0, #8192	; 0x2000
 c0098bc:	e5832024 	str	r2, [r3, #36]	; 0x24
}
 c0098c0:	e24bd01c 	sub	sp, fp, #28
 c0098c4:	e89d680f 	ldm	sp, {r0, r1, r2, r3, fp, sp, lr}
 c0098c8:	e49dc004 	pop	{ip}		; (ldr ip, [sp], #4)
 c0098cc:	e25ef004 	subs	pc, lr, #4

0c0098d0 <timer_init>:
 * Configura los registros del timer0 e inicia la ejecucion.
 */
void timer_init()
{
	/* Configuracion controlador de interrupciones */
	rINTMSK &= ~(BIT_TIMER0); // habilitamos en vector de mascaras de interrupcion el Timer0 (bits 26 y 13, BIT_GLOBAL y BIT_TIMER0 están definidos en 44b.h)
 c0098d0:	e3a0361e 	mov	r3, #31457280	; 0x1e00000
 c0098d4:	e593000c 	ldr	r0, [r3, #12]
 c0098d8:	e3c02a02 	bic	r2, r0, #8192	; 0x2000
 c0098dc:	e583200c 	str	r2, [r3, #12]

	/* Establece la ISR del TIMER0 */
	pISR_TIMER0 = (unsigned) timer_ISR;

	/* Configura el Timer0 */
	rTCFG0 &= ~(0xFF);		 // CLEAN preescalado timer0 (bits 0-7)
 c0098e0:	e59f307c 	ldr	r3, [pc, #124]	; c009964 <timer_init+0x94>
 c0098e4:	e593c000 	ldr	ip, [r3]
 c0098e8:	e3cc10ff 	bic	r1, ip, #255	; 0xff
 c0098ec:	e5831000 	str	r1, [r3]
	rTCFG0 |= (0x08);		 // preescalado 9 (8+1)
 c0098f0:	e5930000 	ldr	r0, [r3]
 c0098f4:	e3802008 	orr	r2, r0, #8
 c0098f8:	e5832000 	str	r2, [r3]
	rTCFG1 &= ~(0xF);		 // entrada del mux0(bits 0-3) 0000 DIVIDER 2
 c0098fc:	e593c004 	ldr	ip, [r3, #4]
	rTCNTB0 = CUENTA_INICIAL;// valor inicial de cuenta
 c009900:	e59f0060 	ldr	r0, [pc, #96]	; c009968 <timer_init+0x98>
	pISR_TIMER0 = (unsigned) timer_ISR;

	/* Configura el Timer0 */
	rTCFG0 &= ~(0xFF);		 // CLEAN preescalado timer0 (bits 0-7)
	rTCFG0 |= (0x08);		 // preescalado 9 (8+1)
	rTCFG1 &= ~(0xF);		 // entrada del mux0(bits 0-3) 0000 DIVIDER 2
 c009904:	e3cc100f 	bic	r1, ip, #15
	rTCNTB0 = CUENTA_INICIAL;// valor inicial de cuenta
	rTCMPB0 = 0;			 // valor de comparación
 c009908:	e3a02000 	mov	r2, #0
	pISR_TIMER0 = (unsigned) timer_ISR;

	/* Configura el Timer0 */
	rTCFG0 &= ~(0xFF);		 // CLEAN preescalado timer0 (bits 0-7)
	rTCFG0 |= (0x08);		 // preescalado 9 (8+1)
	rTCFG1 &= ~(0xF);		 // entrada del mux0(bits 0-3) 0000 DIVIDER 2
 c00990c:	e5831004 	str	r1, [r3, #4]
	rTCNTB0 = CUENTA_INICIAL;// valor inicial de cuenta
 c009910:	e583000c 	str	r0, [r3, #12]
	rTCMPB0 = 0;			 // valor de comparación
 c009914:	e5832010 	str	r2, [r3, #16]

	/* Iniciamos la ejecucion el Timer0 */
	rTCON &=  ~(0xF);		// CLEAN 4 bits correspondientes timer0 (bits 0-3)
 c009918:	e593c008 	ldr	ip, [r3, #8]
 c00991c:	e3cc100f 	bic	r1, ip, #15
 c009920:	e5831008 	str	r1, [r3, #8]
	rTCON |=  (0x2);		// manual-update 1
 c009924:	e5930008 	ldr	r0, [r3, #8]
 c009928:	e3802002 	orr	r2, r0, #2
 c00992c:	e5832008 	str	r2, [r3, #8]
	rTCON &=  ~(0x2);		// manual-update 0
 c009930:	e593c008 	ldr	ip, [r3, #8]
 c009934:	e3cc1002 	bic	r1, ip, #2
 c009938:	e5831008 	str	r1, [r3, #8]
	rTCON |=  (0x8);		// auto-reload 1
 c00993c:	e5930008 	ldr	r0, [r3, #8]
 c009940:	e3802008 	orr	r2, r0, #8
 c009944:	e5832008 	str	r2, [r3, #8]
	rTCON |=  (0x1);		// start 1
 c009948:	e593c008 	ldr	ip, [r3, #8]
{
	/* Configuracion controlador de interrupciones */
	rINTMSK &= ~(BIT_TIMER0); // habilitamos en vector de mascaras de interrupcion el Timer0 (bits 26 y 13, BIT_GLOBAL y BIT_TIMER0 están definidos en 44b.h)

	/* Establece la ISR del TIMER0 */
	pISR_TIMER0 = (unsigned) timer_ISR;
 c00994c:	e59f0018 	ldr	r0, [pc, #24]	; c00996c <timer_init+0x9c>
 c009950:	e59f1018 	ldr	r1, [pc, #24]	; c009970 <timer_init+0xa0>
	/* Iniciamos la ejecucion el Timer0 */
	rTCON &=  ~(0xF);		// CLEAN 4 bits correspondientes timer0 (bits 0-3)
	rTCON |=  (0x2);		// manual-update 1
	rTCON &=  ~(0x2);		// manual-update 0
	rTCON |=  (0x8);		// auto-reload 1
	rTCON |=  (0x1);		// start 1
 c009954:	e38c2001 	orr	r2, ip, #1
{
	/* Configuracion controlador de interrupciones */
	rINTMSK &= ~(BIT_TIMER0); // habilitamos en vector de mascaras de interrupcion el Timer0 (bits 26 y 13, BIT_GLOBAL y BIT_TIMER0 están definidos en 44b.h)

	/* Establece la ISR del TIMER0 */
	pISR_TIMER0 = (unsigned) timer_ISR;
 c009958:	e50100ab 	str	r0, [r1, #-171]	; 0xffffff55
	/* Iniciamos la ejecucion el Timer0 */
	rTCON &=  ~(0xF);		// CLEAN 4 bits correspondientes timer0 (bits 0-3)
	rTCON |=  (0x2);		// manual-update 1
	rTCON &=  ~(0x2);		// manual-update 0
	rTCON |=  (0x8);		// auto-reload 1
	rTCON |=  (0x1);		// start 1
 c00995c:	e5832008 	str	r2, [r3, #8]
}
 c009960:	e12fff1e 	bx	lr
 c009964:	01d50000 	.word	0x01d50000
 c009968:	0000e77b 	.word	0x0000e77b
 c00996c:	0c009894 	.word	0x0c009894
 c009970:	0c7fffff 	.word	0x0c7fffff

0c009974 <timer2_ISR>:

/*
 * ISR TIMER2. Actualiza el contador.
 */
void timer2_ISR()
{
 c009974:	e92d000c 	push	{r2, r3}
	timer2_num_int++;
 c009978:	e59f3020 	ldr	r3, [pc, #32]	; c0099a0 <timer2_ISR+0x2c>
 c00997c:	e5932000 	ldr	r2, [r3]
 c009980:	e2822001 	add	r2, r2, #1
 c009984:	e5832000 	str	r2, [r3]

	/* borrar bit en I_ISPC para desactivar la solicitud de interrupción*/
	rF_ISPC |= BIT_TIMER2; // BIT_TIMER2 pone un 1 en el bit 13 que correponde al Timer2
 c009988:	e3a0361e 	mov	r3, #31457280	; 0x1e00000
 c00998c:	e593203c 	ldr	r2, [r3, #60]	; 0x3c
 c009990:	e3822b02 	orr	r2, r2, #2048	; 0x800
 c009994:	e583203c 	str	r2, [r3, #60]	; 0x3c
}
 c009998:	e8bd000c 	pop	{r2, r3}
 c00999c:	e25ef004 	subs	pc, lr, #4
 c0099a0:	0c00cfa8 	.word	0x0c00cfa8

0c0099a4 <timer2_inicializar>:
 * Configura los registros del timer0 y lo deja listo para ser usado.
 */
void timer2_inicializar()
{
	/* Configuracion controlador de interrupciones */
	rINTMSK &= ~(BIT_TIMER2); // habilitamos en vector de mascaras de interrupcion el Timer0 (bits 26 y 13, BIT_GLOBAL y BIT_TIMER2 están definidos en 44b.h)
 c0099a4:	e3a0361e 	mov	r3, #31457280	; 0x1e00000
 c0099a8:	e593000c 	ldr	r0, [r3, #12]
 c0099ac:	e3c02b02 	bic	r2, r0, #2048	; 0x800
 c0099b0:	e583200c 	str	r2, [r3, #12]

	/* Establece la ISR del TIMER2 */
	pISR_FIQ = (unsigned) timer2_ISR;

	/* Configura el Timer2 */
	rTCFG0 &=  ~(0xFF<<8); 	// preescalado timer2 (bits 8-15) valor 0
 c0099b4:	e59f3064 	ldr	r3, [pc, #100]	; c009a20 <timer2_inicializar+0x7c>
 c0099b8:	e593c000 	ldr	ip, [r3]
 c0099bc:	e3cc1cff 	bic	r1, ip, #65280	; 0xff00
 c0099c0:	e5831000 	str	r1, [r3]
	rTCFG1 &=  ~(0xF<<8); 	// entrada del mux2 (bits 8-11) valor 0 (divisor 2)
 c0099c4:	e5930004 	ldr	r0, [r3, #4]
	rTCNTB2 = CUENTA_INICIAL;//valor inicial de cuenta
 c0099c8:	e59fc054 	ldr	ip, [pc, #84]	; c009a24 <timer2_inicializar+0x80>
	/* Establece la ISR del TIMER2 */
	pISR_FIQ = (unsigned) timer2_ISR;

	/* Configura el Timer2 */
	rTCFG0 &=  ~(0xFF<<8); 	// preescalado timer2 (bits 8-15) valor 0
	rTCFG1 &=  ~(0xF<<8); 	// entrada del mux2 (bits 8-11) valor 0 (divisor 2)
 c0099cc:	e3c02c0f 	bic	r2, r0, #3840	; 0xf00
	rTCNTB2 = CUENTA_INICIAL;//valor inicial de cuenta
	rTCMPB2 = 0;			// valor de comparación
 c0099d0:	e3a01000 	mov	r1, #0
	/* Establece la ISR del TIMER2 */
	pISR_FIQ = (unsigned) timer2_ISR;

	/* Configura el Timer2 */
	rTCFG0 &=  ~(0xFF<<8); 	// preescalado timer2 (bits 8-15) valor 0
	rTCFG1 &=  ~(0xF<<8); 	// entrada del mux2 (bits 8-11) valor 0 (divisor 2)
 c0099d4:	e5832004 	str	r2, [r3, #4]
	rTCNTB2 = CUENTA_INICIAL;//valor inicial de cuenta
 c0099d8:	e583c024 	str	ip, [r3, #36]	; 0x24
	rTCMPB2 = 0;			// valor de comparación
 c0099dc:	e5831028 	str	r1, [r3, #40]	; 0x28

	rTCON &=  ~(0xF<<12);	// 4 bits timer2 (bits 12-15) a 0
 c0099e0:	e5930008 	ldr	r0, [r3, #8]
 c0099e4:	e3c02a0f 	bic	r2, r0, #61440	; 0xf000
 c0099e8:	e5832008 	str	r2, [r3, #8]
	rTCON |=  (0x2<<12);	// manual-update 1
 c0099ec:	e593c008 	ldr	ip, [r3, #8]
 c0099f0:	e38c1a02 	orr	r1, ip, #8192	; 0x2000
 c0099f4:	e5831008 	str	r1, [r3, #8]
	rTCON &=  ~(0x2<<12);	// manual-update 0
 c0099f8:	e5930008 	ldr	r0, [r3, #8]
 c0099fc:	e3c02a02 	bic	r2, r0, #8192	; 0x2000
 c009a00:	e5832008 	str	r2, [r3, #8]
	rTCON |=  (0x8<<12);	// auto-reload 1
 c009a04:	e593c008 	ldr	ip, [r3, #8]
{
	/* Configuracion controlador de interrupciones */
	rINTMSK &= ~(BIT_TIMER2); // habilitamos en vector de mascaras de interrupcion el Timer0 (bits 26 y 13, BIT_GLOBAL y BIT_TIMER2 están definidos en 44b.h)

	/* Establece la ISR del TIMER2 */
	pISR_FIQ = (unsigned) timer2_ISR;
 c009a08:	e59f0018 	ldr	r0, [pc, #24]	; c009a28 <timer2_inicializar+0x84>
 c009a0c:	e59f1018 	ldr	r1, [pc, #24]	; c009a2c <timer2_inicializar+0x88>
	rTCMPB2 = 0;			// valor de comparación

	rTCON &=  ~(0xF<<12);	// 4 bits timer2 (bits 12-15) a 0
	rTCON |=  (0x2<<12);	// manual-update 1
	rTCON &=  ~(0x2<<12);	// manual-update 0
	rTCON |=  (0x8<<12);	// auto-reload 1
 c009a10:	e38c2902 	orr	r2, ip, #32768	; 0x8000
{
	/* Configuracion controlador de interrupciones */
	rINTMSK &= ~(BIT_TIMER2); // habilitamos en vector de mascaras de interrupcion el Timer0 (bits 26 y 13, BIT_GLOBAL y BIT_TIMER2 están definidos en 44b.h)

	/* Establece la ISR del TIMER2 */
	pISR_FIQ = (unsigned) timer2_ISR;
 c009a14:	e50100e3 	str	r0, [r1, #-227]	; 0xffffff1d
	rTCMPB2 = 0;			// valor de comparación

	rTCON &=  ~(0xF<<12);	// 4 bits timer2 (bits 12-15) a 0
	rTCON |=  (0x2<<12);	// manual-update 1
	rTCON &=  ~(0x2<<12);	// manual-update 0
	rTCON |=  (0x8<<12);	// auto-reload 1
 c009a18:	e5832008 	str	r2, [r3, #8]
}
 c009a1c:	e12fff1e 	bx	lr
 c009a20:	01d50000 	.word	0x01d50000
 c009a24:	0000ffff 	.word	0x0000ffff
 c009a28:	0c009974 	.word	0x0c009974
 c009a2c:	0c7fffff 	.word	0x0c7fffff

0c009a30 <timer2_empezar>:
/*
 * Inicia la ejecucion del timer2.
 */
void timer2_empezar(void)
{
	timer2_num_int=0;
 c009a30:	e59f3048 	ldr	r3, [pc, #72]	; c009a80 <timer2_empezar+0x50>
 c009a34:	e3a01000 	mov	r1, #0
 c009a38:	e5831000 	str	r1, [r3]

	rTCON &=  ~(0xF<<12);	// 4 bits timer2 (bits 12-15) a 0
 c009a3c:	e59f3040 	ldr	r3, [pc, #64]	; c009a84 <timer2_empezar+0x54>
 c009a40:	e5930008 	ldr	r0, [r3, #8]
 c009a44:	e3c02a0f 	bic	r2, r0, #61440	; 0xf000
 c009a48:	e5832008 	str	r2, [r3, #8]
	rTCON |=  (0x2<<12);	// manual-update 1
 c009a4c:	e593c008 	ldr	ip, [r3, #8]
 c009a50:	e38c1a02 	orr	r1, ip, #8192	; 0x2000
 c009a54:	e5831008 	str	r1, [r3, #8]
	rTCON &=  ~(0x2<<12);	// manual-update 0
 c009a58:	e5930008 	ldr	r0, [r3, #8]
 c009a5c:	e3c02a02 	bic	r2, r0, #8192	; 0x2000
 c009a60:	e5832008 	str	r2, [r3, #8]
	rTCON |=  (0x8<<12);	// auto-reload 1
 c009a64:	e593c008 	ldr	ip, [r3, #8]
 c009a68:	e38c1902 	orr	r1, ip, #32768	; 0x8000
 c009a6c:	e5831008 	str	r1, [r3, #8]
	rTCON |=  (0x1<<12);	// start 1
 c009a70:	e5930008 	ldr	r0, [r3, #8]
 c009a74:	e3802a01 	orr	r2, r0, #4096	; 0x1000
 c009a78:	e5832008 	str	r2, [r3, #8]
}
 c009a7c:	e12fff1e 	bx	lr
 c009a80:	0c00cfa8 	.word	0x0c00cfa8
 c009a84:	01d50000 	.word	0x01d50000

0c009a88 <timer2_leer>:
 * Garantiza el resultado correcto, incluso si llega una interrupcion del timer2 durante
 * la lectura, solo si se ejecutan las instrucciones en el orden escrito.
 */
unsigned int timer2_leer()
{
	unsigned int primera_lectura = timer2_num_int;
 c009a88:	e59f3048 	ldr	r3, [pc, #72]	; c009ad8 <timer2_leer+0x50>
	unsigned int cuenta = rTCNTO2;
 c009a8c:	e59f2048 	ldr	r2, [pc, #72]	; c009adc <timer2_leer+0x54>
 * Garantiza el resultado correcto, incluso si llega una interrupcion del timer2 durante
 * la lectura, solo si se ejecutan las instrucciones en el orden escrito.
 */
unsigned int timer2_leer()
{
	unsigned int primera_lectura = timer2_num_int;
 c009a90:	e5931000 	ldr	r1, [r3]
	unsigned int cuenta = rTCNTO2;
 c009a94:	e592002c 	ldr	r0, [r2, #44]	; 0x2c
	unsigned int segunda_lectura = timer2_num_int;
 c009a98:	e5933000 	ldr	r3, [r3]
	if(primera_lectura==segunda_lectura){
 c009a9c:	e1510003 	cmp	r1, r3
 c009aa0:	0a000006 	beq	c009ac0 <timer2_leer+0x38>
		return ( CUENTA_INICIAL*primera_lectura + (CUENTA_INICIAL-cuenta) )/(TICK_TO_MS);
	}else{
		return ( CUENTA_INICIAL*segunda_lectura + (CUENTA_INICIAL-rTCNTO2) )/(TICK_TO_MS);
 c009aa4:	e592c02c 	ldr	ip, [r2, #44]	; 0x2c
 c009aa8:	e26c1cff 	rsb	r1, ip, #65280	; 0xff00
 c009aac:	e28100ff 	add	r0, r1, #255	; 0xff
 c009ab0:	e0632803 	rsb	r2, r3, r3, lsl #16
 c009ab4:	e0803002 	add	r3, r0, r2
 c009ab8:	e1a002a3 	lsr	r0, r3, #5
	}
}
 c009abc:	e12fff1e 	bx	lr
{
	unsigned int primera_lectura = timer2_num_int;
	unsigned int cuenta = rTCNTO2;
	unsigned int segunda_lectura = timer2_num_int;
	if(primera_lectura==segunda_lectura){
		return ( CUENTA_INICIAL*primera_lectura + (CUENTA_INICIAL-cuenta) )/(TICK_TO_MS);
 c009ac0:	e260ccff 	rsb	ip, r0, #65280	; 0xff00
 c009ac4:	e28c20ff 	add	r2, ip, #255	; 0xff
 c009ac8:	e0611801 	rsb	r1, r1, r1, lsl #16
 c009acc:	e0820001 	add	r0, r2, r1
 c009ad0:	e1a002a0 	lsr	r0, r0, #5
 c009ad4:	e12fff1e 	bx	lr
 c009ad8:	0c00cfa8 	.word	0x0c00cfa8
 c009adc:	01d50000 	.word	0x01d50000

0c009ae0 <timer2_parar>:
/*
 * Detiene la ejecucion del timer2. Devuelve el tiempo en us que lleva ejecutando.
 */
unsigned int timer2_parar()
{
	rTCON = rTCON & ~(0x1<<12);	// start 0 (bits 12-15 de timer2)
 c009ae0:	e59f3054 	ldr	r3, [pc, #84]	; c009b3c <timer2_parar+0x5c>
 c009ae4:	e5931008 	ldr	r1, [r3, #8]
 c009ae8:	e3c10a01 	bic	r0, r1, #4096	; 0x1000
 c009aec:	e5830008 	str	r0, [r3, #8]
 * Garantiza el resultado correcto, incluso si llega una interrupcion del timer2 durante
 * la lectura, solo si se ejecutan las instrucciones en el orden escrito.
 */
unsigned int timer2_leer()
{
	unsigned int primera_lectura = timer2_num_int;
 c009af0:	e59f2048 	ldr	r2, [pc, #72]	; c009b40 <timer2_parar+0x60>
 c009af4:	e5921000 	ldr	r1, [r2]
	unsigned int cuenta = rTCNTO2;
 c009af8:	e593002c 	ldr	r0, [r3, #44]	; 0x2c
	unsigned int segunda_lectura = timer2_num_int;
 c009afc:	e5922000 	ldr	r2, [r2]
	if(primera_lectura==segunda_lectura){
 c009b00:	e1510002 	cmp	r1, r2
 c009b04:	0a000006 	beq	c009b24 <timer2_parar+0x44>
		return ( CUENTA_INICIAL*primera_lectura + (CUENTA_INICIAL-cuenta) )/(TICK_TO_MS);
	}else{
		return ( CUENTA_INICIAL*segunda_lectura + (CUENTA_INICIAL-rTCNTO2) )/(TICK_TO_MS);
 c009b08:	e593102c 	ldr	r1, [r3, #44]	; 0x2c
 c009b0c:	e2610cff 	rsb	r0, r1, #65280	; 0xff00
 c009b10:	e28030ff 	add	r3, r0, #255	; 0xff
 c009b14:	e062c802 	rsb	ip, r2, r2, lsl #16
 c009b18:	e083100c 	add	r1, r3, ip
 c009b1c:	e1a002a1 	lsr	r0, r1, #5
 */
unsigned int timer2_parar()
{
	rTCON = rTCON & ~(0x1<<12);	// start 0 (bits 12-15 de timer2)
	return timer2_leer();
}
 c009b20:	e12fff1e 	bx	lr
{
	unsigned int primera_lectura = timer2_num_int;
	unsigned int cuenta = rTCNTO2;
	unsigned int segunda_lectura = timer2_num_int;
	if(primera_lectura==segunda_lectura){
		return ( CUENTA_INICIAL*primera_lectura + (CUENTA_INICIAL-cuenta) )/(TICK_TO_MS);
 c009b24:	e2600cff 	rsb	r0, r0, #65280	; 0xff00
 c009b28:	e280c0ff 	add	ip, r0, #255	; 0xff
 c009b2c:	e0612801 	rsb	r2, r1, r1, lsl #16
 c009b30:	e08c3002 	add	r3, ip, r2
 c009b34:	e1a002a3 	lsr	r0, r3, #5
 c009b38:	e12fff1e 	bx	lr
 c009b3c:	01d50000 	.word	0x01d50000
 c009b40:	0c00cfa8 	.word	0x0c00cfa8

0c009b44 <touchpad_ISR>:
}

/*********************************************************************************************
* ISR pantalla tactil
********************************************************************************************/
void touchpad_ISR(){
 c009b44:	e52dc004 	push	{ip}		; (str ip, [sp, #-4]!)
 c009b48:	e1a0c00d 	mov	ip, sp
 c009b4c:	e92ddbff 	push	{r0, r1, r2, r3, r4, r5, r6, r7, r8, r9, fp, ip, lr, pc}
	if(primeraInterrupcion==0){
 c009b50:	e59f5310 	ldr	r5, [pc, #784]	; c009e68 <touchpad_ISR+0x324>
 c009b54:	e5953000 	ldr	r3, [r5]
 c009b58:	e3530000 	cmp	r3, #0
		}

		rPDATE = 0xb8;                  // should be enabled
		DelayTime(3000);                // delay to set up the next channel
	}else{
		primeraInterrupcion=0;	//SI ES LA PRIMERA, PONEMOS A 0 Y LIMPIAMOS PENDING
 c009b5c:	13a03000 	movne	r3, #0
}

/*********************************************************************************************
* ISR pantalla tactil
********************************************************************************************/
void touchpad_ISR(){
 c009b60:	e24cb004 	sub	fp, ip, #4
		}

		rPDATE = 0xb8;                  // should be enabled
		DelayTime(3000);                // delay to set up the next channel
	}else{
		primeraInterrupcion=0;	//SI ES LA PRIMERA, PONEMOS A 0 Y LIMPIAMOS PENDING
 c009b64:	15853000 	strne	r3, [r5]

/*********************************************************************************************
* ISR pantalla tactil
********************************************************************************************/
void touchpad_ISR(){
	if(primeraInterrupcion==0){
 c009b68:	0a000006 	beq	c009b88 <touchpad_ISR+0x44>
		rPDATE = 0xb8;                  // should be enabled
		DelayTime(3000);                // delay to set up the next channel
	}else{
		primeraInterrupcion=0;	//SI ES LA PRIMERA, PONEMOS A 0 Y LIMPIAMOS PENDING
	}
    rI_ISPC = BIT_EINT2;            	// clear pending_bit
 c009b6c:	e3a00502 	mov	r0, #8388608	; 0x800000
 c009b70:	e3a0361e 	mov	r3, #31457280	; 0x1e00000
 c009b74:	e5830024 	str	r0, [r3, #36]	; 0x24
}
 c009b78:	e24bd034 	sub	sp, fp, #52	; 0x34
 c009b7c:	e89d6bff 	ldm	sp, {r0, r1, r2, r3, r4, r5, r6, r7, r8, r9, fp, sp, lr}
 c009b80:	e49dc004 	pop	{ip}		; (ldr ip, [sp], #4)
 c009b84:	e25ef004 	subs	pc, lr, #4
/*********************************************************************************************
* ISR pantalla tactil
********************************************************************************************/
void touchpad_ISR(){
	if(primeraInterrupcion==0){
		rINTMSK |= BIT_EINT2;
 c009b88:	e3a0c61e 	mov	ip, #31457280	; 0x1e00000
 c009b8c:	e59c000c 	ldr	r0, [ip, #12]

//---------------- * AD CONVERSOR X-POSITION * ---------------------

		// TSPX(GPE4_Q4(+)) TSPY(GPE5_Q3(-)) TSMY(GPE6_Q2(+)) TSMX(GPE7_Q1(-))
		//       0               1                 1                0
		rPDATE=0x68;
 c009b90:	e59f62d4 	ldr	r6, [pc, #724]	; c009e6c <touchpad_ISR+0x328>
/*********************************************************************************************
* ISR pantalla tactil
********************************************************************************************/
void touchpad_ISR(){
	if(primeraInterrupcion==0){
		rINTMSK |= BIT_EINT2;
 c009b94:	e3808502 	orr	r8, r0, #8388608	; 0x800000

//---------------- * AD CONVERSOR X-POSITION * ---------------------

		// TSPX(GPE4_Q4(+)) TSPY(GPE5_Q3(-)) TSMY(GPE6_Q2(+)) TSMX(GPE7_Q1(-))
		//       0               1                 1                0
		rPDATE=0x68;
 c009b98:	e3a02068 	mov	r2, #104	; 0x68
		rADCCON=0x1<<2;					// AIN1
 c009b9c:	e3a01004 	mov	r1, #4
 c009ba0:	e3a04775 	mov	r4, #30670848	; 0x1d40000
		DelayTime(1000);                // delay to set up the next channel
 c009ba4:	e59f72c4 	ldr	r7, [pc, #708]	; c009e70 <touchpad_ISR+0x32c>
/*********************************************************************************************
* ISR pantalla tactil
********************************************************************************************/
void touchpad_ISR(){
	if(primeraInterrupcion==0){
		rINTMSK |= BIT_EINT2;
 c009ba8:	e58c800c 	str	r8, [ip, #12]

		// TSPX(GPE4_Q4(+)) TSPY(GPE5_Q3(-)) TSMY(GPE6_Q2(+)) TSMX(GPE7_Q1(-))
		//       0               1                 1                0
		rPDATE=0x68;
		rADCCON=0x1<<2;					// AIN1
		DelayTime(1000);                // delay to set up the next channel
 c009bac:	e3a00ffa 	mov	r0, #1000	; 0x3e8

//---------------- * AD CONVERSOR X-POSITION * ---------------------

		// TSPX(GPE4_Q4(+)) TSPY(GPE5_Q3(-)) TSMY(GPE6_Q2(+)) TSMX(GPE7_Q1(-))
		//       0               1                 1                0
		rPDATE=0x68;
 c009bb0:	e586202c 	str	r2, [r6, #44]	; 0x2c
		rADCCON=0x1<<2;					// AIN1
 c009bb4:	e5841000 	str	r1, [r4]
		DelayTime(1000);                // delay to set up the next channel
 c009bb8:	ebffdb87 	bl	c0009dc <DelayTime>
}

/*********************************************************************************************
* ISR pantalla tactil
********************************************************************************************/
void touchpad_ISR(){
 c009bbc:	e2878020 	add	r8, r7, #32
 c009bc0:	e1a02007 	mov	r2, r7
		DelayTime(1000);                // delay to set up the next channel

		for( i=0; i<8; i++ )
		{
			rADCCON |= 0x1;				// Start X-position A/D conversion
			while( rADCCON & 0x1 );		// Check if Enable_start is low
 c009bc4:	e1a01004 	mov	r1, r4
		rADCCON=0x1<<2;					// AIN1
		DelayTime(1000);                // delay to set up the next channel

		for( i=0; i<8; i++ )
		{
			rADCCON |= 0x1;				// Start X-position A/D conversion
 c009bc8:	e5943000 	ldr	r3, [r4]
 c009bcc:	e383e001 	orr	lr, r3, #1
 c009bd0:	e584e000 	str	lr, [r4]
			while( rADCCON & 0x1 );		// Check if Enable_start is low
 c009bd4:	e5946000 	ldr	r6, [r4]
 c009bd8:	e3160001 	tst	r6, #1
 c009bdc:	1afffffc 	bne	c009bd4 <touchpad_ISR+0x90>
			while( !(rADCCON & 0x40) );	// Check ECFLG
 c009be0:	e594c000 	ldr	ip, [r4]
 c009be4:	e31c0040 	tst	ip, #64	; 0x40
 c009be8:	e3a06775 	mov	r6, #30670848	; 0x1d40000
 c009bec:	0afffffb 	beq	c009be0 <touchpad_ISR+0x9c>
			Pt[i] = (0x3ff&rADCDAT);
 c009bf0:	e5913008 	ldr	r3, [r1, #8]
 c009bf4:	e1a0eb03 	lsl	lr, r3, #22
 c009bf8:	e1a00b2e 	lsr	r0, lr, #22
 c009bfc:	e5a20004 	str	r0, [r2, #4]!
		//       0               1                 1                0
		rPDATE=0x68;
		rADCCON=0x1<<2;					// AIN1
		DelayTime(1000);                // delay to set up the next channel

		for( i=0; i<8; i++ )
 c009c00:	e1520008 	cmp	r2, r8
 c009c04:	1affffef 	bne	c009bc8 <touchpad_ISR+0x84>
 c009c08:	e59f4264 	ldr	r4, [pc, #612]	; c009e74 <touchpad_ISR+0x330>
			while( rADCCON & 0x1 );		// Check if Enable_start is low
			while( !(rADCCON & 0x40) );	// Check ECFLG
			Pt[i] = (0x3ff&rADCDAT);
		}
		// read X-position AVERAGE value
		Pt[8] = (Pt[0]+Pt[1]+Pt[2]+Pt[3]+Pt[4]+Pt[5]+Pt[6]+Pt[7])/8;
 c009c0c:	e8940009 	ldm	r4, {r0, r3}
 c009c10:	e0830000 	add	r0, r3, r0
 c009c14:	e2843008 	add	r3, r4, #8
 c009c18:	e8934008 	ldm	r3, {r3, lr}
 c009c1c:	e5942010 	ldr	r2, [r4, #16]
 c009c20:	e0801003 	add	r1, r0, r3
 c009c24:	e081c00e 	add	ip, r1, lr
 c009c28:	e5943014 	ldr	r3, [r4, #20]
 c009c2c:	e08c0002 	add	r0, ip, r2
 c009c30:	e2842018 	add	r2, r4, #24
 c009c34:	e8921004 	ldm	r2, {r2, ip}
 c009c38:	e080e003 	add	lr, r0, r3
 c009c3c:	e08e1002 	add	r1, lr, r2
 c009c40:	e081000c 	add	r0, r1, ip

//---------------- * AD CONVERSOR Y-POSITION * ---------------------

		// TSPX(GPE4_Q4(-)) TSPY(GPE5_Q3(+)) TSMY(GPE6_Q2(-)) TSMX(GPE7_Q1(+))
		//       1               0                 0                1
		rPDATE=0x98;
 c009c44:	e59f3220 	ldr	r3, [pc, #544]	; c009e6c <touchpad_ISR+0x328>
			while( rADCCON & 0x1 );		// Check if Enable_start is low
			while( !(rADCCON & 0x40) );	// Check ECFLG
			Pt[i] = (0x3ff&rADCDAT);
		}
		// read X-position AVERAGE value
		Pt[8] = (Pt[0]+Pt[1]+Pt[2]+Pt[3]+Pt[4]+Pt[5]+Pt[6]+Pt[7])/8;
 c009c48:	e1a0c1a0 	lsr	ip, r0, #3
		//       0               1                 1                0
		rPDATE=0x68;
		rADCCON=0x1<<2;					// AIN1
		DelayTime(1000);                // delay to set up the next channel

		for( i=0; i<8; i++ )
 c009c4c:	e3a02008 	mov	r2, #8

//---------------- * AD CONVERSOR Y-POSITION * ---------------------

		// TSPX(GPE4_Q4(-)) TSPY(GPE5_Q3(+)) TSMY(GPE6_Q2(-)) TSMX(GPE7_Q1(+))
		//       1               0                 0                1
		rPDATE=0x98;
 c009c50:	e3a0e098 	mov	lr, #152	; 0x98
		rADCCON=0x0<<2;		        	// AIN0
 c009c54:	e3a01000 	mov	r1, #0

//---------------- * AD CONVERSOR Y-POSITION * ---------------------

		// TSPX(GPE4_Q4(-)) TSPY(GPE5_Q3(+)) TSMY(GPE6_Q2(-)) TSMX(GPE7_Q1(+))
		//       1               0                 0                1
		rPDATE=0x98;
 c009c58:	e583e02c 	str	lr, [r3, #44]	; 0x2c
		rADCCON=0x0<<2;		        	// AIN0

		DelayTime(1000);                // delay to set up the next channel
 c009c5c:	e3a00ffa 	mov	r0, #1000	; 0x3e8
		//       0               1                 1                0
		rPDATE=0x68;
		rADCCON=0x1<<2;					// AIN1
		DelayTime(1000);                // delay to set up the next channel

		for( i=0; i<8; i++ )
 c009c60:	e5842024 	str	r2, [r4, #36]	; 0x24
			while( rADCCON & 0x1 );		// Check if Enable_start is low
			while( !(rADCCON & 0x40) );	// Check ECFLG
			Pt[i] = (0x3ff&rADCDAT);
		}
		// read X-position AVERAGE value
		Pt[8] = (Pt[0]+Pt[1]+Pt[2]+Pt[3]+Pt[4]+Pt[5]+Pt[6]+Pt[7])/8;
 c009c64:	e584c020 	str	ip, [r4, #32]

		tmp = Pt[8];
 c009c68:	e584c028 	str	ip, [r4, #40]	; 0x28
//---------------- * AD CONVERSOR Y-POSITION * ---------------------

		// TSPX(GPE4_Q4(-)) TSPY(GPE5_Q3(+)) TSMY(GPE6_Q2(-)) TSMX(GPE7_Q1(+))
		//       1               0                 0                1
		rPDATE=0x98;
		rADCCON=0x0<<2;		        	// AIN0
 c009c6c:	e5861000 	str	r1, [r6]

		DelayTime(1000);                // delay to set up the next channel
 c009c70:	ebffdb59 	bl	c0009dc <DelayTime>
		for( i=0; i<8; i++ )
		{
			rADCCON |= 0x1;             // Start Y-position conversion
			while( rADCCON & 0x1 );     // Check if Enable_start is low
 c009c74:	e1a02006 	mov	r2, r6
		rADCCON=0x0<<2;		        	// AIN0

		DelayTime(1000);                // delay to set up the next channel
		for( i=0; i<8; i++ )
		{
			rADCCON |= 0x1;             // Start Y-position conversion
 c009c78:	e5961000 	ldr	r1, [r6]
 c009c7c:	e381c001 	orr	ip, r1, #1
 c009c80:	e586c000 	str	ip, [r6]
			while( rADCCON & 0x1 );     // Check if Enable_start is low
 c009c84:	e596e000 	ldr	lr, [r6]
 c009c88:	e31e0001 	tst	lr, #1
 c009c8c:	1afffffc 	bne	c009c84 <touchpad_ISR+0x140>
			while( !(rADCCON & 0x40) ); // Check ECFLG
 c009c90:	e5960000 	ldr	r0, [r6]
 c009c94:	e3100040 	tst	r0, #64	; 0x40
 c009c98:	0afffffc 	beq	c009c90 <touchpad_ISR+0x14c>
			Pt[i] = (0x3ff&rADCDAT);
 c009c9c:	e5921008 	ldr	r1, [r2, #8]
 c009ca0:	e1a0cb01 	lsl	ip, r1, #22
 c009ca4:	e1a03b2c 	lsr	r3, ip, #22
 c009ca8:	e5a73004 	str	r3, [r7, #4]!
		//       1               0                 0                1
		rPDATE=0x98;
		rADCCON=0x0<<2;		        	// AIN0

		DelayTime(1000);                // delay to set up the next channel
		for( i=0; i<8; i++ )
 c009cac:	e1580007 	cmp	r8, r7
 c009cb0:	1afffff0 	bne	c009c78 <touchpad_ISR+0x134>
			while( rADCCON & 0x1 );     // Check if Enable_start is low
			while( !(rADCCON & 0x40) ); // Check ECFLG
			Pt[i] = (0x3ff&rADCDAT);
		}
		// read Y-position AVERAGE value
		Pt[8] = (Pt[0]+Pt[1]+Pt[2]+Pt[3]+Pt[4]+Pt[5]+Pt[6]+Pt[7])/8;
 c009cb4:	e8944008 	ldm	r4, {r3, lr}
 c009cb8:	e08ee003 	add	lr, lr, r3
 c009cbc:	e2840008 	add	r0, r4, #8
 c009cc0:	e8900041 	ldm	r0, {r0, r6}
 c009cc4:	e08e7000 	add	r7, lr, r0
 c009cc8:	e5948010 	ldr	r8, [r4, #16]
 c009ccc:	e0871006 	add	r1, r7, r6
 c009cd0:	e5943014 	ldr	r3, [r4, #20]
 c009cd4:	e081c008 	add	ip, r1, r8
 c009cd8:	e5942018 	ldr	r2, [r4, #24]
 c009cdc:	e08c0003 	add	r0, ip, r3
 c009ce0:	e594e01c 	ldr	lr, [r4, #28]
 c009ce4:	e0806002 	add	r6, r0, r2
//-------------------------------------------------------------------------------------
	
		/* --- COORDENADAS --- */

		if(calibrar==0){
 c009ce8:	e5950004 	ldr	r0, [r5, #4]
			while( rADCCON & 0x1 );     // Check if Enable_start is low
			while( !(rADCCON & 0x40) ); // Check ECFLG
			Pt[i] = (0x3ff&rADCDAT);
		}
		// read Y-position AVERAGE value
		Pt[8] = (Pt[0]+Pt[1]+Pt[2]+Pt[3]+Pt[4]+Pt[5]+Pt[6]+Pt[7])/8;
 c009cec:	e086700e 	add	r7, r6, lr
		//       1               0                 0                1
		rPDATE=0x98;
		rADCCON=0x0<<2;		        	// AIN0

		DelayTime(1000);                // delay to set up the next channel
		for( i=0; i<8; i++ )
 c009cf0:	e3a08008 	mov	r8, #8
			while( rADCCON & 0x1 );     // Check if Enable_start is low
			while( !(rADCCON & 0x40) ); // Check ECFLG
			Pt[i] = (0x3ff&rADCDAT);
		}
		// read Y-position AVERAGE value
		Pt[8] = (Pt[0]+Pt[1]+Pt[2]+Pt[3]+Pt[4]+Pt[5]+Pt[6]+Pt[7])/8;
 c009cf4:	e1a071a7 	lsr	r7, r7, #3
//-------------------------------------------------------------------------------------
	
		/* --- COORDENADAS --- */

		if(calibrar==0){
 c009cf8:	e3500000 	cmp	r0, #0
		//       1               0                 0                1
		rPDATE=0x98;
		rADCCON=0x0<<2;		        	// AIN0

		DelayTime(1000);                // delay to set up the next channel
		for( i=0; i<8; i++ )
 c009cfc:	e5848024 	str	r8, [r4, #36]	; 0x24
 c009d00:	e59f616c 	ldr	r6, [pc, #364]	; c009e74 <touchpad_ISR+0x330>
			while( rADCCON & 0x1 );     // Check if Enable_start is low
			while( !(rADCCON & 0x40) ); // Check ECFLG
			Pt[i] = (0x3ff&rADCDAT);
		}
		// read Y-position AVERAGE value
		Pt[8] = (Pt[0]+Pt[1]+Pt[2]+Pt[3]+Pt[4]+Pt[5]+Pt[6]+Pt[7])/8;
 c009d04:	e5847020 	str	r7, [r4, #32]
//-------------------------------------------------------------------------------------
	
		/* --- COORDENADAS --- */

		if(calibrar==0){
 c009d08:	e59f8158 	ldr	r8, [pc, #344]	; c009e68 <touchpad_ISR+0x324>
 c009d0c:	1a000024 	bne	c009da4 <touchpad_ISR+0x260>
			if(tmp < Xmin){		//si estan fuera de los maximos, asignamos el maximo
 c009d10:	e2863028 	add	r3, r6, #40	; 0x28
 c009d14:	e8930028 	ldm	r3, {r3, r5}
 c009d18:	e1530005 	cmp	r3, r5
 c009d1c:	3a00001d 	bcc	c009d98 <touchpad_ISR+0x254>
				tmp = Xmin;
			}else if(tmp > Xmax){
 c009d20:	e5961030 	ldr	r1, [r6, #48]	; 0x30
 c009d24:	e1530001 	cmp	r3, r1
 c009d28:	9a000036 	bls	c009e08 <touchpad_ISR+0x2c4>
 c009d2c:	e0651001 	rsb	r1, r5, r1
 c009d30:	e081c101 	add	ip, r1, r1, lsl #2
 c009d34:	e1a0030c 	lsl	r0, ip, #6
				Pt[8] = Ymin;
			}else if(Pt[8] > Ymax){
				Pt[8] = Ymax;
			}
	
			tmp = 320*(tmp - Xmin)/(Xmax - Xmin);   	// calculamos coordenadas en pixeles
 c009d38:	eb0000e5 	bl	c00a0d4 <__aeabi_uidiv>
			Pt[8] = 240*(Pt[8] - Xmin)/(Ymax - Ymin);
 c009d3c:	e0653007 	rsb	r3, r5, r7
 c009d40:	e063c203 	rsb	ip, r3, r3, lsl #4
				Pt[8] = Ymin;
			}else if(Pt[8] > Ymax){
				Pt[8] = Ymax;
			}
	
			tmp = 320*(tmp - Xmin)/(Xmax - Xmin);   	// calculamos coordenadas en pixeles
 c009d44:	e1a06000 	mov	r6, r0
			Pt[8] = 240*(Pt[8] - Xmin)/(Ymax - Ymin);
 c009d48:	e2843038 	add	r3, r4, #56	; 0x38
 c009d4c:	e813000a 	ldmda	r3, {r1, r3}
 c009d50:	e0431001 	sub	r1, r3, r1
 c009d54:	e1a0020c 	lsl	r0, ip, #4
				Pt[8] = Ymin;
			}else if(Pt[8] > Ymax){
				Pt[8] = Ymax;
			}
	
			tmp = 320*(tmp - Xmin)/(Xmax - Xmin);   	// calculamos coordenadas en pixeles
 c009d58:	e5846028 	str	r6, [r4, #40]	; 0x28
			Pt[8] = 240*(Pt[8] - Xmin)/(Ymax - Ymin);
 c009d5c:	eb0000dc 	bl	c00a0d4 <__aeabi_uidiv>
 c009d60:	e1a0c000 	mov	ip, r0
	
			uint32_t auxData = tmp & (0x00000fff);		// añadimos las coordenadas a la info del evento
			auxData |= ( (Pt[8] & (0x00000fff))<<12 );	// auxData=00YYYXXX
 c009d64:	e1a00a00 	lsl	r0, r0, #20
 c009d68:	e1a02420 	lsr	r2, r0, #8
			}
	
			tmp = 320*(tmp - Xmin)/(Xmax - Xmin);   	// calculamos coordenadas en pixeles
			Pt[8] = 240*(Pt[8] - Xmin)/(Ymax - Ymin);
	
			uint32_t auxData = tmp & (0x00000fff);		// añadimos las coordenadas a la info del evento
 c009d6c:	e1a01a06 	lsl	r1, r6, #20
			auxData |= ( (Pt[8] & (0x00000fff))<<12 );	// auxData=00YYYXXX
			push_debug(ev_tactil,auxData);				// guardamos evento
 c009d70:	e3a00004 	mov	r0, #4
 c009d74:	e1821a21 	orr	r1, r2, r1, lsr #20
			}else if(Pt[8] > Ymax){
				Pt[8] = Ymax;
			}
	
			tmp = 320*(tmp - Xmin)/(Xmax - Xmin);   	// calculamos coordenadas en pixeles
			Pt[8] = 240*(Pt[8] - Xmin)/(Ymax - Ymin);
 c009d78:	e584c020 	str	ip, [r4, #32]
	
			uint32_t auxData = tmp & (0x00000fff);		// añadimos las coordenadas a la info del evento
			auxData |= ( (Pt[8] & (0x00000fff))<<12 );	// auxData=00YYYXXX
			push_debug(ev_tactil,auxData);				// guardamos evento
 c009d7c:	ebffe0b8 	bl	c002064 <push_debug>
		}else{	// calibrar > 0
			push_debug(ev_tactil,0);	//si calibra, evento con coordenadas 0,0
			touchpad_calibrar(tmp,Pt[8]);
		}

		rPDATE = 0xb8;                  // should be enabled
 c009d80:	e59fc0e4 	ldr	ip, [pc, #228]	; c009e6c <touchpad_ISR+0x328>
 c009d84:	e3a0e0b8 	mov	lr, #184	; 0xb8
		DelayTime(3000);                // delay to set up the next channel
 c009d88:	e59f00e8 	ldr	r0, [pc, #232]	; c009e78 <touchpad_ISR+0x334>
		}else{	// calibrar > 0
			push_debug(ev_tactil,0);	//si calibra, evento con coordenadas 0,0
			touchpad_calibrar(tmp,Pt[8]);
		}

		rPDATE = 0xb8;                  // should be enabled
 c009d8c:	e58ce02c 	str	lr, [ip, #44]	; 0x2c
		DelayTime(3000);                // delay to set up the next channel
 c009d90:	ebffdb11 	bl	c0009dc <DelayTime>
 c009d94:	eaffff74 	b	c009b6c <touchpad_ISR+0x28>
//-------------------------------------------------------------------------------------
	
		/* --- COORDENADAS --- */

		if(calibrar==0){
			if(tmp < Xmin){		//si estan fuera de los maximos, asignamos el maximo
 c009d98:	e5962030 	ldr	r2, [r6, #48]	; 0x30
 c009d9c:	e0651002 	rsb	r1, r5, r2
 c009da0:	eaffffe4 	b	c009d38 <touchpad_ISR+0x1f4>
			auxData |= ( (Pt[8] & (0x00000fff))<<12 );	// auxData=00YYYXXX
			push_debug(ev_tactil,auxData);				// guardamos evento


		}else{	// calibrar > 0
			push_debug(ev_tactil,0);	//si calibra, evento con coordenadas 0,0
 c009da4:	e3a01000 	mov	r1, #0
 c009da8:	e3a00004 	mov	r0, #4
 c009dac:	ebffe0ac 	bl	c002064 <push_debug>

/*********************************************************************************************
* Calibra la pantalla, establece nuevos maximos de mediciones.
*********************************************************************************************/
void touchpad_calibrar(ULONG tx, ULONG ty){
    if(primerClick == 1){
 c009db0:	e5981008 	ldr	r1, [r8, #8]
 c009db4:	e3510001 	cmp	r1, #1
			push_debug(ev_tactil,auxData);				// guardamos evento


		}else{	// calibrar > 0
			push_debug(ev_tactil,0);	//si calibra, evento con coordenadas 0,0
			touchpad_calibrar(tmp,Pt[8]);
 c009db8:	e5963028 	ldr	r3, [r6, #40]	; 0x28
 c009dbc:	e5962020 	ldr	r2, [r6, #32]

/*********************************************************************************************
* Calibra la pantalla, establece nuevos maximos de mediciones.
*********************************************************************************************/
void touchpad_calibrar(ULONG tx, ULONG ty){
    if(primerClick == 1){
 c009dc0:	0a000021 	beq	c009e4c <touchpad_ISR+0x308>
    	Xmax = tx;				// En la primera pulsación asignamos sin comparar
    	Xmin = tx;
    	Ymax = ty;
    	Ymin = ty;
    }else{
		if(tx < Xmin){			// En las siguientes, comprobamos que es mejor maximo/minimo
 c009dc4:	e596002c 	ldr	r0, [r6, #44]	; 0x2c
 c009dc8:	e1530000 	cmp	r3, r0
			Xmin=tx;
 c009dcc:	3586302c 	strcc	r3, [r6, #44]	; 0x2c
    	Xmax = tx;				// En la primera pulsación asignamos sin comparar
    	Xmin = tx;
    	Ymax = ty;
    	Ymin = ty;
    }else{
		if(tx < Xmin){			// En las siguientes, comprobamos que es mejor maximo/minimo
 c009dd0:	3a000002 	bcc	c009de0 <touchpad_ISR+0x29c>
			Xmin=tx;
		}else if(tx > Xmax){
 c009dd4:	e596c030 	ldr	ip, [r6, #48]	; 0x30
 c009dd8:	e153000c 	cmp	r3, ip
			Xmax=tx;
 c009ddc:	85863030 	strhi	r3, [r6, #48]	; 0x30
		}
		if(ty > Ymax){
 c009de0:	e5943038 	ldr	r3, [r4, #56]	; 0x38
 c009de4:	e1520003 	cmp	r2, r3
 c009de8:	e59f3084 	ldr	r3, [pc, #132]	; c009e74 <touchpad_ISR+0x330>
			Ymax=ty;
 c009dec:	85832038 	strhi	r2, [r3, #56]	; 0x38
		if(tx < Xmin){			// En las siguientes, comprobamos que es mejor maximo/minimo
			Xmin=tx;
		}else if(tx > Xmax){
			Xmax=tx;
		}
		if(ty > Ymax){
 c009df0:	8a000000 	bhi	c009df8 <touchpad_ISR+0x2b4>
			Ymax=ty;
		}else if(ty < Ymax){
			Ymin=ty;
 c009df4:	35832034 	strcc	r2, [r3, #52]	; 0x34
		}
	}
    calibrar--;
 c009df8:	e5951004 	ldr	r1, [r5, #4]
 c009dfc:	e2412001 	sub	r2, r1, #1
 c009e00:	e5852004 	str	r2, [r5, #4]
 c009e04:	eaffffdd 	b	c009d80 <touchpad_ISR+0x23c>
		if(calibrar==0){
			if(tmp < Xmin){		//si estan fuera de los maximos, asignamos el maximo
				tmp = Xmin;
			}else if(tmp > Xmax){
				tmp = Xmax;
			}else if(Pt[8] < Ymin){
 c009e08:	e5962034 	ldr	r2, [r6, #52]	; 0x34
 c009e0c:	e1570002 	cmp	r7, r2
 c009e10:	3a000007 	bcc	c009e34 <touchpad_ISR+0x2f0>
				Pt[8] = Ymin;
			}else if(Pt[8] > Ymax){
 c009e14:	e5962038 	ldr	r2, [r6, #56]	; 0x38
 c009e18:	e1570002 	cmp	r7, r2
 c009e1c:	8a000004 	bhi	c009e34 <touchpad_ISR+0x2f0>
 c009e20:	e0653003 	rsb	r3, r5, r3
 c009e24:	e3a00d05 	mov	r0, #320	; 0x140
 c009e28:	e0000093 	mul	r0, r3, r0
 c009e2c:	e0651001 	rsb	r1, r5, r1
 c009e30:	eaffffc0 	b	c009d38 <touchpad_ISR+0x1f4>
 c009e34:	e0657003 	rsb	r7, r5, r3
 c009e38:	e3a00d05 	mov	r0, #320	; 0x140
 c009e3c:	e0000097 	mul	r0, r7, r0
 c009e40:	e0651001 	rsb	r1, r5, r1
 c009e44:	e1a07002 	mov	r7, r2
 c009e48:	eaffffba 	b	c009d38 <touchpad_ISR+0x1f4>
/*********************************************************************************************
* Calibra la pantalla, establece nuevos maximos de mediciones.
*********************************************************************************************/
void touchpad_calibrar(ULONG tx, ULONG ty){
    if(primerClick == 1){
    	primerClick=0;
 c009e4c:	e3a0e000 	mov	lr, #0
 c009e50:	e588e008 	str	lr, [r8, #8]
    	Xmax = tx;				// En la primera pulsación asignamos sin comparar
 c009e54:	e5863030 	str	r3, [r6, #48]	; 0x30
    	Xmin = tx;
 c009e58:	e586302c 	str	r3, [r6, #44]	; 0x2c
    	Ymax = ty;
 c009e5c:	e5862038 	str	r2, [r6, #56]	; 0x38
    	Ymin = ty;
 c009e60:	e5862034 	str	r2, [r6, #52]	; 0x34
 c009e64:	eaffffe3 	b	c009df8 <touchpad_ISR+0x2b4>
 c009e68:	0c00b0c0 	.word	0x0c00b0c0
 c009e6c:	01d20000 	.word	0x01d20000
 c009e70:	0c00cedc 	.word	0x0c00cedc
 c009e74:	0c00cee0 	.word	0x0c00cee0
 c009e78:	00000bb8 	.word	0x00000bb8

0c009e7c <touchpad_calibrar>:

/*********************************************************************************************
* Calibra la pantalla, establece nuevos maximos de mediciones.
*********************************************************************************************/
void touchpad_calibrar(ULONG tx, ULONG ty){
    if(primerClick == 1){
 c009e7c:	e59f3078 	ldr	r3, [pc, #120]	; c009efc <touchpad_calibrar+0x80>
 c009e80:	e5932008 	ldr	r2, [r3, #8]
 c009e84:	e3520001 	cmp	r2, #1
 c009e88:	0a000011 	beq	c009ed4 <touchpad_calibrar+0x58>
    	Xmax = tx;				// En la primera pulsación asignamos sin comparar
    	Xmin = tx;
    	Ymax = ty;
    	Ymin = ty;
    }else{
		if(tx < Xmin){			// En las siguientes, comprobamos que es mejor maximo/minimo
 c009e8c:	e59f206c 	ldr	r2, [pc, #108]	; c009f00 <touchpad_calibrar+0x84>
 c009e90:	e592c02c 	ldr	ip, [r2, #44]	; 0x2c
 c009e94:	e150000c 	cmp	r0, ip
			Xmin=tx;
 c009e98:	3582002c 	strcc	r0, [r2, #44]	; 0x2c
    	Xmax = tx;				// En la primera pulsación asignamos sin comparar
    	Xmin = tx;
    	Ymax = ty;
    	Ymin = ty;
    }else{
		if(tx < Xmin){			// En las siguientes, comprobamos que es mejor maximo/minimo
 c009e9c:	3a000002 	bcc	c009eac <touchpad_calibrar+0x30>
			Xmin=tx;
		}else if(tx > Xmax){
 c009ea0:	e592c030 	ldr	ip, [r2, #48]	; 0x30
 c009ea4:	e150000c 	cmp	r0, ip
			Xmax=tx;
 c009ea8:	85820030 	strhi	r0, [r2, #48]	; 0x30
		}
		if(ty > Ymax){
 c009eac:	e5920038 	ldr	r0, [r2, #56]	; 0x38
 c009eb0:	e59f2048 	ldr	r2, [pc, #72]	; c009f00 <touchpad_calibrar+0x84>
 c009eb4:	e1510000 	cmp	r1, r0
			Ymax=ty;
 c009eb8:	85821038 	strhi	r1, [r2, #56]	; 0x38
		if(tx < Xmin){			// En las siguientes, comprobamos que es mejor maximo/minimo
			Xmin=tx;
		}else if(tx > Xmax){
			Xmax=tx;
		}
		if(ty > Ymax){
 c009ebc:	8a000000 	bhi	c009ec4 <touchpad_calibrar+0x48>
			Ymax=ty;
		}else if(ty < Ymax){
			Ymin=ty;
 c009ec0:	35821034 	strcc	r1, [r2, #52]	; 0x34
		}
	}
    calibrar--;
 c009ec4:	e5932004 	ldr	r2, [r3, #4]
 c009ec8:	e2421001 	sub	r1, r2, #1
 c009ecc:	e5831004 	str	r1, [r3, #4]
}
 c009ed0:	e12fff1e 	bx	lr
* Calibra la pantalla, establece nuevos maximos de mediciones.
*********************************************************************************************/
void touchpad_calibrar(ULONG tx, ULONG ty){
    if(primerClick == 1){
    	primerClick=0;
    	Xmax = tx;				// En la primera pulsación asignamos sin comparar
 c009ed4:	e59f2024 	ldr	r2, [pc, #36]	; c009f00 <touchpad_calibrar+0x84>
    	Xmin = tx;
    	Ymax = ty;
 c009ed8:	e5821038 	str	r1, [r2, #56]	; 0x38
    	Ymin = ty;
 c009edc:	e5821034 	str	r1, [r2, #52]	; 0x34
* Calibra la pantalla, establece nuevos maximos de mediciones.
*********************************************************************************************/
void touchpad_calibrar(ULONG tx, ULONG ty){
    if(primerClick == 1){
    	primerClick=0;
    	Xmax = tx;				// En la primera pulsación asignamos sin comparar
 c009ee0:	e5820030 	str	r0, [r2, #48]	; 0x30
    	Xmin = tx;
 c009ee4:	e582002c 	str	r0, [r2, #44]	; 0x2c
			Ymax=ty;
		}else if(ty < Ymax){
			Ymin=ty;
		}
	}
    calibrar--;
 c009ee8:	e5932004 	ldr	r2, [r3, #4]
/*********************************************************************************************
* Calibra la pantalla, establece nuevos maximos de mediciones.
*********************************************************************************************/
void touchpad_calibrar(ULONG tx, ULONG ty){
    if(primerClick == 1){
    	primerClick=0;
 c009eec:	e3a0c000 	mov	ip, #0
			Ymax=ty;
		}else if(ty < Ymax){
			Ymin=ty;
		}
	}
    calibrar--;
 c009ef0:	e2421001 	sub	r1, r2, #1
/*********************************************************************************************
* Calibra la pantalla, establece nuevos maximos de mediciones.
*********************************************************************************************/
void touchpad_calibrar(ULONG tx, ULONG ty){
    if(primerClick == 1){
    	primerClick=0;
 c009ef4:	e9831002 	stmib	r3, {r1, ip}
		}else if(ty < Ymax){
			Ymin=ty;
		}
	}
    calibrar--;
}
 c009ef8:	e12fff1e 	bx	lr
 c009efc:	0c00b0c0 	.word	0x0c00b0c0
 c009f00:	0c00cee0 	.word	0x0c00cee0

0c009f04 <touchpad_init>:

/*********************************************************************************************
* Inicialización de la pantalla táctil
*********************************************************************************************/
void touchpad_init()
{
 c009f04:	e1a0c00d 	mov	ip, sp
 c009f08:	e92dd818 	push	{r3, r4, fp, ip, lr, pc}
    rI_ISPC |= BIT_EINT2;           	// clear pending_bit
 c009f0c:	e3a0461e 	mov	r4, #31457280	; 0x1e00000
 c009f10:	e5940024 	ldr	r0, [r4, #36]	; 0x24

/*********************************************************************************************
* Inicialización de la pantalla táctil
*********************************************************************************************/
void touchpad_init()
{
 c009f14:	e24cb004 	sub	fp, ip, #4
    rI_ISPC |= BIT_EINT2;           	// clear pending_bit
 c009f18:	e380c502 	orr	ip, r0, #8388608	; 0x800000
 c009f1c:	e584c024 	str	ip, [r4, #36]	; 0x24
    pISR_EINT2=(unsigned)touchpad_ISR;	// set interrupt handler

    rPCONG  |= 0x0030;		// Establece la funcion de los pines (EINT2)
 c009f20:	e59fc07c 	ldr	ip, [pc, #124]	; c009fa4 <touchpad_init+0xa0>
 c009f24:	e59c2040 	ldr	r2, [ip, #64]	; 0x40
 c009f28:	e3821030 	orr	r1, r2, #48	; 0x30
 c009f2c:	e58c1040 	str	r1, [ip, #64]	; 0x40
    rPUPG   |= 0x04;		// Deshabilita el "pull up" de los pines (EINT2)
 c009f30:	e59c3048 	ldr	r3, [ip, #72]	; 0x48
 c009f34:	e383e004 	orr	lr, r3, #4
 c009f38:	e58ce048 	str	lr, [ip, #72]	; 0x48
    rEXTINT |= 0x00000200;	// Lineas de int. como de flanco de bajada (EINT2)
 c009f3c:	e59c0050 	ldr	r0, [ip, #80]	; 0x50
* Inicialización de la pantalla táctil
*********************************************************************************************/
void touchpad_init()
{
    rI_ISPC |= BIT_EINT2;           	// clear pending_bit
    pISR_EINT2=(unsigned)touchpad_ISR;	// set interrupt handler
 c009f40:	e59f3060 	ldr	r3, [pc, #96]	; c009fa8 <touchpad_init+0xa4>
 c009f44:	e59f1060 	ldr	r1, [pc, #96]	; c009fac <touchpad_init+0xa8>

    rPCONG  |= 0x0030;		// Establece la funcion de los pines (EINT2)
    rPUPG   |= 0x04;		// Deshabilita el "pull up" de los pines (EINT2)
    rEXTINT |= 0x00000200;	// Lineas de int. como de flanco de bajada (EINT2)
 c009f48:	e3802c02 	orr	r2, r0, #512	; 0x200
	

	// TSPX(GPE4_Q4(-)) TSPY(GPE5_Q3(-)) TSMY(GPE6_Q2(-)) TSMX(GPE7_Q1(+)) 
	//          1               1                0                 1

    rPDATE = 0xb8;                  // should be enabled
 c009f4c:	e3a0e0b8 	mov	lr, #184	; 0xb8
    rI_ISPC |= BIT_EINT2;           	// clear pending_bit
    pISR_EINT2=(unsigned)touchpad_ISR;	// set interrupt handler

    rPCONG  |= 0x0030;		// Establece la funcion de los pines (EINT2)
    rPUPG   |= 0x04;		// Deshabilita el "pull up" de los pines (EINT2)
    rEXTINT |= 0x00000200;	// Lineas de int. como de flanco de bajada (EINT2)
 c009f50:	e58c2050 	str	r2, [ip, #80]	; 0x50

	// TSPX(GPE4_Q4(-)) TSPY(GPE5_Q3(-)) TSMY(GPE6_Q2(-)) TSMX(GPE7_Q1(+)) 
	//          1               1                0                 1

    rPDATE = 0xb8;                  // should be enabled
    DelayTime(100); 
 c009f54:	e3a00064 	mov	r0, #100	; 0x64
* Inicialización de la pantalla táctil
*********************************************************************************************/
void touchpad_init()
{
    rI_ISPC |= BIT_EINT2;           	// clear pending_bit
    pISR_EINT2=(unsigned)touchpad_ISR;	// set interrupt handler
 c009f58:	e5013083 	str	r3, [r1, #-131]	; 0xffffff7d
	

	// TSPX(GPE4_Q4(-)) TSPY(GPE5_Q3(-)) TSMY(GPE6_Q2(-)) TSMX(GPE7_Q1(+)) 
	//          1               1                0                 1

    rPDATE = 0xb8;                  // should be enabled
 c009f5c:	e58ce02c 	str	lr, [ip, #44]	; 0x2c
    DelayTime(100); 
 c009f60:	ebffda9d 	bl	c0009dc <DelayTime>

    rCLKCON |= 0x1000;				// enable A/D clock
 c009f64:	e3a01776 	mov	r1, #30932992	; 0x1d80000
 c009f68:	e5912004 	ldr	r2, [r1, #4]
    rADCPSR = 0x13;					// A/D prescaler = 19+1
 c009f6c:	e3a03775 	mov	r3, #30670848	; 0x1d40000
	//          1               1                0                 1

    rPDATE = 0xb8;                  // should be enabled
    DelayTime(100); 

    rCLKCON |= 0x1000;				// enable A/D clock
 c009f70:	e3820a01 	orr	r0, r2, #4096	; 0x1000
    rADCPSR = 0x13;					// A/D prescaler = 19+1
 c009f74:	e3a0c013 	mov	ip, #19
	//          1               1                0                 1

    rPDATE = 0xb8;                  // should be enabled
    DelayTime(100); 

    rCLKCON |= 0x1000;				// enable A/D clock
 c009f78:	e5810004 	str	r0, [r1, #4]
    rADCPSR = 0x13;					// A/D prescaler = 19+1
 c009f7c:	e583c004 	str	ip, [r3, #4]

    //Xmax = 750;    Xmin = 200;	// calibramos al inicio
    //Ymax = 620;    Ymin = 120;

    rI_ISPC |= BIT_EINT2;           // clear pending_bit
 c009f80:	e5942024 	ldr	r2, [r4, #36]	; 0x24
 c009f84:	e3821502 	orr	r1, r2, #8388608	; 0x800000
 c009f88:	e5841024 	str	r1, [r4, #36]	; 0x24
    rINTMSK &= ~(BIT_EINT2);		// habilitamos interrupciones
 c009f8c:	e594000c 	ldr	r0, [r4, #12]
 c009f90:	e3c03502 	bic	r3, r0, #8388608	; 0x800000
 c009f94:	e584300c 	str	r3, [r4, #12]

}
 c009f98:	e24bd014 	sub	sp, fp, #20
 c009f9c:	e89d6818 	ldm	sp, {r3, r4, fp, sp, lr}
 c009fa0:	e12fff1e 	bx	lr
 c009fa4:	01d20000 	.word	0x01d20000
 c009fa8:	0c009b44 	.word	0x0c009b44
 c009fac:	0c7fffff 	.word	0x0c7fffff

0c009fb0 <touchpad_setCalibrar>:

/*********************************************************************************************
* Activa el calibrado en las siguientes Ncal pulsaciones
*********************************************************************************************/
void touchpad_setCalibrar(int Ncal){
	calibrar=Ncal;				// numero de pulsaciones utilizadas para calibrado.
 c009fb0:	e59f3008 	ldr	r3, [pc, #8]	; c009fc0 <touchpad_setCalibrar+0x10>
	primerClick=1;
 c009fb4:	e3a02001 	mov	r2, #1

/*********************************************************************************************
* Activa el calibrado en las siguientes Ncal pulsaciones
*********************************************************************************************/
void touchpad_setCalibrar(int Ncal){
	calibrar=Ncal;				// numero de pulsaciones utilizadas para calibrado.
 c009fb8:	e9830005 	stmib	r3, {r0, r2}
	primerClick=1;
}
 c009fbc:	e12fff1e 	bx	lr
 c009fc0:	0c00b0c0 	.word	0x0c00b0c0

0c009fc4 <touchpad_reactivar>:

/*********************************************************************************************
* Reactiva las interrupciones de la pantalla tactil
*********************************************************************************************/
void touchpad_reactivar(){
	rI_ISPC   |= BIT_EINT2;		// borra el bit pendiente en INTPND.
 c009fc4:	e3a0361e 	mov	r3, #31457280	; 0x1e00000
 c009fc8:	e593c024 	ldr	ip, [r3, #36]	; 0x24
 c009fcc:	e38c1502 	orr	r1, ip, #8388608	; 0x800000
 c009fd0:	e5831024 	str	r1, [r3, #36]	; 0x24
	rINTMSK &= ~(BIT_EINT2);	// activar interrupciones.
 c009fd4:	e593000c 	ldr	r0, [r3, #12]
 c009fd8:	e3c02502 	bic	r2, r0, #8388608	; 0x800000
 c009fdc:	e583200c 	str	r2, [r3, #12]
}
 c009fe0:	e12fff1e 	bx	lr

0c009fe4 <touchpad_estado>:

/*********************************************************************************************
* Devuelve 1 si el touchpad esta pulsado
*********************************************************************************************/
int touchpad_estado(){
	int data=rPDATG;			// BIT 2 a 1 si touchpad pulsado.
 c009fe4:	e59f0010 	ldr	r0, [pc, #16]	; c009ffc <touchpad_estado+0x18>
 c009fe8:	e5903044 	ldr	r3, [r0, #68]	; 0x44
	if( (data & 0x04) == 0 ){	// comprobamos BIT 2.
		return 1;
 c009fec:	e3130004 	tst	r3, #4
	}else{
		return 0;
	}
}
 c009ff0:	13a00000 	movne	r0, #0
 c009ff4:	03a00001 	moveq	r0, #1
 c009ff8:	e12fff1e 	bx	lr
 c009ffc:	01d20000 	.word	0x01d20000

0c00a000 <touchpad_close>:

/*********************************************************************************************
* Desactiva la pantalla tactil
*********************************************************************************************/
void touchpad_close(){
	rINTMSK |= BIT_EINT2;
 c00a000:	e3a0161e 	mov	r1, #31457280	; 0x1e00000
 c00a004:	e591c00c 	ldr	ip, [r1, #12]
	pISR_EINT2 = (int)NULL;
 c00a008:	e59f3010 	ldr	r3, [pc, #16]	; c00a020 <touchpad_close+0x20>

/*********************************************************************************************
* Desactiva la pantalla tactil
*********************************************************************************************/
void touchpad_close(){
	rINTMSK |= BIT_EINT2;
 c00a00c:	e38c0502 	orr	r0, ip, #8388608	; 0x800000
	pISR_EINT2 = (int)NULL;
 c00a010:	e3a02000 	mov	r2, #0

/*********************************************************************************************
* Desactiva la pantalla tactil
*********************************************************************************************/
void touchpad_close(){
	rINTMSK |= BIT_EINT2;
 c00a014:	e581000c 	str	r0, [r1, #12]
	pISR_EINT2 = (int)NULL;
 c00a018:	e5032083 	str	r2, [r3, #-131]	; 0xffffff7d
}
 c00a01c:	e12fff1e 	bx	lr
 c00a020:	0c7fffff 	.word	0x0c7fffff

0c00a024 <tp_antirrebotes_ev_tactil>:
/*********************************************************************************************
* Funcion 1 del autómata. Transicion causada por ev_tactil.
*********************************************************************************************/
void tp_antirrebotes_ev_tactil()
{
	estado=RETARDO_PULSAR; //Han pulsado boton, pasamos a estado de espera de retardo inicial
 c00a024:	e59f300c 	ldr	r3, [pc, #12]	; c00a038 <tp_antirrebotes_ev_tactil+0x14>
 c00a028:	e3a00001 	mov	r0, #1
	counter=0;
 c00a02c:	e3a02000 	mov	r2, #0
/*********************************************************************************************
* Funcion 1 del autómata. Transicion causada por ev_tactil.
*********************************************************************************************/
void tp_antirrebotes_ev_tactil()
{
	estado=RETARDO_PULSAR; //Han pulsado boton, pasamos a estado de espera de retardo inicial
 c00a030:	e8830005 	stm	r3, {r0, r2}
	counter=0;
}
 c00a034:	e12fff1e 	bx	lr
 c00a038:	0c00cf1c 	.word	0x0c00cf1c

0c00a03c <tp_antirrebotes_ev_tick>:
/*********************************************************************************************
* Funcion 2 del autómata. Transicion causada por ev_tick. Gestiona la reactivación
* de las interrupciones del touchpad.
*********************************************************************************************/
void tp_antirrebotes_ev_tick()
{
 c00a03c:	e1a0c00d 	mov	ip, sp
 c00a040:	e92dd818 	push	{r3, r4, fp, ip, lr, pc}
	if(estado!=TP_PREPARADO){
 c00a044:	e59f4084 	ldr	r4, [pc, #132]	; c00a0d0 <tp_antirrebotes_ev_tick+0x94>
 c00a048:	e5943000 	ldr	r3, [r4]
 c00a04c:	e3530000 	cmp	r3, #0
/*********************************************************************************************
* Funcion 2 del autómata. Transicion causada por ev_tick. Gestiona la reactivación
* de las interrupciones del touchpad.
*********************************************************************************************/
void tp_antirrebotes_ev_tick()
{
 c00a050:	e24cb004 	sub	fp, ip, #4
	if(estado!=TP_PREPARADO){
 c00a054:	0a00000a 	beq	c00a084 <tp_antirrebotes_ev_tick+0x48>
		counter++;
 c00a058:	e5942004 	ldr	r2, [r4, #4]
		if(estado==RETARDO_PULSAR && counter==TRP){		// espera retardo inical
 c00a05c:	e3530001 	cmp	r3, #1
* de las interrupciones del touchpad.
*********************************************************************************************/
void tp_antirrebotes_ev_tick()
{
	if(estado!=TP_PREPARADO){
		counter++;
 c00a060:	e2822001 	add	r2, r2, #1
 c00a064:	e5842004 	str	r2, [r4, #4]
		if(estado==RETARDO_PULSAR && counter==TRP){		// espera retardo inical
 c00a068:	0a000008 	beq	c00a090 <tp_antirrebotes_ev_tick+0x54>
			estado=ESPERANDO_SOLTAR;
		}else if(estado==ESPERANDO_SOLTAR && counter%MS_30){
 c00a06c:	e3530002 	cmp	r3, #2
 c00a070:	0a00000a 	beq	c00a0a0 <tp_antirrebotes_ev_tick+0x64>
			if(touchpad_estado()==0){					// si no esta pulsado, cambio de estado
				estado=RETARDO_SOLTAR;
				counter=0;
			}
		}else if(estado==RETARDO_SOLTAR && counter==TRD){//espera retardo final
 c00a074:	e3530003 	cmp	r3, #3
 c00a078:	1a000001 	bne	c00a084 <tp_antirrebotes_ev_tick+0x48>
 c00a07c:	e3520004 	cmp	r2, #4
 c00a080:	0a00000e 	beq	c00a0c0 <tp_antirrebotes_ev_tick+0x84>
			estado=TP_PREPARADO;
			touchpad_reactivar();						// activamos interrupciones
		}
	}
}
 c00a084:	e24bd014 	sub	sp, fp, #20
 c00a088:	e89d6818 	ldm	sp, {r3, r4, fp, sp, lr}
 c00a08c:	e12fff1e 	bx	lr
*********************************************************************************************/
void tp_antirrebotes_ev_tick()
{
	if(estado!=TP_PREPARADO){
		counter++;
		if(estado==RETARDO_PULSAR && counter==TRP){		// espera retardo inical
 c00a090:	e3520008 	cmp	r2, #8
			estado=ESPERANDO_SOLTAR;
 c00a094:	03a03002 	moveq	r3, #2
 c00a098:	05843000 	streq	r3, [r4]
 c00a09c:	eafffff8 	b	c00a084 <tp_antirrebotes_ev_tick+0x48>
		}else if(estado==ESPERANDO_SOLTAR && counter%MS_30){
 c00a0a0:	e3120001 	tst	r2, #1
 c00a0a4:	0afffff6 	beq	c00a084 <tp_antirrebotes_ev_tick+0x48>
			if(touchpad_estado()==0){					// si no esta pulsado, cambio de estado
 c00a0a8:	ebffffcd 	bl	c009fe4 <touchpad_estado>
 c00a0ac:	e3500000 	cmp	r0, #0
				estado=RETARDO_SOLTAR;
 c00a0b0:	03a03003 	moveq	r3, #3
 c00a0b4:	05843000 	streq	r3, [r4]
				counter=0;
 c00a0b8:	05840004 	streq	r0, [r4, #4]
 c00a0bc:	eafffff0 	b	c00a084 <tp_antirrebotes_ev_tick+0x48>
			}
		}else if(estado==RETARDO_SOLTAR && counter==TRD){//espera retardo final
			estado=TP_PREPARADO;
 c00a0c0:	e3a00000 	mov	r0, #0
 c00a0c4:	e5840000 	str	r0, [r4]
			touchpad_reactivar();						// activamos interrupciones
 c00a0c8:	ebffffbd 	bl	c009fc4 <touchpad_reactivar>
 c00a0cc:	eaffffec 	b	c00a084 <tp_antirrebotes_ev_tick+0x48>
 c00a0d0:	0c00cf1c 	.word	0x0c00cf1c

0c00a0d4 <__aeabi_uidiv>:
 c00a0d4:	e2512001 	subs	r2, r1, #1
 c00a0d8:	012fff1e 	bxeq	lr
 c00a0dc:	3a000036 	bcc	c00a1bc <__aeabi_uidiv+0xe8>
 c00a0e0:	e1500001 	cmp	r0, r1
 c00a0e4:	9a000022 	bls	c00a174 <__aeabi_uidiv+0xa0>
 c00a0e8:	e1110002 	tst	r1, r2
 c00a0ec:	0a000023 	beq	c00a180 <__aeabi_uidiv+0xac>
 c00a0f0:	e311020e 	tst	r1, #-536870912	; 0xe0000000
 c00a0f4:	01a01181 	lsleq	r1, r1, #3
 c00a0f8:	03a03008 	moveq	r3, #8
 c00a0fc:	13a03001 	movne	r3, #1
 c00a100:	e3510201 	cmp	r1, #268435456	; 0x10000000
 c00a104:	31510000 	cmpcc	r1, r0
 c00a108:	31a01201 	lslcc	r1, r1, #4
 c00a10c:	31a03203 	lslcc	r3, r3, #4
 c00a110:	3afffffa 	bcc	c00a100 <__aeabi_uidiv+0x2c>
 c00a114:	e3510102 	cmp	r1, #-2147483648	; 0x80000000
 c00a118:	31510000 	cmpcc	r1, r0
 c00a11c:	31a01081 	lslcc	r1, r1, #1
 c00a120:	31a03083 	lslcc	r3, r3, #1
 c00a124:	3afffffa 	bcc	c00a114 <__aeabi_uidiv+0x40>
 c00a128:	e3a02000 	mov	r2, #0
 c00a12c:	e1500001 	cmp	r0, r1
 c00a130:	20400001 	subcs	r0, r0, r1
 c00a134:	21822003 	orrcs	r2, r2, r3
 c00a138:	e15000a1 	cmp	r0, r1, lsr #1
 c00a13c:	204000a1 	subcs	r0, r0, r1, lsr #1
 c00a140:	218220a3 	orrcs	r2, r2, r3, lsr #1
 c00a144:	e1500121 	cmp	r0, r1, lsr #2
 c00a148:	20400121 	subcs	r0, r0, r1, lsr #2
 c00a14c:	21822123 	orrcs	r2, r2, r3, lsr #2
 c00a150:	e15001a1 	cmp	r0, r1, lsr #3
 c00a154:	204001a1 	subcs	r0, r0, r1, lsr #3
 c00a158:	218221a3 	orrcs	r2, r2, r3, lsr #3
 c00a15c:	e3500000 	cmp	r0, #0
 c00a160:	11b03223 	lsrsne	r3, r3, #4
 c00a164:	11a01221 	lsrne	r1, r1, #4
 c00a168:	1affffef 	bne	c00a12c <__aeabi_uidiv+0x58>
 c00a16c:	e1a00002 	mov	r0, r2
 c00a170:	e12fff1e 	bx	lr
 c00a174:	03a00001 	moveq	r0, #1
 c00a178:	13a00000 	movne	r0, #0
 c00a17c:	e12fff1e 	bx	lr
 c00a180:	e3510801 	cmp	r1, #65536	; 0x10000
 c00a184:	21a01821 	lsrcs	r1, r1, #16
 c00a188:	23a02010 	movcs	r2, #16
 c00a18c:	33a02000 	movcc	r2, #0
 c00a190:	e3510c01 	cmp	r1, #256	; 0x100
 c00a194:	21a01421 	lsrcs	r1, r1, #8
 c00a198:	22822008 	addcs	r2, r2, #8
 c00a19c:	e3510010 	cmp	r1, #16
 c00a1a0:	21a01221 	lsrcs	r1, r1, #4
 c00a1a4:	22822004 	addcs	r2, r2, #4
 c00a1a8:	e3510004 	cmp	r1, #4
 c00a1ac:	82822003 	addhi	r2, r2, #3
 c00a1b0:	908220a1 	addls	r2, r2, r1, lsr #1
 c00a1b4:	e1a00230 	lsr	r0, r0, r2
 c00a1b8:	e12fff1e 	bx	lr
 c00a1bc:	e3500000 	cmp	r0, #0
 c00a1c0:	13e00000 	mvnne	r0, #0
 c00a1c4:	ea000059 	b	c00a330 <__aeabi_idiv0>

0c00a1c8 <__aeabi_uidivmod>:
 c00a1c8:	e3510000 	cmp	r1, #0
 c00a1cc:	0afffffa 	beq	c00a1bc <__aeabi_uidiv+0xe8>
 c00a1d0:	e92d4003 	push	{r0, r1, lr}
 c00a1d4:	ebffffbe 	bl	c00a0d4 <__aeabi_uidiv>
 c00a1d8:	e8bd4006 	pop	{r1, r2, lr}
 c00a1dc:	e0030092 	mul	r3, r2, r0
 c00a1e0:	e0411003 	sub	r1, r1, r3
 c00a1e4:	e12fff1e 	bx	lr

0c00a1e8 <__aeabi_idiv>:
 c00a1e8:	e3510000 	cmp	r1, #0
 c00a1ec:	0a000043 	beq	c00a300 <.divsi3_skip_div0_test+0x110>

0c00a1f0 <.divsi3_skip_div0_test>:
 c00a1f0:	e020c001 	eor	ip, r0, r1
 c00a1f4:	42611000 	rsbmi	r1, r1, #0
 c00a1f8:	e2512001 	subs	r2, r1, #1
 c00a1fc:	0a000027 	beq	c00a2a0 <.divsi3_skip_div0_test+0xb0>
 c00a200:	e1b03000 	movs	r3, r0
 c00a204:	42603000 	rsbmi	r3, r0, #0
 c00a208:	e1530001 	cmp	r3, r1
 c00a20c:	9a000026 	bls	c00a2ac <.divsi3_skip_div0_test+0xbc>
 c00a210:	e1110002 	tst	r1, r2
 c00a214:	0a000028 	beq	c00a2bc <.divsi3_skip_div0_test+0xcc>
 c00a218:	e311020e 	tst	r1, #-536870912	; 0xe0000000
 c00a21c:	01a01181 	lsleq	r1, r1, #3
 c00a220:	03a02008 	moveq	r2, #8
 c00a224:	13a02001 	movne	r2, #1
 c00a228:	e3510201 	cmp	r1, #268435456	; 0x10000000
 c00a22c:	31510003 	cmpcc	r1, r3
 c00a230:	31a01201 	lslcc	r1, r1, #4
 c00a234:	31a02202 	lslcc	r2, r2, #4
 c00a238:	3afffffa 	bcc	c00a228 <.divsi3_skip_div0_test+0x38>
 c00a23c:	e3510102 	cmp	r1, #-2147483648	; 0x80000000
 c00a240:	31510003 	cmpcc	r1, r3
 c00a244:	31a01081 	lslcc	r1, r1, #1
 c00a248:	31a02082 	lslcc	r2, r2, #1
 c00a24c:	3afffffa 	bcc	c00a23c <.divsi3_skip_div0_test+0x4c>
 c00a250:	e3a00000 	mov	r0, #0
 c00a254:	e1530001 	cmp	r3, r1
 c00a258:	20433001 	subcs	r3, r3, r1
 c00a25c:	21800002 	orrcs	r0, r0, r2
 c00a260:	e15300a1 	cmp	r3, r1, lsr #1
 c00a264:	204330a1 	subcs	r3, r3, r1, lsr #1
 c00a268:	218000a2 	orrcs	r0, r0, r2, lsr #1
 c00a26c:	e1530121 	cmp	r3, r1, lsr #2
 c00a270:	20433121 	subcs	r3, r3, r1, lsr #2
 c00a274:	21800122 	orrcs	r0, r0, r2, lsr #2
 c00a278:	e15301a1 	cmp	r3, r1, lsr #3
 c00a27c:	204331a1 	subcs	r3, r3, r1, lsr #3
 c00a280:	218001a2 	orrcs	r0, r0, r2, lsr #3
 c00a284:	e3530000 	cmp	r3, #0
 c00a288:	11b02222 	lsrsne	r2, r2, #4
 c00a28c:	11a01221 	lsrne	r1, r1, #4
 c00a290:	1affffef 	bne	c00a254 <.divsi3_skip_div0_test+0x64>
 c00a294:	e35c0000 	cmp	ip, #0
 c00a298:	42600000 	rsbmi	r0, r0, #0
 c00a29c:	e12fff1e 	bx	lr
 c00a2a0:	e13c0000 	teq	ip, r0
 c00a2a4:	42600000 	rsbmi	r0, r0, #0
 c00a2a8:	e12fff1e 	bx	lr
 c00a2ac:	33a00000 	movcc	r0, #0
 c00a2b0:	01a00fcc 	asreq	r0, ip, #31
 c00a2b4:	03800001 	orreq	r0, r0, #1
 c00a2b8:	e12fff1e 	bx	lr
 c00a2bc:	e3510801 	cmp	r1, #65536	; 0x10000
 c00a2c0:	21a01821 	lsrcs	r1, r1, #16
 c00a2c4:	23a02010 	movcs	r2, #16
 c00a2c8:	33a02000 	movcc	r2, #0
 c00a2cc:	e3510c01 	cmp	r1, #256	; 0x100
 c00a2d0:	21a01421 	lsrcs	r1, r1, #8
 c00a2d4:	22822008 	addcs	r2, r2, #8
 c00a2d8:	e3510010 	cmp	r1, #16
 c00a2dc:	21a01221 	lsrcs	r1, r1, #4
 c00a2e0:	22822004 	addcs	r2, r2, #4
 c00a2e4:	e3510004 	cmp	r1, #4
 c00a2e8:	82822003 	addhi	r2, r2, #3
 c00a2ec:	908220a1 	addls	r2, r2, r1, lsr #1
 c00a2f0:	e35c0000 	cmp	ip, #0
 c00a2f4:	e1a00233 	lsr	r0, r3, r2
 c00a2f8:	42600000 	rsbmi	r0, r0, #0
 c00a2fc:	e12fff1e 	bx	lr
 c00a300:	e3500000 	cmp	r0, #0
 c00a304:	c3e00102 	mvngt	r0, #-2147483648	; 0x80000000
 c00a308:	b3a00102 	movlt	r0, #-2147483648	; 0x80000000
 c00a30c:	ea000007 	b	c00a330 <__aeabi_idiv0>

0c00a310 <__aeabi_idivmod>:
 c00a310:	e3510000 	cmp	r1, #0
 c00a314:	0afffff9 	beq	c00a300 <.divsi3_skip_div0_test+0x110>
 c00a318:	e92d4003 	push	{r0, r1, lr}
 c00a31c:	ebffffb3 	bl	c00a1f0 <.divsi3_skip_div0_test>
 c00a320:	e8bd4006 	pop	{r1, r2, lr}
 c00a324:	e0030092 	mul	r3, r2, r0
 c00a328:	e0411003 	sub	r1, r1, r3
 c00a32c:	e12fff1e 	bx	lr

0c00a330 <__aeabi_idiv0>:
 c00a330:	e12fff1e 	bx	lr

0c00a334 <__aeabi_drsub>:
 c00a334:	e2211102 	eor	r1, r1, #-2147483648	; 0x80000000
 c00a338:	ea000000 	b	c00a340 <__adddf3>

0c00a33c <__aeabi_dsub>:
 c00a33c:	e2233102 	eor	r3, r3, #-2147483648	; 0x80000000

0c00a340 <__adddf3>:
 c00a340:	e92d4030 	push	{r4, r5, lr}
 c00a344:	e1a04081 	lsl	r4, r1, #1
 c00a348:	e1a05083 	lsl	r5, r3, #1
 c00a34c:	e1340005 	teq	r4, r5
 c00a350:	01300002 	teqeq	r0, r2
 c00a354:	1194c000 	orrsne	ip, r4, r0
 c00a358:	1195c002 	orrsne	ip, r5, r2
 c00a35c:	11f0cac4 	mvnsne	ip, r4, asr #21
 c00a360:	11f0cac5 	mvnsne	ip, r5, asr #21
 c00a364:	0a00008c 	beq	c00a59c <__adddf3+0x25c>
 c00a368:	e1a04aa4 	lsr	r4, r4, #21
 c00a36c:	e0745aa5 	rsbs	r5, r4, r5, lsr #21
 c00a370:	b2655000 	rsblt	r5, r5, #0
 c00a374:	da000006 	ble	c00a394 <__adddf3+0x54>
 c00a378:	e0844005 	add	r4, r4, r5
 c00a37c:	e0202002 	eor	r2, r0, r2
 c00a380:	e0213003 	eor	r3, r1, r3
 c00a384:	e0220000 	eor	r0, r2, r0
 c00a388:	e0231001 	eor	r1, r3, r1
 c00a38c:	e0202002 	eor	r2, r0, r2
 c00a390:	e0213003 	eor	r3, r1, r3
 c00a394:	e3550036 	cmp	r5, #54	; 0x36
 c00a398:	88bd4030 	pophi	{r4, r5, lr}
 c00a39c:	812fff1e 	bxhi	lr
 c00a3a0:	e3110102 	tst	r1, #-2147483648	; 0x80000000
 c00a3a4:	e1a01601 	lsl	r1, r1, #12
 c00a3a8:	e3a0c601 	mov	ip, #1048576	; 0x100000
 c00a3ac:	e18c1621 	orr	r1, ip, r1, lsr #12
 c00a3b0:	0a000001 	beq	c00a3bc <__adddf3+0x7c>
 c00a3b4:	e2700000 	rsbs	r0, r0, #0
 c00a3b8:	e2e11000 	rsc	r1, r1, #0
 c00a3bc:	e3130102 	tst	r3, #-2147483648	; 0x80000000
 c00a3c0:	e1a03603 	lsl	r3, r3, #12
 c00a3c4:	e18c3623 	orr	r3, ip, r3, lsr #12
 c00a3c8:	0a000001 	beq	c00a3d4 <__adddf3+0x94>
 c00a3cc:	e2722000 	rsbs	r2, r2, #0
 c00a3d0:	e2e33000 	rsc	r3, r3, #0
 c00a3d4:	e1340005 	teq	r4, r5
 c00a3d8:	0a000069 	beq	c00a584 <__adddf3+0x244>
 c00a3dc:	e2444001 	sub	r4, r4, #1
 c00a3e0:	e275e020 	rsbs	lr, r5, #32
 c00a3e4:	ba000005 	blt	c00a400 <__adddf3+0xc0>
 c00a3e8:	e1a0ce12 	lsl	ip, r2, lr
 c00a3ec:	e0900532 	adds	r0, r0, r2, lsr r5
 c00a3f0:	e2a11000 	adc	r1, r1, #0
 c00a3f4:	e0900e13 	adds	r0, r0, r3, lsl lr
 c00a3f8:	e0b11553 	adcs	r1, r1, r3, asr r5
 c00a3fc:	ea000006 	b	c00a41c <__adddf3+0xdc>
 c00a400:	e2455020 	sub	r5, r5, #32
 c00a404:	e28ee020 	add	lr, lr, #32
 c00a408:	e3520001 	cmp	r2, #1
 c00a40c:	e1a0ce13 	lsl	ip, r3, lr
 c00a410:	238cc002 	orrcs	ip, ip, #2
 c00a414:	e0900553 	adds	r0, r0, r3, asr r5
 c00a418:	e0b11fc3 	adcs	r1, r1, r3, asr #31
 c00a41c:	e2015102 	and	r5, r1, #-2147483648	; 0x80000000
 c00a420:	5a000002 	bpl	c00a430 <__adddf3+0xf0>
 c00a424:	e27cc000 	rsbs	ip, ip, #0
 c00a428:	e2f00000 	rscs	r0, r0, #0
 c00a42c:	e2e11000 	rsc	r1, r1, #0
 c00a430:	e3510601 	cmp	r1, #1048576	; 0x100000
 c00a434:	3a00000f 	bcc	c00a478 <__adddf3+0x138>
 c00a438:	e3510602 	cmp	r1, #2097152	; 0x200000
 c00a43c:	3a000006 	bcc	c00a45c <__adddf3+0x11c>
 c00a440:	e1b010a1 	lsrs	r1, r1, #1
 c00a444:	e1b00060 	rrxs	r0, r0
 c00a448:	e1a0c06c 	rrx	ip, ip
 c00a44c:	e2844001 	add	r4, r4, #1
 c00a450:	e1a02a84 	lsl	r2, r4, #21
 c00a454:	e3720501 	cmn	r2, #4194304	; 0x400000
 c00a458:	2a00006b 	bcs	c00a60c <__adddf3+0x2cc>
 c00a45c:	e35c0102 	cmp	ip, #-2147483648	; 0x80000000
 c00a460:	01b0c0a0 	lsrseq	ip, r0, #1
 c00a464:	e2b00000 	adcs	r0, r0, #0
 c00a468:	e0a11a04 	adc	r1, r1, r4, lsl #20
 c00a46c:	e1811005 	orr	r1, r1, r5
 c00a470:	e8bd4030 	pop	{r4, r5, lr}
 c00a474:	e12fff1e 	bx	lr
 c00a478:	e1b0c08c 	lsls	ip, ip, #1
 c00a47c:	e0b00000 	adcs	r0, r0, r0
 c00a480:	e0a11001 	adc	r1, r1, r1
 c00a484:	e3110601 	tst	r1, #1048576	; 0x100000
 c00a488:	e2444001 	sub	r4, r4, #1
 c00a48c:	1afffff2 	bne	c00a45c <__adddf3+0x11c>
 c00a490:	e3310000 	teq	r1, #0
 c00a494:	13a03014 	movne	r3, #20
 c00a498:	03a03034 	moveq	r3, #52	; 0x34
 c00a49c:	01a01000 	moveq	r1, r0
 c00a4a0:	03a00000 	moveq	r0, #0
 c00a4a4:	e1a02001 	mov	r2, r1
 c00a4a8:	e3520801 	cmp	r2, #65536	; 0x10000
 c00a4ac:	21a02822 	lsrcs	r2, r2, #16
 c00a4b0:	22433010 	subcs	r3, r3, #16
 c00a4b4:	e3520c01 	cmp	r2, #256	; 0x100
 c00a4b8:	21a02422 	lsrcs	r2, r2, #8
 c00a4bc:	22433008 	subcs	r3, r3, #8
 c00a4c0:	e3520010 	cmp	r2, #16
 c00a4c4:	21a02222 	lsrcs	r2, r2, #4
 c00a4c8:	22433004 	subcs	r3, r3, #4
 c00a4cc:	e3520004 	cmp	r2, #4
 c00a4d0:	22433002 	subcs	r3, r3, #2
 c00a4d4:	304330a2 	subcc	r3, r3, r2, lsr #1
 c00a4d8:	e04331a2 	sub	r3, r3, r2, lsr #3
 c00a4dc:	e2532020 	subs	r2, r3, #32
 c00a4e0:	aa000007 	bge	c00a504 <__adddf3+0x1c4>
 c00a4e4:	e292200c 	adds	r2, r2, #12
 c00a4e8:	da000004 	ble	c00a500 <__adddf3+0x1c0>
 c00a4ec:	e282c014 	add	ip, r2, #20
 c00a4f0:	e262200c 	rsb	r2, r2, #12
 c00a4f4:	e1a00c11 	lsl	r0, r1, ip
 c00a4f8:	e1a01231 	lsr	r1, r1, r2
 c00a4fc:	ea000004 	b	c00a514 <__adddf3+0x1d4>
 c00a500:	e2822014 	add	r2, r2, #20
 c00a504:	d262c020 	rsble	ip, r2, #32
 c00a508:	e1a01211 	lsl	r1, r1, r2
 c00a50c:	d1811c30 	orrle	r1, r1, r0, lsr ip
 c00a510:	d1a00210 	lslle	r0, r0, r2
 c00a514:	e0544003 	subs	r4, r4, r3
 c00a518:	a0811a04 	addge	r1, r1, r4, lsl #20
 c00a51c:	a1811005 	orrge	r1, r1, r5
 c00a520:	a8bd4030 	popge	{r4, r5, lr}
 c00a524:	a12fff1e 	bxge	lr
 c00a528:	e1e04004 	mvn	r4, r4
 c00a52c:	e254401f 	subs	r4, r4, #31
 c00a530:	aa00000f 	bge	c00a574 <__adddf3+0x234>
 c00a534:	e294400c 	adds	r4, r4, #12
 c00a538:	ca000006 	bgt	c00a558 <__adddf3+0x218>
 c00a53c:	e2844014 	add	r4, r4, #20
 c00a540:	e2642020 	rsb	r2, r4, #32
 c00a544:	e1a00430 	lsr	r0, r0, r4
 c00a548:	e1800211 	orr	r0, r0, r1, lsl r2
 c00a54c:	e1851431 	orr	r1, r5, r1, lsr r4
 c00a550:	e8bd4030 	pop	{r4, r5, lr}
 c00a554:	e12fff1e 	bx	lr
 c00a558:	e264400c 	rsb	r4, r4, #12
 c00a55c:	e2642020 	rsb	r2, r4, #32
 c00a560:	e1a00230 	lsr	r0, r0, r2
 c00a564:	e1800411 	orr	r0, r0, r1, lsl r4
 c00a568:	e1a01005 	mov	r1, r5
 c00a56c:	e8bd4030 	pop	{r4, r5, lr}
 c00a570:	e12fff1e 	bx	lr
 c00a574:	e1a00431 	lsr	r0, r1, r4
 c00a578:	e1a01005 	mov	r1, r5
 c00a57c:	e8bd4030 	pop	{r4, r5, lr}
 c00a580:	e12fff1e 	bx	lr
 c00a584:	e3340000 	teq	r4, #0
 c00a588:	e2233601 	eor	r3, r3, #1048576	; 0x100000
 c00a58c:	02211601 	eoreq	r1, r1, #1048576	; 0x100000
 c00a590:	02844001 	addeq	r4, r4, #1
 c00a594:	12455001 	subne	r5, r5, #1
 c00a598:	eaffff8f 	b	c00a3dc <__adddf3+0x9c>
 c00a59c:	e1f0cac4 	mvns	ip, r4, asr #21
 c00a5a0:	11f0cac5 	mvnsne	ip, r5, asr #21
 c00a5a4:	0a00001d 	beq	c00a620 <__adddf3+0x2e0>
 c00a5a8:	e1340005 	teq	r4, r5
 c00a5ac:	01300002 	teqeq	r0, r2
 c00a5b0:	0a000004 	beq	c00a5c8 <__adddf3+0x288>
 c00a5b4:	e194c000 	orrs	ip, r4, r0
 c00a5b8:	01a01003 	moveq	r1, r3
 c00a5bc:	01a00002 	moveq	r0, r2
 c00a5c0:	e8bd4030 	pop	{r4, r5, lr}
 c00a5c4:	e12fff1e 	bx	lr
 c00a5c8:	e1310003 	teq	r1, r3
 c00a5cc:	13a01000 	movne	r1, #0
 c00a5d0:	13a00000 	movne	r0, #0
 c00a5d4:	18bd4030 	popne	{r4, r5, lr}
 c00a5d8:	112fff1e 	bxne	lr
 c00a5dc:	e1b0caa4 	lsrs	ip, r4, #21
 c00a5e0:	1a000004 	bne	c00a5f8 <__adddf3+0x2b8>
 c00a5e4:	e1b00080 	lsls	r0, r0, #1
 c00a5e8:	e0b11001 	adcs	r1, r1, r1
 c00a5ec:	23811102 	orrcs	r1, r1, #-2147483648	; 0x80000000
 c00a5f0:	e8bd4030 	pop	{r4, r5, lr}
 c00a5f4:	e12fff1e 	bx	lr
 c00a5f8:	e2944501 	adds	r4, r4, #4194304	; 0x400000
 c00a5fc:	32811601 	addcc	r1, r1, #1048576	; 0x100000
 c00a600:	38bd4030 	popcc	{r4, r5, lr}
 c00a604:	312fff1e 	bxcc	lr
 c00a608:	e2015102 	and	r5, r1, #-2147483648	; 0x80000000
 c00a60c:	e385147f 	orr	r1, r5, #2130706432	; 0x7f000000
 c00a610:	e381160f 	orr	r1, r1, #15728640	; 0xf00000
 c00a614:	e3a00000 	mov	r0, #0
 c00a618:	e8bd4030 	pop	{r4, r5, lr}
 c00a61c:	e12fff1e 	bx	lr
 c00a620:	e1f0cac4 	mvns	ip, r4, asr #21
 c00a624:	11a01003 	movne	r1, r3
 c00a628:	11a00002 	movne	r0, r2
 c00a62c:	01f0cac5 	mvnseq	ip, r5, asr #21
 c00a630:	11a03001 	movne	r3, r1
 c00a634:	11a02000 	movne	r2, r0
 c00a638:	e1904601 	orrs	r4, r0, r1, lsl #12
 c00a63c:	01925603 	orrseq	r5, r2, r3, lsl #12
 c00a640:	01310003 	teqeq	r1, r3
 c00a644:	13811702 	orrne	r1, r1, #524288	; 0x80000
 c00a648:	e8bd4030 	pop	{r4, r5, lr}
 c00a64c:	e12fff1e 	bx	lr

0c00a650 <__aeabi_ui2d>:
 c00a650:	e3300000 	teq	r0, #0
 c00a654:	03a01000 	moveq	r1, #0
 c00a658:	012fff1e 	bxeq	lr
 c00a65c:	e92d4030 	push	{r4, r5, lr}
 c00a660:	e3a04b01 	mov	r4, #1024	; 0x400
 c00a664:	e2844032 	add	r4, r4, #50	; 0x32
 c00a668:	e3a05000 	mov	r5, #0
 c00a66c:	e3a01000 	mov	r1, #0
 c00a670:	eaffff86 	b	c00a490 <__adddf3+0x150>

0c00a674 <__aeabi_i2d>:
 c00a674:	e3300000 	teq	r0, #0
 c00a678:	03a01000 	moveq	r1, #0
 c00a67c:	012fff1e 	bxeq	lr
 c00a680:	e92d4030 	push	{r4, r5, lr}
 c00a684:	e3a04b01 	mov	r4, #1024	; 0x400
 c00a688:	e2844032 	add	r4, r4, #50	; 0x32
 c00a68c:	e2105102 	ands	r5, r0, #-2147483648	; 0x80000000
 c00a690:	42600000 	rsbmi	r0, r0, #0
 c00a694:	e3a01000 	mov	r1, #0
 c00a698:	eaffff7c 	b	c00a490 <__adddf3+0x150>

0c00a69c <__aeabi_f2d>:
 c00a69c:	e1b02080 	lsls	r2, r0, #1
 c00a6a0:	e1a011c2 	asr	r1, r2, #3
 c00a6a4:	e1a01061 	rrx	r1, r1
 c00a6a8:	e1a00e02 	lsl	r0, r2, #28
 c00a6ac:	121234ff 	andsne	r3, r2, #-16777216	; 0xff000000
 c00a6b0:	133304ff 	teqne	r3, #-16777216	; 0xff000000
 c00a6b4:	1221130e 	eorne	r1, r1, #939524096	; 0x38000000
 c00a6b8:	112fff1e 	bxne	lr
 c00a6bc:	e3320000 	teq	r2, #0
 c00a6c0:	133304ff 	teqne	r3, #-16777216	; 0xff000000
 c00a6c4:	012fff1e 	bxeq	lr
 c00a6c8:	e92d4030 	push	{r4, r5, lr}
 c00a6cc:	e3a04d0e 	mov	r4, #896	; 0x380
 c00a6d0:	e2015102 	and	r5, r1, #-2147483648	; 0x80000000
 c00a6d4:	e3c11102 	bic	r1, r1, #-2147483648	; 0x80000000
 c00a6d8:	eaffff6c 	b	c00a490 <__adddf3+0x150>

0c00a6dc <__aeabi_ul2d>:
 c00a6dc:	e1902001 	orrs	r2, r0, r1
 c00a6e0:	012fff1e 	bxeq	lr
 c00a6e4:	e92d4030 	push	{r4, r5, lr}
 c00a6e8:	e3a05000 	mov	r5, #0
 c00a6ec:	ea000006 	b	c00a70c <__aeabi_l2d+0x1c>

0c00a6f0 <__aeabi_l2d>:
 c00a6f0:	e1902001 	orrs	r2, r0, r1
 c00a6f4:	012fff1e 	bxeq	lr
 c00a6f8:	e92d4030 	push	{r4, r5, lr}
 c00a6fc:	e2115102 	ands	r5, r1, #-2147483648	; 0x80000000
 c00a700:	5a000001 	bpl	c00a70c <__aeabi_l2d+0x1c>
 c00a704:	e2700000 	rsbs	r0, r0, #0
 c00a708:	e2e11000 	rsc	r1, r1, #0
 c00a70c:	e3a04b01 	mov	r4, #1024	; 0x400
 c00a710:	e2844032 	add	r4, r4, #50	; 0x32
 c00a714:	e1b0cb21 	lsrs	ip, r1, #22
 c00a718:	0affff44 	beq	c00a430 <__adddf3+0xf0>
 c00a71c:	e3a02003 	mov	r2, #3
 c00a720:	e1b0c1ac 	lsrs	ip, ip, #3
 c00a724:	12822003 	addne	r2, r2, #3
 c00a728:	e1b0c1ac 	lsrs	ip, ip, #3
 c00a72c:	12822003 	addne	r2, r2, #3
 c00a730:	e08221ac 	add	r2, r2, ip, lsr #3
 c00a734:	e2623020 	rsb	r3, r2, #32
 c00a738:	e1a0c310 	lsl	ip, r0, r3
 c00a73c:	e1a00230 	lsr	r0, r0, r2
 c00a740:	e1800311 	orr	r0, r0, r1, lsl r3
 c00a744:	e1a01231 	lsr	r1, r1, r2
 c00a748:	e0844002 	add	r4, r4, r2
 c00a74c:	eaffff37 	b	c00a430 <__adddf3+0xf0>

0c00a750 <__aeabi_dmul>:
 c00a750:	e92d4070 	push	{r4, r5, r6, lr}
 c00a754:	e3a0c0ff 	mov	ip, #255	; 0xff
 c00a758:	e38ccc07 	orr	ip, ip, #1792	; 0x700
 c00a75c:	e01c4a21 	ands	r4, ip, r1, lsr #20
 c00a760:	101c5a23 	andsne	r5, ip, r3, lsr #20
 c00a764:	1134000c 	teqne	r4, ip
 c00a768:	1135000c 	teqne	r5, ip
 c00a76c:	0b000075 	bleq	c00a948 <__aeabi_dmul+0x1f8>
 c00a770:	e0844005 	add	r4, r4, r5
 c00a774:	e0216003 	eor	r6, r1, r3
 c00a778:	e1c11a8c 	bic	r1, r1, ip, lsl #21
 c00a77c:	e1c33a8c 	bic	r3, r3, ip, lsl #21
 c00a780:	e1905601 	orrs	r5, r0, r1, lsl #12
 c00a784:	11925603 	orrsne	r5, r2, r3, lsl #12
 c00a788:	e3811601 	orr	r1, r1, #1048576	; 0x100000
 c00a78c:	e3833601 	orr	r3, r3, #1048576	; 0x100000
 c00a790:	0a00001d 	beq	c00a80c <__aeabi_dmul+0xbc>
 c00a794:	e08ec290 	umull	ip, lr, r0, r2
 c00a798:	e3a05000 	mov	r5, #0
 c00a79c:	e0a5e291 	umlal	lr, r5, r1, r2
 c00a7a0:	e2062102 	and	r2, r6, #-2147483648	; 0x80000000
 c00a7a4:	e0a5e390 	umlal	lr, r5, r0, r3
 c00a7a8:	e3a06000 	mov	r6, #0
 c00a7ac:	e0a65391 	umlal	r5, r6, r1, r3
 c00a7b0:	e33c0000 	teq	ip, #0
 c00a7b4:	138ee001 	orrne	lr, lr, #1
 c00a7b8:	e24440ff 	sub	r4, r4, #255	; 0xff
 c00a7bc:	e3560c02 	cmp	r6, #512	; 0x200
 c00a7c0:	e2c44c03 	sbc	r4, r4, #768	; 0x300
 c00a7c4:	2a000002 	bcs	c00a7d4 <__aeabi_dmul+0x84>
 c00a7c8:	e1b0e08e 	lsls	lr, lr, #1
 c00a7cc:	e0b55005 	adcs	r5, r5, r5
 c00a7d0:	e0a66006 	adc	r6, r6, r6
 c00a7d4:	e1821586 	orr	r1, r2, r6, lsl #11
 c00a7d8:	e1811aa5 	orr	r1, r1, r5, lsr #21
 c00a7dc:	e1a00585 	lsl	r0, r5, #11
 c00a7e0:	e1800aae 	orr	r0, r0, lr, lsr #21
 c00a7e4:	e1a0e58e 	lsl	lr, lr, #11
 c00a7e8:	e254c0fd 	subs	ip, r4, #253	; 0xfd
 c00a7ec:	835c0c07 	cmphi	ip, #1792	; 0x700
 c00a7f0:	8a000011 	bhi	c00a83c <__aeabi_dmul+0xec>
 c00a7f4:	e35e0102 	cmp	lr, #-2147483648	; 0x80000000
 c00a7f8:	01b0e0a0 	lsrseq	lr, r0, #1
 c00a7fc:	e2b00000 	adcs	r0, r0, #0
 c00a800:	e0a11a04 	adc	r1, r1, r4, lsl #20
 c00a804:	e8bd4070 	pop	{r4, r5, r6, lr}
 c00a808:	e12fff1e 	bx	lr
 c00a80c:	e2066102 	and	r6, r6, #-2147483648	; 0x80000000
 c00a810:	e1861001 	orr	r1, r6, r1
 c00a814:	e1800002 	orr	r0, r0, r2
 c00a818:	e0211003 	eor	r1, r1, r3
 c00a81c:	e05440ac 	subs	r4, r4, ip, lsr #1
 c00a820:	c074500c 	rsbsgt	r5, r4, ip
 c00a824:	c1811a04 	orrgt	r1, r1, r4, lsl #20
 c00a828:	c8bd4070 	popgt	{r4, r5, r6, lr}
 c00a82c:	c12fff1e 	bxgt	lr
 c00a830:	e3811601 	orr	r1, r1, #1048576	; 0x100000
 c00a834:	e3a0e000 	mov	lr, #0
 c00a838:	e2544001 	subs	r4, r4, #1
 c00a83c:	ca00005d 	bgt	c00a9b8 <__aeabi_dmul+0x268>
 c00a840:	e3740036 	cmn	r4, #54	; 0x36
 c00a844:	d3a00000 	movle	r0, #0
 c00a848:	d2011102 	andle	r1, r1, #-2147483648	; 0x80000000
 c00a84c:	d8bd4070 	pople	{r4, r5, r6, lr}
 c00a850:	d12fff1e 	bxle	lr
 c00a854:	e2644000 	rsb	r4, r4, #0
 c00a858:	e2544020 	subs	r4, r4, #32
 c00a85c:	aa00001a 	bge	c00a8cc <__aeabi_dmul+0x17c>
 c00a860:	e294400c 	adds	r4, r4, #12
 c00a864:	ca00000c 	bgt	c00a89c <__aeabi_dmul+0x14c>
 c00a868:	e2844014 	add	r4, r4, #20
 c00a86c:	e2645020 	rsb	r5, r4, #32
 c00a870:	e1a03510 	lsl	r3, r0, r5
 c00a874:	e1a00430 	lsr	r0, r0, r4
 c00a878:	e1800511 	orr	r0, r0, r1, lsl r5
 c00a87c:	e2012102 	and	r2, r1, #-2147483648	; 0x80000000
 c00a880:	e3c11102 	bic	r1, r1, #-2147483648	; 0x80000000
 c00a884:	e0900fa3 	adds	r0, r0, r3, lsr #31
 c00a888:	e0a21431 	adc	r1, r2, r1, lsr r4
 c00a88c:	e19ee083 	orrs	lr, lr, r3, lsl #1
 c00a890:	01c00fa3 	biceq	r0, r0, r3, lsr #31
 c00a894:	e8bd4070 	pop	{r4, r5, r6, lr}
 c00a898:	e12fff1e 	bx	lr
 c00a89c:	e264400c 	rsb	r4, r4, #12
 c00a8a0:	e2645020 	rsb	r5, r4, #32
 c00a8a4:	e1a03410 	lsl	r3, r0, r4
 c00a8a8:	e1a00530 	lsr	r0, r0, r5
 c00a8ac:	e1800411 	orr	r0, r0, r1, lsl r4
 c00a8b0:	e2011102 	and	r1, r1, #-2147483648	; 0x80000000
 c00a8b4:	e0900fa3 	adds	r0, r0, r3, lsr #31
 c00a8b8:	e2a11000 	adc	r1, r1, #0
 c00a8bc:	e19ee083 	orrs	lr, lr, r3, lsl #1
 c00a8c0:	01c00fa3 	biceq	r0, r0, r3, lsr #31
 c00a8c4:	e8bd4070 	pop	{r4, r5, r6, lr}
 c00a8c8:	e12fff1e 	bx	lr
 c00a8cc:	e2645020 	rsb	r5, r4, #32
 c00a8d0:	e18ee510 	orr	lr, lr, r0, lsl r5
 c00a8d4:	e1a03430 	lsr	r3, r0, r4
 c00a8d8:	e1833511 	orr	r3, r3, r1, lsl r5
 c00a8dc:	e1a00431 	lsr	r0, r1, r4
 c00a8e0:	e2011102 	and	r1, r1, #-2147483648	; 0x80000000
 c00a8e4:	e1c00431 	bic	r0, r0, r1, lsr r4
 c00a8e8:	e0800fa3 	add	r0, r0, r3, lsr #31
 c00a8ec:	e19ee083 	orrs	lr, lr, r3, lsl #1
 c00a8f0:	01c00fa3 	biceq	r0, r0, r3, lsr #31
 c00a8f4:	e8bd4070 	pop	{r4, r5, r6, lr}
 c00a8f8:	e12fff1e 	bx	lr
 c00a8fc:	e3340000 	teq	r4, #0
 c00a900:	1a000008 	bne	c00a928 <__aeabi_dmul+0x1d8>
 c00a904:	e2016102 	and	r6, r1, #-2147483648	; 0x80000000
 c00a908:	e1b00080 	lsls	r0, r0, #1
 c00a90c:	e0a11001 	adc	r1, r1, r1
 c00a910:	e3110601 	tst	r1, #1048576	; 0x100000
 c00a914:	02444001 	subeq	r4, r4, #1
 c00a918:	0afffffa 	beq	c00a908 <__aeabi_dmul+0x1b8>
 c00a91c:	e1811006 	orr	r1, r1, r6
 c00a920:	e3350000 	teq	r5, #0
 c00a924:	112fff1e 	bxne	lr
 c00a928:	e2036102 	and	r6, r3, #-2147483648	; 0x80000000
 c00a92c:	e1b02082 	lsls	r2, r2, #1
 c00a930:	e0a33003 	adc	r3, r3, r3
 c00a934:	e3130601 	tst	r3, #1048576	; 0x100000
 c00a938:	02455001 	subeq	r5, r5, #1
 c00a93c:	0afffffa 	beq	c00a92c <__aeabi_dmul+0x1dc>
 c00a940:	e1833006 	orr	r3, r3, r6
 c00a944:	e12fff1e 	bx	lr
 c00a948:	e134000c 	teq	r4, ip
 c00a94c:	e00c5a23 	and	r5, ip, r3, lsr #20
 c00a950:	1135000c 	teqne	r5, ip
 c00a954:	0a000007 	beq	c00a978 <__aeabi_dmul+0x228>
 c00a958:	e1906081 	orrs	r6, r0, r1, lsl #1
 c00a95c:	11926083 	orrsne	r6, r2, r3, lsl #1
 c00a960:	1affffe5 	bne	c00a8fc <__aeabi_dmul+0x1ac>
 c00a964:	e0211003 	eor	r1, r1, r3
 c00a968:	e2011102 	and	r1, r1, #-2147483648	; 0x80000000
 c00a96c:	e3a00000 	mov	r0, #0
 c00a970:	e8bd4070 	pop	{r4, r5, r6, lr}
 c00a974:	e12fff1e 	bx	lr
 c00a978:	e1906081 	orrs	r6, r0, r1, lsl #1
 c00a97c:	01a00002 	moveq	r0, r2
 c00a980:	01a01003 	moveq	r1, r3
 c00a984:	11926083 	orrsne	r6, r2, r3, lsl #1
 c00a988:	0a000010 	beq	c00a9d0 <__aeabi_dmul+0x280>
 c00a98c:	e134000c 	teq	r4, ip
 c00a990:	1a000001 	bne	c00a99c <__aeabi_dmul+0x24c>
 c00a994:	e1906601 	orrs	r6, r0, r1, lsl #12
 c00a998:	1a00000c 	bne	c00a9d0 <__aeabi_dmul+0x280>
 c00a99c:	e135000c 	teq	r5, ip
 c00a9a0:	1a000003 	bne	c00a9b4 <__aeabi_dmul+0x264>
 c00a9a4:	e1926603 	orrs	r6, r2, r3, lsl #12
 c00a9a8:	11a00002 	movne	r0, r2
 c00a9ac:	11a01003 	movne	r1, r3
 c00a9b0:	1a000006 	bne	c00a9d0 <__aeabi_dmul+0x280>
 c00a9b4:	e0211003 	eor	r1, r1, r3
 c00a9b8:	e2011102 	and	r1, r1, #-2147483648	; 0x80000000
 c00a9bc:	e381147f 	orr	r1, r1, #2130706432	; 0x7f000000
 c00a9c0:	e381160f 	orr	r1, r1, #15728640	; 0xf00000
 c00a9c4:	e3a00000 	mov	r0, #0
 c00a9c8:	e8bd4070 	pop	{r4, r5, r6, lr}
 c00a9cc:	e12fff1e 	bx	lr
 c00a9d0:	e381147f 	orr	r1, r1, #2130706432	; 0x7f000000
 c00a9d4:	e381173e 	orr	r1, r1, #16252928	; 0xf80000
 c00a9d8:	e8bd4070 	pop	{r4, r5, r6, lr}
 c00a9dc:	e12fff1e 	bx	lr

0c00a9e0 <__aeabi_ddiv>:
 c00a9e0:	e92d4070 	push	{r4, r5, r6, lr}
 c00a9e4:	e3a0c0ff 	mov	ip, #255	; 0xff
 c00a9e8:	e38ccc07 	orr	ip, ip, #1792	; 0x700
 c00a9ec:	e01c4a21 	ands	r4, ip, r1, lsr #20
 c00a9f0:	101c5a23 	andsne	r5, ip, r3, lsr #20
 c00a9f4:	1134000c 	teqne	r4, ip
 c00a9f8:	1135000c 	teqne	r5, ip
 c00a9fc:	0b00005e 	bleq	c00ab7c <__aeabi_ddiv+0x19c>
 c00aa00:	e0444005 	sub	r4, r4, r5
 c00aa04:	e021e003 	eor	lr, r1, r3
 c00aa08:	e1925603 	orrs	r5, r2, r3, lsl #12
 c00aa0c:	e1a01601 	lsl	r1, r1, #12
 c00aa10:	0a00004c 	beq	c00ab48 <__aeabi_ddiv+0x168>
 c00aa14:	e1a03603 	lsl	r3, r3, #12
 c00aa18:	e3a05201 	mov	r5, #268435456	; 0x10000000
 c00aa1c:	e1853223 	orr	r3, r5, r3, lsr #4
 c00aa20:	e1833c22 	orr	r3, r3, r2, lsr #24
 c00aa24:	e1a02402 	lsl	r2, r2, #8
 c00aa28:	e1855221 	orr	r5, r5, r1, lsr #4
 c00aa2c:	e1855c20 	orr	r5, r5, r0, lsr #24
 c00aa30:	e1a06400 	lsl	r6, r0, #8
 c00aa34:	e20e1102 	and	r1, lr, #-2147483648	; 0x80000000
 c00aa38:	e1550003 	cmp	r5, r3
 c00aa3c:	01560002 	cmpeq	r6, r2
 c00aa40:	e2a440fd 	adc	r4, r4, #253	; 0xfd
 c00aa44:	e2844c03 	add	r4, r4, #768	; 0x300
 c00aa48:	2a000001 	bcs	c00aa54 <__aeabi_ddiv+0x74>
 c00aa4c:	e1b030a3 	lsrs	r3, r3, #1
 c00aa50:	e1a02062 	rrx	r2, r2
 c00aa54:	e0566002 	subs	r6, r6, r2
 c00aa58:	e0c55003 	sbc	r5, r5, r3
 c00aa5c:	e1b030a3 	lsrs	r3, r3, #1
 c00aa60:	e1a02062 	rrx	r2, r2
 c00aa64:	e3a00601 	mov	r0, #1048576	; 0x100000
 c00aa68:	e3a0c702 	mov	ip, #524288	; 0x80000
 c00aa6c:	e056e002 	subs	lr, r6, r2
 c00aa70:	e0d5e003 	sbcs	lr, r5, r3
 c00aa74:	20466002 	subcs	r6, r6, r2
 c00aa78:	21a0500e 	movcs	r5, lr
 c00aa7c:	2180000c 	orrcs	r0, r0, ip
 c00aa80:	e1b030a3 	lsrs	r3, r3, #1
 c00aa84:	e1a02062 	rrx	r2, r2
 c00aa88:	e056e002 	subs	lr, r6, r2
 c00aa8c:	e0d5e003 	sbcs	lr, r5, r3
 c00aa90:	20466002 	subcs	r6, r6, r2
 c00aa94:	21a0500e 	movcs	r5, lr
 c00aa98:	218000ac 	orrcs	r0, r0, ip, lsr #1
 c00aa9c:	e1b030a3 	lsrs	r3, r3, #1
 c00aaa0:	e1a02062 	rrx	r2, r2
 c00aaa4:	e056e002 	subs	lr, r6, r2
 c00aaa8:	e0d5e003 	sbcs	lr, r5, r3
 c00aaac:	20466002 	subcs	r6, r6, r2
 c00aab0:	21a0500e 	movcs	r5, lr
 c00aab4:	2180012c 	orrcs	r0, r0, ip, lsr #2
 c00aab8:	e1b030a3 	lsrs	r3, r3, #1
 c00aabc:	e1a02062 	rrx	r2, r2
 c00aac0:	e056e002 	subs	lr, r6, r2
 c00aac4:	e0d5e003 	sbcs	lr, r5, r3
 c00aac8:	20466002 	subcs	r6, r6, r2
 c00aacc:	21a0500e 	movcs	r5, lr
 c00aad0:	218001ac 	orrcs	r0, r0, ip, lsr #3
 c00aad4:	e195e006 	orrs	lr, r5, r6
 c00aad8:	0a00000d 	beq	c00ab14 <__aeabi_ddiv+0x134>
 c00aadc:	e1a05205 	lsl	r5, r5, #4
 c00aae0:	e1855e26 	orr	r5, r5, r6, lsr #28
 c00aae4:	e1a06206 	lsl	r6, r6, #4
 c00aae8:	e1a03183 	lsl	r3, r3, #3
 c00aaec:	e1833ea2 	orr	r3, r3, r2, lsr #29
 c00aaf0:	e1a02182 	lsl	r2, r2, #3
 c00aaf4:	e1b0c22c 	lsrs	ip, ip, #4
 c00aaf8:	1affffdb 	bne	c00aa6c <__aeabi_ddiv+0x8c>
 c00aafc:	e3110601 	tst	r1, #1048576	; 0x100000
 c00ab00:	1a000006 	bne	c00ab20 <__aeabi_ddiv+0x140>
 c00ab04:	e1811000 	orr	r1, r1, r0
 c00ab08:	e3a00000 	mov	r0, #0
 c00ab0c:	e3a0c102 	mov	ip, #-2147483648	; 0x80000000
 c00ab10:	eaffffd5 	b	c00aa6c <__aeabi_ddiv+0x8c>
 c00ab14:	e3110601 	tst	r1, #1048576	; 0x100000
 c00ab18:	01811000 	orreq	r1, r1, r0
 c00ab1c:	03a00000 	moveq	r0, #0
 c00ab20:	e254c0fd 	subs	ip, r4, #253	; 0xfd
 c00ab24:	835c0c07 	cmphi	ip, #1792	; 0x700
 c00ab28:	8affff43 	bhi	c00a83c <__aeabi_dmul+0xec>
 c00ab2c:	e055c003 	subs	ip, r5, r3
 c00ab30:	0056c002 	subseq	ip, r6, r2
 c00ab34:	01b0c0a0 	lsrseq	ip, r0, #1
 c00ab38:	e2b00000 	adcs	r0, r0, #0
 c00ab3c:	e0a11a04 	adc	r1, r1, r4, lsl #20
 c00ab40:	e8bd4070 	pop	{r4, r5, r6, lr}
 c00ab44:	e12fff1e 	bx	lr
 c00ab48:	e20ee102 	and	lr, lr, #-2147483648	; 0x80000000
 c00ab4c:	e18e1621 	orr	r1, lr, r1, lsr #12
 c00ab50:	e09440ac 	adds	r4, r4, ip, lsr #1
 c00ab54:	c074500c 	rsbsgt	r5, r4, ip
 c00ab58:	c1811a04 	orrgt	r1, r1, r4, lsl #20
 c00ab5c:	c8bd4070 	popgt	{r4, r5, r6, lr}
 c00ab60:	c12fff1e 	bxgt	lr
 c00ab64:	e3811601 	orr	r1, r1, #1048576	; 0x100000
 c00ab68:	e3a0e000 	mov	lr, #0
 c00ab6c:	e2544001 	subs	r4, r4, #1
 c00ab70:	eaffff31 	b	c00a83c <__aeabi_dmul+0xec>
 c00ab74:	e185e006 	orr	lr, r5, r6
 c00ab78:	eaffff2f 	b	c00a83c <__aeabi_dmul+0xec>
 c00ab7c:	e00c5a23 	and	r5, ip, r3, lsr #20
 c00ab80:	e134000c 	teq	r4, ip
 c00ab84:	0135000c 	teqeq	r5, ip
 c00ab88:	0affff90 	beq	c00a9d0 <__aeabi_dmul+0x280>
 c00ab8c:	e134000c 	teq	r4, ip
 c00ab90:	1a000006 	bne	c00abb0 <__aeabi_ddiv+0x1d0>
 c00ab94:	e1904601 	orrs	r4, r0, r1, lsl #12
 c00ab98:	1affff8c 	bne	c00a9d0 <__aeabi_dmul+0x280>
 c00ab9c:	e135000c 	teq	r5, ip
 c00aba0:	1affff83 	bne	c00a9b4 <__aeabi_dmul+0x264>
 c00aba4:	e1a00002 	mov	r0, r2
 c00aba8:	e1a01003 	mov	r1, r3
 c00abac:	eaffff87 	b	c00a9d0 <__aeabi_dmul+0x280>
 c00abb0:	e135000c 	teq	r5, ip
 c00abb4:	1a000004 	bne	c00abcc <__aeabi_ddiv+0x1ec>
 c00abb8:	e1925603 	orrs	r5, r2, r3, lsl #12
 c00abbc:	0affff68 	beq	c00a964 <__aeabi_dmul+0x214>
 c00abc0:	e1a00002 	mov	r0, r2
 c00abc4:	e1a01003 	mov	r1, r3
 c00abc8:	eaffff80 	b	c00a9d0 <__aeabi_dmul+0x280>
 c00abcc:	e1906081 	orrs	r6, r0, r1, lsl #1
 c00abd0:	11926083 	orrsne	r6, r2, r3, lsl #1
 c00abd4:	1affff48 	bne	c00a8fc <__aeabi_dmul+0x1ac>
 c00abd8:	e1904081 	orrs	r4, r0, r1, lsl #1
 c00abdc:	1affff74 	bne	c00a9b4 <__aeabi_dmul+0x264>
 c00abe0:	e1925083 	orrs	r5, r2, r3, lsl #1
 c00abe4:	1affff5e 	bne	c00a964 <__aeabi_dmul+0x214>
 c00abe8:	eaffff78 	b	c00a9d0 <__aeabi_dmul+0x280>

0c00abec <__gedf2>:
 c00abec:	e3e0c000 	mvn	ip, #0
 c00abf0:	ea000002 	b	c00ac00 <__cmpdf2+0x4>

0c00abf4 <__ledf2>:
 c00abf4:	e3a0c001 	mov	ip, #1
 c00abf8:	ea000000 	b	c00ac00 <__cmpdf2+0x4>

0c00abfc <__cmpdf2>:
 c00abfc:	e3a0c001 	mov	ip, #1
 c00ac00:	e52dc004 	push	{ip}		; (str ip, [sp, #-4]!)
 c00ac04:	e1a0c081 	lsl	ip, r1, #1
 c00ac08:	e1f0cacc 	mvns	ip, ip, asr #21
 c00ac0c:	e1a0c083 	lsl	ip, r3, #1
 c00ac10:	11f0cacc 	mvnsne	ip, ip, asr #21
 c00ac14:	0a00000e 	beq	c00ac54 <__cmpdf2+0x58>
 c00ac18:	e28dd004 	add	sp, sp, #4
 c00ac1c:	e190c081 	orrs	ip, r0, r1, lsl #1
 c00ac20:	0192c083 	orrseq	ip, r2, r3, lsl #1
 c00ac24:	11310003 	teqne	r1, r3
 c00ac28:	01300002 	teqeq	r0, r2
 c00ac2c:	03a00000 	moveq	r0, #0
 c00ac30:	012fff1e 	bxeq	lr
 c00ac34:	e3700000 	cmn	r0, #0
 c00ac38:	e1310003 	teq	r1, r3
 c00ac3c:	51510003 	cmppl	r1, r3
 c00ac40:	01500002 	cmpeq	r0, r2
 c00ac44:	21a00fc3 	asrcs	r0, r3, #31
 c00ac48:	31e00fc3 	mvncc	r0, r3, asr #31
 c00ac4c:	e3800001 	orr	r0, r0, #1
 c00ac50:	e12fff1e 	bx	lr
 c00ac54:	e1a0c081 	lsl	ip, r1, #1
 c00ac58:	e1f0cacc 	mvns	ip, ip, asr #21
 c00ac5c:	1a000001 	bne	c00ac68 <__cmpdf2+0x6c>
 c00ac60:	e190c601 	orrs	ip, r0, r1, lsl #12
 c00ac64:	1a000004 	bne	c00ac7c <__cmpdf2+0x80>
 c00ac68:	e1a0c083 	lsl	ip, r3, #1
 c00ac6c:	e1f0cacc 	mvns	ip, ip, asr #21
 c00ac70:	1affffe8 	bne	c00ac18 <__cmpdf2+0x1c>
 c00ac74:	e192c603 	orrs	ip, r2, r3, lsl #12
 c00ac78:	0affffe6 	beq	c00ac18 <__cmpdf2+0x1c>
 c00ac7c:	e49d0004 	pop	{r0}		; (ldr r0, [sp], #4)
 c00ac80:	e12fff1e 	bx	lr

0c00ac84 <__aeabi_cdrcmple>:
 c00ac84:	e1a0c000 	mov	ip, r0
 c00ac88:	e1a00002 	mov	r0, r2
 c00ac8c:	e1a0200c 	mov	r2, ip
 c00ac90:	e1a0c001 	mov	ip, r1
 c00ac94:	e1a01003 	mov	r1, r3
 c00ac98:	e1a0300c 	mov	r3, ip
 c00ac9c:	eaffffff 	b	c00aca0 <__aeabi_cdcmpeq>

0c00aca0 <__aeabi_cdcmpeq>:
 c00aca0:	e92d4001 	push	{r0, lr}
 c00aca4:	ebffffd4 	bl	c00abfc <__cmpdf2>
 c00aca8:	e3500000 	cmp	r0, #0
 c00acac:	43700000 	cmnmi	r0, #0
 c00acb0:	e8bd4001 	pop	{r0, lr}
 c00acb4:	e12fff1e 	bx	lr

0c00acb8 <__aeabi_dcmpeq>:
 c00acb8:	e52de008 	str	lr, [sp, #-8]!
 c00acbc:	ebfffff7 	bl	c00aca0 <__aeabi_cdcmpeq>
 c00acc0:	03a00001 	moveq	r0, #1
 c00acc4:	13a00000 	movne	r0, #0
 c00acc8:	e49de008 	ldr	lr, [sp], #8
 c00accc:	e12fff1e 	bx	lr

0c00acd0 <__aeabi_dcmplt>:
 c00acd0:	e52de008 	str	lr, [sp, #-8]!
 c00acd4:	ebfffff1 	bl	c00aca0 <__aeabi_cdcmpeq>
 c00acd8:	33a00001 	movcc	r0, #1
 c00acdc:	23a00000 	movcs	r0, #0
 c00ace0:	e49de008 	ldr	lr, [sp], #8
 c00ace4:	e12fff1e 	bx	lr

0c00ace8 <__aeabi_dcmple>:
 c00ace8:	e52de008 	str	lr, [sp, #-8]!
 c00acec:	ebffffeb 	bl	c00aca0 <__aeabi_cdcmpeq>
 c00acf0:	93a00001 	movls	r0, #1
 c00acf4:	83a00000 	movhi	r0, #0
 c00acf8:	e49de008 	ldr	lr, [sp], #8
 c00acfc:	e12fff1e 	bx	lr

0c00ad00 <__aeabi_dcmpge>:
 c00ad00:	e52de008 	str	lr, [sp, #-8]!
 c00ad04:	ebffffde 	bl	c00ac84 <__aeabi_cdrcmple>
 c00ad08:	93a00001 	movls	r0, #1
 c00ad0c:	83a00000 	movhi	r0, #0
 c00ad10:	e49de008 	ldr	lr, [sp], #8
 c00ad14:	e12fff1e 	bx	lr

0c00ad18 <__aeabi_dcmpgt>:
 c00ad18:	e52de008 	str	lr, [sp, #-8]!
 c00ad1c:	ebffffd8 	bl	c00ac84 <__aeabi_cdrcmple>
 c00ad20:	33a00001 	movcc	r0, #1
 c00ad24:	23a00000 	movcs	r0, #0
 c00ad28:	e49de008 	ldr	lr, [sp], #8
 c00ad2c:	e12fff1e 	bx	lr

0c00ad30 <__aeabi_d2iz>:
 c00ad30:	e1a02081 	lsl	r2, r1, #1
 c00ad34:	e2922602 	adds	r2, r2, #2097152	; 0x200000
 c00ad38:	2a00000c 	bcs	c00ad70 <__aeabi_d2iz+0x40>
 c00ad3c:	5a000009 	bpl	c00ad68 <__aeabi_d2iz+0x38>
 c00ad40:	e3e03e3e 	mvn	r3, #992	; 0x3e0
 c00ad44:	e0532ac2 	subs	r2, r3, r2, asr #21
 c00ad48:	9a00000a 	bls	c00ad78 <__aeabi_d2iz+0x48>
 c00ad4c:	e1a03581 	lsl	r3, r1, #11
 c00ad50:	e3833102 	orr	r3, r3, #-2147483648	; 0x80000000
 c00ad54:	e1833aa0 	orr	r3, r3, r0, lsr #21
 c00ad58:	e3110102 	tst	r1, #-2147483648	; 0x80000000
 c00ad5c:	e1a00233 	lsr	r0, r3, r2
 c00ad60:	12600000 	rsbne	r0, r0, #0
 c00ad64:	e12fff1e 	bx	lr
 c00ad68:	e3a00000 	mov	r0, #0
 c00ad6c:	e12fff1e 	bx	lr
 c00ad70:	e1900601 	orrs	r0, r0, r1, lsl #12
 c00ad74:	1a000002 	bne	c00ad84 <__aeabi_d2iz+0x54>
 c00ad78:	e2110102 	ands	r0, r1, #-2147483648	; 0x80000000
 c00ad7c:	03e00102 	mvneq	r0, #-2147483648	; 0x80000000
 c00ad80:	e12fff1e 	bx	lr
 c00ad84:	e3a00000 	mov	r0, #0
 c00ad88:	e12fff1e 	bx	lr

0c00ad8c <strlen>:
 c00ad8c:	e3c01003 	bic	r1, r0, #3
 c00ad90:	e2100003 	ands	r0, r0, #3
 c00ad94:	e2600000 	rsb	r0, r0, #0
 c00ad98:	e4913004 	ldr	r3, [r1], #4
 c00ad9c:	e280c004 	add	ip, r0, #4
 c00ada0:	e1a0c18c 	lsl	ip, ip, #3
 c00ada4:	e3e02000 	mvn	r2, #0
 c00ada8:	11833c32 	orrne	r3, r3, r2, lsr ip
 c00adac:	e3a0c001 	mov	ip, #1
 c00adb0:	e18cc40c 	orr	ip, ip, ip, lsl #8
 c00adb4:	e18cc80c 	orr	ip, ip, ip, lsl #16
 c00adb8:	e043200c 	sub	r2, r3, ip
 c00adbc:	e1c22003 	bic	r2, r2, r3
 c00adc0:	e012238c 	ands	r2, r2, ip, lsl #7
 c00adc4:	04913004 	ldreq	r3, [r1], #4
 c00adc8:	02800004 	addeq	r0, r0, #4
 c00adcc:	0afffff9 	beq	c00adb8 <strlen+0x2c>
 c00add0:	e31300ff 	tst	r3, #255	; 0xff
 c00add4:	12800001 	addne	r0, r0, #1
 c00add8:	13130cff 	tstne	r3, #65280	; 0xff00
 c00addc:	12800001 	addne	r0, r0, #1
 c00ade0:	131308ff 	tstne	r3, #16711680	; 0xff0000
 c00ade4:	12800001 	addne	r0, r0, #1
 c00ade8:	e12fff1e 	bx	lr
